ARM GAS  /tmp/ccQtIYYF.s 			page 1


   1              		.cpu cortex-m0plus
   2              		.fpu softvfp
   3              		.eabi_attribute 20, 1	@ Tag_ABI_FP_denormal
   4              		.eabi_attribute 21, 1	@ Tag_ABI_FP_exceptions
   5              		.eabi_attribute 23, 3	@ Tag_ABI_FP_number_model
   6              		.eabi_attribute 24, 1	@ Tag_ABI_align8_needed
   7              		.eabi_attribute 25, 1	@ Tag_ABI_align8_preserved
   8              		.eabi_attribute 26, 1	@ Tag_ABI_enum_size
   9              		.eabi_attribute 30, 1	@ Tag_ABI_optimization_goals
  10              		.eabi_attribute 34, 0	@ Tag_CPU_unaligned_access
  11              		.eabi_attribute 18, 4	@ Tag_ABI_PCS_wchar_t
  12              		.file	"clock.c"
  13              	@ GNU C (GNU Tools for ARM Embedded Processors) version 4.8.3 20131129 (release) [ARM/embedded-4_8-
  14              	@	compiled by GNU C version 4.6.3, GMP version 4.3.2, MPFR version 2.4.2, MPC version 0.8.1
  15              	@ GGC heuristics: --param ggc-min-expand=100 --param ggc-min-heapsize=131072
  16              	@ options passed:  -I . -I ../../cpu/arm/mkl25z
  17              	@ -I ../../cpu/arm/mkl25z/loader -I ../../cpu/arm/mkl25z/dbg-io
  18              	@ -I ../../dev -I ../../platform/frdm-kl25z-rf
  19              	@ -I /home/glacsweb/arm-gcc/ARM_GCC_Support/ewl/EWL_C/include
  20              	@ -I /home/glacsweb/arm-gcc/ARM_GCC_Support/ewl/EWL_Runtime/include
  21              	@ -I /home/glacsweb/arm-gcc/lib/gcc/arm-none-eabi/4.8.3/include
  22              	@ -I /home/glacsweb/arm-gcc/lib/gcc/arm-none-eabi/4.8.3/include-fixed
  23              	@ -I /home/glacsweb/arm-gcc/arm-none-eabi/include -I ../../dev/cc1120 -I .
  24              	@ -I ../../platform/frdm-kl25z-rf/. -I ../../platform/frdm-kl25z-rf/dev
  25              	@ -I ../../platform/frdm-kl25z-rf/apps -I ../../platform/frdm-kl25z-rf/net
  26              	@ -I ../../platform/frdm-kl25z-rf/../../dev/cc1120
  27              	@ -I ../../platform/frdm-kl25z-rf/../../core/net -I ../../cpu/arm/mkl25z/.
  28              	@ -I ../../cpu/arm/mkl25z/../common/dbg-io -I ../../cpu/arm/mkl25z/loader
  29              	@ -I ../../core/dev -I ../../core/lib -I ../../core/net
  30              	@ -I ../../core/net/mac -I ../../core/net/rime -I ../../core/net/rpl
  31              	@ -I ../../core/sys -I ../../core/cfs -I ../../core/ctk
  32              	@ -I ../../core/lib/ctk -I ../../core/loader -I ../../core/.
  33              	@ -I ../../platform/frdm-kl25z-rf/ -imultilib armv6-m
  34              	@ -iprefix /home/glacsweb/arm-gcc/bin/../lib/gcc/arm-none-eabi/4.8.3/
  35              	@ -isysroot /home/glacsweb/arm-gcc/bin/../arm-none-eabi -D__USES_INITFINI__
  36              	@ -D CONTIKI=1 -D CONTIKI_TARGET_FRDM_KL25Z_RF=1 -D WITH_UIP=1
  37              	@ -D MCK=48000000 -D AUTOSTART_ENABLE -D CC11xx_CC1120=1 -D RUN_AS_SYSTEM
  38              	@ -D ROM_RUN -D __SDCC
  39              	@ -D CONTIKI_VERSION_STRING="Contiki-KL25Z-Port-18-g5a8e189"
  40              	@ ../../cpu/arm/mkl25z/./clock.c -mcpu=cortex-m0plus -mthumb
  41              	@ -auxbase-strip obj_frdm-kl25z-rf/clock.o -gdwarf-2 -g -O -Wall
  42              	@ -Wstrict-prototypes -fomit-frame-pointer -fverbose-asm
  43              	@ options enabled:  -faggressive-loop-optimizations -fauto-inc-dec
  44              	@ -fbranch-count-reg -fcombine-stack-adjustments -fcommon -fcompare-elim
  45              	@ -fcprop-registers -fdefer-pop -fdelete-null-pointer-checks
  46              	@ -fdwarf2-cfi-asm -fearly-inlining -feliminate-unused-debug-types
  47              	@ -fforward-propagate -ffunction-cse -fgcse-lm -fgnu-runtime
  48              	@ -fguess-branch-probability -fident -fif-conversion -fif-conversion2
  49              	@ -finline -finline-atomics -finline-functions-called-once -fipa-profile
  50              	@ -fipa-pure-const -fipa-reference -fira-hoist-pressure
  51              	@ -fira-share-save-slots -fira-share-spill-slots -fivopts
  52              	@ -fkeep-static-consts -fleading-underscore -fmath-errno -fmerge-constants
  53              	@ -fmerge-debug-strings -fmove-loop-invariants -fomit-frame-pointer
  54              	@ -fpeephole -fprefetch-loop-arrays -freg-struct-return
  55              	@ -fsched-critical-path-heuristic -fsched-dep-count-heuristic
  56              	@ -fsched-group-heuristic -fsched-interblock -fsched-last-insn-heuristic
  57              	@ -fsched-pressure -fsched-rank-heuristic -fsched-spec
ARM GAS  /tmp/ccQtIYYF.s 			page 2


  58              	@ -fsched-spec-insn-heuristic -fsched-stalled-insns-dep -fsection-anchors
  59              	@ -fshow-column -fshrink-wrap -fsigned-zeros -fsplit-ivs-in-unroller
  60              	@ -fsplit-wide-types -fstrict-volatile-bitfields -fsync-libcalls
  61              	@ -ftoplevel-reorder -ftrapping-math -ftree-bit-ccp -ftree-ccp -ftree-ch
  62              	@ -ftree-coalesce-vars -ftree-copy-prop -ftree-copyrename -ftree-cselim
  63              	@ -ftree-dce -ftree-dominator-opts -ftree-dse -ftree-forwprop -ftree-fre
  64              	@ -ftree-loop-if-convert -ftree-loop-im -ftree-loop-ivcanon
  65              	@ -ftree-loop-optimize -ftree-parallelize-loops= -ftree-phiprop -ftree-pta
  66              	@ -ftree-reassoc -ftree-scev-cprop -ftree-sink -ftree-slp-vectorize
  67              	@ -ftree-slsr -ftree-sra -ftree-ter -ftree-vect-loop-version
  68              	@ -funit-at-a-time -fvar-tracking -fvar-tracking-assignments -fverbose-asm
  69              	@ -fzero-initialized-in-bss -mlittle-endian -mpic-data-is-text-relative
  70              	@ -msched-prolog -mthumb -mvectorize-with-neon-quad
  71              	
  72              		.text
  73              	.Ltext0:
  74              		.cfi_sections	.debug_frame
  75              		.align	2
  76              		.global	SysTick_Handler
  77              		.code	16
  78              		.thumb_func
  79              		.type	SysTick_Handler, %function
  80              	SysTick_Handler:
  81              	.LFB0:
  82              		.file 1 "../../cpu/arm/mkl25z/./clock.c"
   1:../../cpu/arm/mkl25z/./clock.c **** #include <contiki.h>
   2:../../cpu/arm/mkl25z/./clock.c **** #include <sys/clock.h>
   3:../../cpu/arm/mkl25z/./clock.c **** #include <sys/cc.h>
   4:../../cpu/arm/mkl25z/./clock.c **** #include <sys/etimer.h>
   5:../../cpu/arm/mkl25z/./clock.c **** #include <MKL25Z4.h>
   6:../../cpu/arm/mkl25z/./clock.c **** 
   7:../../cpu/arm/mkl25z/./clock.c **** #include "cpu.h"
   8:../../cpu/arm/mkl25z/./clock.c **** #include "nvic.h"
   9:../../cpu/arm/mkl25z/./clock.c **** #include "debug-uart.h"
  10:../../cpu/arm/mkl25z/./clock.c **** 
  11:../../cpu/arm/mkl25z/./clock.c **** static volatile clock_time_t current_clock = 0;
  12:../../cpu/arm/mkl25z/./clock.c **** static volatile unsigned long current_seconds = 0;
  13:../../cpu/arm/mkl25z/./clock.c **** static unsigned int second_countdown = CLOCK_SECOND;
  14:../../cpu/arm/mkl25z/./clock.c **** 
  15:../../cpu/arm/mkl25z/./clock.c **** //void
  16:../../cpu/arm/mkl25z/./clock.c **** //SysTick_handler(void) __attribute__ ((interrupt));
  17:../../cpu/arm/mkl25z/./clock.c **** 
  18:../../cpu/arm/mkl25z/./clock.c **** void
  19:../../cpu/arm/mkl25z/./clock.c **** SysTick_Handler(void)
  20:../../cpu/arm/mkl25z/./clock.c **** {
  83              		.loc 1 20 0
  84              		.cfi_startproc
  85 0000 08B5     		push	{r3, lr}	@
  86              	.LCFI0:
  87              		.cfi_def_cfa_offset 8
  88              		.cfi_offset 3, -8
  89              		.cfi_offset 14, -4
  21:../../cpu/arm/mkl25z/./clock.c **** 	(void)SYST_CSR;						/* Dummy read CSR register to clear Count flag. SysTick->CTRL in CMSIS */
  90              		.loc 1 21 0
  91 0002 104B     		ldr	r3, .L4	@ tmp120,
  92 0004 1B68     		ldr	r3, [r3]	@ vol.0, MEM[(volatile struct SysTick_MemMap *)3758153744B].CSR
  22:../../cpu/arm/mkl25z/./clock.c **** 	//SCB_ICSR = SCB_ICSR_PENDSTCLR_MASK;	/* Clear pending interrupt in SCB. */
ARM GAS  /tmp/ccQtIYYF.s 			page 3


  23:../../cpu/arm/mkl25z/./clock.c **** 	current_clock++;						/* Increment current clock. */
  93              		.loc 1 23 0
  94 0006 104B     		ldr	r3, .L4+4	@ tmp121,
  95 0008 1A68     		ldr	r2, [r3]	@ current_clock.1, current_clock
  96 000a 0132     		add	r2, r2, #1	@ current_clock.2,
  97 000c 1A60     		str	r2, [r3]	@ current_clock.2, current_clock
  24:../../cpu/arm/mkl25z/./clock.c **** 	if(etimer_pending() && etimer_next_expiration_time() >= current_clock) {
  98              		.loc 1 24 0
  99 000e FFF7FEFF 		bl	etimer_pending	@
 100              	.LVL0:
 101 0012 0028     		cmp	r0, #0	@ D.4922,
 102 0014 07D0     		beq	.L2	@,
 103              		.loc 1 24 0 is_stmt 0 discriminator 1
 104 0016 FFF7FEFF 		bl	etimer_next_expiration_time	@
 105              	.LVL1:
 106 001a 0B4B     		ldr	r3, .L4+4	@ tmp123,
 107 001c 1B68     		ldr	r3, [r3]	@ current_clock.3, current_clock
 108 001e 9842     		cmp	r0, r3	@ D.4923, current_clock.3
 109 0020 01D3     		bcc	.L2	@,
  25:../../cpu/arm/mkl25z/./clock.c **** 		etimer_request_poll();
 110              		.loc 1 25 0 is_stmt 1
 111 0022 FFF7FEFF 		bl	etimer_request_poll	@
 112              	.LVL2:
 113              	.L2:
  26:../../cpu/arm/mkl25z/./clock.c **** 		/* printf("%d,%d\n", clock_time(),etimer_next_expiration_time  	()); */
  27:../../cpu/arm/mkl25z/./clock.c **** 	}
  28:../../cpu/arm/mkl25z/./clock.c **** 	if (--second_countdown == 0) {
 114              		.loc 1 28 0
 115 0026 094A     		ldr	r2, .L4+8	@ tmp124,
 116 0028 1368     		ldr	r3, [r2]	@ second_countdown.5, second_countdown
 117 002a 013B     		sub	r3, r3, #1	@ second_countdown.5,
 118 002c 1360     		str	r3, [r2]	@ second_countdown.5, second_countdown
 119 002e 002B     		cmp	r3, #0	@ second_countdown.5,
 120 0030 06D1     		bne	.L1	@,
  29:../../cpu/arm/mkl25z/./clock.c **** 		current_seconds++;
 121              		.loc 1 29 0
 122 0032 054B     		ldr	r3, .L4+4	@ tmp127,
 123 0034 5A68     		ldr	r2, [r3, #4]	@ current_seconds.6, current_seconds
 124 0036 0132     		add	r2, r2, #1	@ current_seconds.7,
 125 0038 5A60     		str	r2, [r3, #4]	@ current_seconds.7, current_seconds
  30:../../cpu/arm/mkl25z/./clock.c **** 		second_countdown = CLOCK_SECOND;
 126              		.loc 1 30 0
 127 003a 6422     		mov	r2, #100	@ tmp130,
 128 003c 034B     		ldr	r3, .L4+8	@ tmp129,
 129 003e 1A60     		str	r2, [r3]	@ tmp130, second_countdown
 130              	.L1:
  31:../../cpu/arm/mkl25z/./clock.c **** 	}
  32:../../cpu/arm/mkl25z/./clock.c **** }
 131              		.loc 1 32 0
 132              		@ sp needed	@
 133 0040 08BD     		pop	{r3, pc}
 134              	.L5:
 135 0042 C046     		.align	2
 136              	.L4:
 137 0044 10E000E0 		.word	-536813552
 138 0048 00000000 		.word	.LANCHOR0
 139 004c 00000000 		.word	.LANCHOR1
ARM GAS  /tmp/ccQtIYYF.s 			page 4


 140              		.cfi_endproc
 141              	.LFE0:
 142              		.size	SysTick_Handler, .-SysTick_Handler
 143              		.align	2
 144              		.global	clock_init
 145              		.code	16
 146              		.thumb_func
 147              		.type	clock_init, %function
 148              	clock_init:
 149              	.LFB1:
  33:../../cpu/arm/mkl25z/./clock.c **** 
  34:../../cpu/arm/mkl25z/./clock.c **** 
  35:../../cpu/arm/mkl25z/./clock.c **** void
  36:../../cpu/arm/mkl25z/./clock.c **** clock_init()
  37:../../cpu/arm/mkl25z/./clock.c **** {
 150              		.loc 1 37 0
 151              		.cfi_startproc
 152 0050 08B5     		push	{r3, lr}	@
 153              	.LCFI1:
 154              		.cfi_def_cfa_offset 8
 155              		.cfi_offset 3, -8
 156              		.cfi_offset 14, -4
  38:../../cpu/arm/mkl25z/./clock.c **** 	NVIC_SET_SYSTICK_PRI(8);				/* Set Systick priority. */
 157              		.loc 1 38 0
 158 0052 0820     		mov	r0, #8	@,
 159 0054 FFF7FEFF 		bl	NVIC_SET_SYSTICK_PRI	@
 160              	.LVL3:
  39:../../cpu/arm/mkl25z/./clock.c **** 	SYST_RVR = CORECLK/16/CLOCK_SECOND;		/* Set reload value.  SysTick->LOAD in CMSIS. */
 161              		.loc 1 39 0
 162 0058 024B     		ldr	r3, .L7	@ tmp110,
 163 005a 034A     		ldr	r2, .L7+4	@ tmp111,
 164 005c 5A60     		str	r2, [r3, #4]	@ tmp111, MEM[(volatile struct SysTick_MemMap *)3758153744B].RVR
  40:../../cpu/arm/mkl25z/./clock.c **** 	SYST_CSR = 	SysTick_CSR_ENABLE_MASK | 	/* Enable SysTick. */
 165              		.loc 1 40 0
 166 005e 0322     		mov	r2, #3	@ tmp113,
 167 0060 1A60     		str	r2, [r3]	@ tmp113, MEM[(volatile struct SysTick_MemMap *)3758153744B].CSR
  41:../../cpu/arm/mkl25z/./clock.c **** 				SysTick_CSR_TICKINT_MASK; 		/* Enable tick interrupt. */	
  42:../../cpu/arm/mkl25z/./clock.c **** 	/* Leave clock source as "external" clock.  This is core clock / 16, so 48/16 = 3MHz. */
  43:../../cpu/arm/mkl25z/./clock.c **** 	/* In CMSIS, this would be: SysTick->CTRL = SysTick_CTRL_ENABLE | SysTick_CTRL_TICKINT; */
  44:../../cpu/arm/mkl25z/./clock.c **** }
 168              		.loc 1 44 0
 169              		@ sp needed	@
 170 0062 08BD     		pop	{r3, pc}
 171              	.L8:
 172              		.align	2
 173              	.L7:
 174 0064 10E000E0 		.word	-536813552
 175 0068 30750000 		.word	30000
 176              		.cfi_endproc
 177              	.LFE1:
 178              		.size	clock_init, .-clock_init
 179              		.align	2
 180              		.global	clock_time
 181              		.code	16
 182              		.thumb_func
 183              		.type	clock_time, %function
 184              	clock_time:
ARM GAS  /tmp/ccQtIYYF.s 			page 5


 185              	.LFB2:
  45:../../cpu/arm/mkl25z/./clock.c **** 
  46:../../cpu/arm/mkl25z/./clock.c **** clock_time_t
  47:../../cpu/arm/mkl25z/./clock.c **** clock_time(void)
  48:../../cpu/arm/mkl25z/./clock.c **** {
 186              		.loc 1 48 0
 187              		.cfi_startproc
  49:../../cpu/arm/mkl25z/./clock.c ****   return current_clock;
 188              		.loc 1 49 0
 189 006c 014B     		ldr	r3, .L10	@ tmp112,
 190 006e 1868     		ldr	r0, [r3]	@ D.4928, current_clock
  50:../../cpu/arm/mkl25z/./clock.c **** }
 191              		.loc 1 50 0
 192              		@ sp needed	@
 193 0070 7047     		bx	lr
 194              	.L11:
 195 0072 C046     		.align	2
 196              	.L10:
 197 0074 00000000 		.word	.LANCHOR0
 198              		.cfi_endproc
 199              	.LFE2:
 200              		.size	clock_time, .-clock_time
 201              		.global	__aeabi_ui2d
 202              		.global	__aeabi_dmul
 203              		.global	__aeabi_i2d
 204              		.global	__aeabi_dcmplt
 205              		.align	2
 206              		.global	clock_delay
 207              		.code	16
 208              		.thumb_func
 209              		.type	clock_delay, %function
 210              	clock_delay:
 211              	.LFB3:
  51:../../cpu/arm/mkl25z/./clock.c **** 
  52:../../cpu/arm/mkl25z/./clock.c **** void
  53:../../cpu/arm/mkl25z/./clock.c **** clock_delay(unsigned int t)
  54:../../cpu/arm/mkl25z/./clock.c **** {
 212              		.loc 1 54 0
 213              		.cfi_startproc
 214              	.LVL4:
 215 0078 70B5     		push	{r4, r5, r6, lr}	@
 216              	.LCFI2:
 217              		.cfi_def_cfa_offset 16
 218              		.cfi_offset 4, -16
 219              		.cfi_offset 5, -12
 220              		.cfi_offset 6, -8
 221              		.cfi_offset 14, -4
 222 007a 82B0     		sub	sp, sp, #8	@,,
 223              	.LCFI3:
 224              		.cfi_def_cfa_offset 24
  55:../../cpu/arm/mkl25z/./clock.c **** 	volatile uint8_t i;
  56:../../cpu/arm/mkl25z/./clock.c **** 	for(i=0; i<(t*1.25); i++) {
 225              		.loc 1 56 0
 226 007c 6B46     		mov	r3, sp	@ tmp121,
 227 007e 0022     		mov	r2, #0	@ tmp122,
 228 0080 DA71     		strb	r2, [r3, #7]	@ tmp122, i
 229 0082 DE79     		ldrb	r6, [r3, #7]	@ i, i
ARM GAS  /tmp/ccQtIYYF.s 			page 6


 230 0084 F6B2     		uxtb	r6, r6	@ i.11, i
 231 0086 FFF7FEFF 		bl	__aeabi_ui2d	@
 232              	.LVL5:
 233 008a 124B     		ldr	r3, .L20+4	@,
 234 008c 104A     		ldr	r2, .L20	@,
 235 008e FFF7FEFF 		bl	__aeabi_dmul	@
 236              	.LVL6:
 237 0092 041C     		mov	r4, r0	@ D.4932,
 238 0094 0D1C     		mov	r5, r1	@ D.4932,
 239 0096 301C     		mov	r0, r6	@, i.11
 240 0098 FFF7FEFF 		bl	__aeabi_i2d	@
 241              	.LVL7:
 242 009c 221C     		mov	r2, r4	@, D.4932
 243 009e 2B1C     		mov	r3, r5	@, D.4932
 244 00a0 FFF7FEFF 		bl	__aeabi_dcmplt	@
 245              	.LVL8:
 246 00a4 6E46     		mov	r6, sp	@ tmp142,
 247 00a6 0736     		add	r6, r6, #7	@ tmp142,
 248 00a8 0028     		cmp	r0, #0	@ tmp130,
 249 00aa 0ED0     		beq	.L12	@,
 250              	.L19:
  57:../../cpu/arm/mkl25z/./clock.c **** 		/* NOTE: this is not really accurate, as not sure yet about the cycle counts. Assuming 0.75 cycle
  58:../../cpu/arm/mkl25z/./clock.c **** 		asm("nop \n\t");
 251              		.loc 1 58 0 discriminator 2
 252              	@ 58 "../../cpu/arm/mkl25z/./clock.c" 1
 253 00ac C046     		nop 
 254              		
 255              	@ 0 "" 2
  56:../../cpu/arm/mkl25z/./clock.c **** 	for(i=0; i<(t*1.25); i++) {
 256              		.loc 1 56 0 discriminator 2
 257              		.code	16
 258 00ae 3378     		ldrb	r3, [r6]	@ i, i
 259 00b0 0133     		add	r3, r3, #1	@ tmp134,
 260 00b2 DBB2     		uxtb	r3, r3	@ i.10, tmp134
 261 00b4 3370     		strb	r3, [r6]	@ i.10, i
 262 00b6 3078     		ldrb	r0, [r6]	@ i, i
 263 00b8 C0B2     		uxtb	r0, r0	@ i.11, i
 264 00ba FFF7FEFF 		bl	__aeabi_i2d	@
 265              	.LVL9:
 266 00be 221C     		mov	r2, r4	@, D.4932
 267 00c0 2B1C     		mov	r3, r5	@, D.4932
 268 00c2 FFF7FEFF 		bl	__aeabi_dcmplt	@
 269              	.LVL10:
 270 00c6 0028     		cmp	r0, #0	@ tmp141,
 271 00c8 F0D1     		bne	.L19	@,
 272              	.L12:
  59:../../cpu/arm/mkl25z/./clock.c **** 	} /* just something to wait, NOT the requested cycles */
  60:../../cpu/arm/mkl25z/./clock.c **** }
 273              		.loc 1 60 0
 274 00ca 02B0     		add	sp, sp, #8	@,,
 275              		@ sp needed	@
 276 00cc 70BD     		pop	{r4, r5, r6, pc}
 277              	.L21:
 278 00ce C046     		.align	3
 279              	.L20:
 280 00d0 00000000 		.word	0
 281 00d4 0000F43F 		.word	1072955392
ARM GAS  /tmp/ccQtIYYF.s 			page 7


 282              		.cfi_endproc
 283              	.LFE3:
 284              		.size	clock_delay, .-clock_delay
 285              		.align	2
 286              		.global	clock_seconds
 287              		.code	16
 288              		.thumb_func
 289              		.type	clock_seconds, %function
 290              	clock_seconds:
 291              	.LFB4:
  61:../../cpu/arm/mkl25z/./clock.c **** 
  62:../../cpu/arm/mkl25z/./clock.c **** unsigned long
  63:../../cpu/arm/mkl25z/./clock.c **** clock_seconds(void)
  64:../../cpu/arm/mkl25z/./clock.c **** {
 292              		.loc 1 64 0
 293              		.cfi_startproc
  65:../../cpu/arm/mkl25z/./clock.c ****   return current_seconds;
 294              		.loc 1 65 0
 295 00d8 014B     		ldr	r3, .L23	@ tmp112,
 296 00da 5868     		ldr	r0, [r3, #4]	@ D.4934, current_seconds
  66:../../cpu/arm/mkl25z/./clock.c **** }
 297              		.loc 1 66 0
 298              		@ sp needed	@
 299 00dc 7047     		bx	lr
 300              	.L24:
 301 00de C046     		.align	2
 302              	.L23:
 303 00e0 00000000 		.word	.LANCHOR0
 304              		.cfi_endproc
 305              	.LFE4:
 306              		.size	clock_seconds, .-clock_seconds
 307              		.data
 308              		.align	2
 309              		.set	.LANCHOR1,. + 0
 310              		.type	second_countdown, %object
 311              		.size	second_countdown, 4
 312              	second_countdown:
 313 0000 64000000 		.word	100
 314              		.bss
 315              		.align	2
 316              		.set	.LANCHOR0,. + 0
 317              		.type	current_clock, %object
 318              		.size	current_clock, 4
 319              	current_clock:
 320 0000 00000000 		.space	4
 321              		.type	current_seconds, %object
 322              		.size	current_seconds, 4
 323              	current_seconds:
 324 0004 00000000 		.space	4
 325              		.text
 326              	.Letext0:
 327              		.file 2 "/home/glacsweb/arm-gcc/ARM_GCC_Support/ewl/EWL_C/include/cstdint"
 328              		.file 3 "../../cpu/arm/mkl25z/MKL25Z4.h"
 329              		.file 4 "../../platform/frdm-kl25z-rf/contiki-conf.h"
 330              		.file 5 "../../core/./sys/etimer.h"
 331              		.file 6 "../../cpu/arm/mkl25z/./nvic.h"
 332 00e4 C046C046 		.section	.debug_info,"",%progbits
ARM GAS  /tmp/ccQtIYYF.s 			page 8


 333              	.Ldebug_info0:
 334 0000 36020000 		.4byte	0x236
 335 0004 0200     		.2byte	0x2
 336 0006 00000000 		.4byte	.Ldebug_abbrev0
 337 000a 04       		.byte	0x4
 338 000b 01       		.uleb128 0x1
 339 000c 2E000000 		.4byte	.LASF26
 340 0010 01       		.byte	0x1
 341 0011 0F000000 		.4byte	.LASF27
 342 0015 C6010000 		.4byte	.LASF28
 343 0019 00000000 		.4byte	.Ltext0
 344 001d E4000000 		.4byte	.Letext0
 345 0021 00000000 		.4byte	.Ldebug_line0
 346 0025 02       		.uleb128 0x2
 347 0026 04       		.byte	0x4
 348 0027 05       		.byte	0x5
 349 0028 696E7400 		.ascii	"int\000"
 350 002c 03       		.uleb128 0x3
 351 002d 01       		.byte	0x1
 352 002e 06       		.byte	0x6
 353 002f DC000000 		.4byte	.LASF0
 354 0033 03       		.uleb128 0x3
 355 0034 02       		.byte	0x2
 356 0035 05       		.byte	0x5
 357 0036 F9010000 		.4byte	.LASF1
 358 003a 03       		.uleb128 0x3
 359 003b 04       		.byte	0x4
 360 003c 05       		.byte	0x5
 361 003d 1A020000 		.4byte	.LASF2
 362 0041 03       		.uleb128 0x3
 363 0042 08       		.byte	0x8
 364 0043 05       		.byte	0x5
 365 0044 B8010000 		.4byte	.LASF3
 366 0048 04       		.uleb128 0x4
 367 0049 8B010000 		.4byte	.LASF6
 368 004d 02       		.byte	0x2
 369 004e 2A       		.byte	0x2a
 370 004f 53000000 		.4byte	0x53
 371 0053 03       		.uleb128 0x3
 372 0054 01       		.byte	0x1
 373 0055 08       		.byte	0x8
 374 0056 E8000000 		.4byte	.LASF4
 375 005a 03       		.uleb128 0x3
 376 005b 02       		.byte	0x2
 377 005c 07       		.byte	0x7
 378 005d 23010000 		.4byte	.LASF5
 379 0061 04       		.uleb128 0x4
 380 0062 11020000 		.4byte	.LASF7
 381 0066 02       		.byte	0x2
 382 0067 2C       		.byte	0x2c
 383 0068 6C000000 		.4byte	0x6c
 384 006c 03       		.uleb128 0x3
 385 006d 04       		.byte	0x4
 386 006e 07       		.byte	0x7
 387 006f 04010000 		.4byte	.LASF8
 388 0073 03       		.uleb128 0x3
 389 0074 08       		.byte	0x8
ARM GAS  /tmp/ccQtIYYF.s 			page 9


 390 0075 07       		.byte	0x7
 391 0076 74010000 		.4byte	.LASF9
 392 007a 03       		.uleb128 0x3
 393 007b 04       		.byte	0x4
 394 007c 07       		.byte	0x7
 395 007d AF010000 		.4byte	.LASF10
 396 0081 05       		.uleb128 0x5
 397 0082 3C010000 		.4byte	.LASF29
 398 0086 10       		.byte	0x10
 399 0087 03       		.byte	0x3
 400 0088 AC15     		.2byte	0x15ac
 401 008a CB000000 		.4byte	0xcb
 402 008e 06       		.uleb128 0x6
 403 008f 43535200 		.ascii	"CSR\000"
 404 0093 03       		.byte	0x3
 405 0094 AD15     		.2byte	0x15ad
 406 0096 61000000 		.4byte	0x61
 407 009a 02       		.byte	0x2
 408 009b 23       		.byte	0x23
 409 009c 00       		.uleb128 0
 410 009d 06       		.uleb128 0x6
 411 009e 52565200 		.ascii	"RVR\000"
 412 00a2 03       		.byte	0x3
 413 00a3 AE15     		.2byte	0x15ae
 414 00a5 61000000 		.4byte	0x61
 415 00a9 02       		.byte	0x2
 416 00aa 23       		.byte	0x23
 417 00ab 04       		.uleb128 0x4
 418 00ac 06       		.uleb128 0x6
 419 00ad 43565200 		.ascii	"CVR\000"
 420 00b1 03       		.byte	0x3
 421 00b2 AF15     		.2byte	0x15af
 422 00b4 61000000 		.4byte	0x61
 423 00b8 02       		.byte	0x2
 424 00b9 23       		.byte	0x23
 425 00ba 08       		.uleb128 0x8
 426 00bb 07       		.uleb128 0x7
 427 00bc 36010000 		.4byte	.LASF11
 428 00c0 03       		.byte	0x3
 429 00c1 B015     		.2byte	0x15b0
 430 00c3 61000000 		.4byte	0x61
 431 00c7 02       		.byte	0x2
 432 00c8 23       		.byte	0x23
 433 00c9 0C       		.uleb128 0xc
 434 00ca 00       		.byte	0
 435 00cb 08       		.uleb128 0x8
 436 00cc 3F020000 		.4byte	.LASF12
 437 00d0 03       		.byte	0x3
 438 00d1 B115     		.2byte	0x15b1
 439 00d3 D7000000 		.4byte	0xd7
 440 00d7 09       		.uleb128 0x9
 441 00d8 04       		.byte	0x4
 442 00d9 DD000000 		.4byte	0xdd
 443 00dd 0A       		.uleb128 0xa
 444 00de 81000000 		.4byte	0x81
 445 00e2 04       		.uleb128 0x4
 446 00e3 16010000 		.4byte	.LASF13
ARM GAS  /tmp/ccQtIYYF.s 			page 10


 447 00e7 04       		.byte	0x4
 448 00e8 15       		.byte	0x15
 449 00e9 ED000000 		.4byte	0xed
 450 00ed 03       		.uleb128 0x3
 451 00ee 04       		.byte	0x4
 452 00ef 07       		.byte	0x7
 453 00f0 5C010000 		.4byte	.LASF14
 454 00f4 03       		.uleb128 0x3
 455 00f5 01       		.byte	0x1
 456 00f6 08       		.byte	0x8
 457 00f7 F4010000 		.4byte	.LASF15
 458 00fb 0B       		.uleb128 0xb
 459 00fc 01       		.byte	0x1
 460 00fd B8000000 		.4byte	.LASF16
 461 0101 01       		.byte	0x1
 462 0102 13       		.byte	0x13
 463 0103 01       		.byte	0x1
 464 0104 00000000 		.4byte	.LFB0
 465 0108 50000000 		.4byte	.LFE0
 466 010c 00000000 		.4byte	.LLST0
 467 0110 01       		.byte	0x1
 468 0111 31010000 		.4byte	0x131
 469 0115 0C       		.uleb128 0xc
 470 0116 12000000 		.4byte	.LVL0
 471 011a 03020000 		.4byte	0x203
 472 011e 0C       		.uleb128 0xc
 473 011f 1A000000 		.4byte	.LVL1
 474 0123 11020000 		.4byte	0x211
 475 0127 0C       		.uleb128 0xc
 476 0128 26000000 		.4byte	.LVL2
 477 012c 1F020000 		.4byte	0x21f
 478 0130 00       		.byte	0
 479 0131 0B       		.uleb128 0xb
 480 0132 01       		.byte	0x1
 481 0133 66020000 		.4byte	.LASF17
 482 0137 01       		.byte	0x1
 483 0138 24       		.byte	0x24
 484 0139 01       		.byte	0x1
 485 013a 50000000 		.4byte	.LFB1
 486 013e 6C000000 		.4byte	.LFE1
 487 0142 20000000 		.4byte	.LLST1
 488 0146 01       		.byte	0x1
 489 0147 5B010000 		.4byte	0x15b
 490 014b 0D       		.uleb128 0xd
 491 014c 58000000 		.4byte	.LVL3
 492 0150 29020000 		.4byte	0x229
 493 0154 0E       		.uleb128 0xe
 494 0155 01       		.byte	0x1
 495 0156 50       		.byte	0x50
 496 0157 01       		.byte	0x1
 497 0158 38       		.byte	0x38
 498 0159 00       		.byte	0
 499 015a 00       		.byte	0
 500 015b 0F       		.uleb128 0xf
 501 015c 01       		.byte	0x1
 502 015d 69010000 		.4byte	.LASF19
 503 0161 01       		.byte	0x1
ARM GAS  /tmp/ccQtIYYF.s 			page 11


 504 0162 2F       		.byte	0x2f
 505 0163 01       		.byte	0x1
 506 0164 E2000000 		.4byte	0xe2
 507 0168 6C000000 		.4byte	.LFB2
 508 016c 78000000 		.4byte	.LFE2
 509 0170 02       		.byte	0x2
 510 0171 7D       		.byte	0x7d
 511 0172 00       		.sleb128 0
 512 0173 01       		.byte	0x1
 513 0174 10       		.uleb128 0x10
 514 0175 01       		.byte	0x1
 515 0176 23020000 		.4byte	.LASF18
 516 017a 01       		.byte	0x1
 517 017b 35       		.byte	0x35
 518 017c 01       		.byte	0x1
 519 017d 78000000 		.4byte	.LFB3
 520 0181 D8000000 		.4byte	.LFE3
 521 0185 40000000 		.4byte	.LLST2
 522 0189 01       		.byte	0x1
 523 018a A8010000 		.4byte	0x1a8
 524 018e 11       		.uleb128 0x11
 525 018f 7400     		.ascii	"t\000"
 526 0191 01       		.byte	0x1
 527 0192 35       		.byte	0x35
 528 0193 ED000000 		.4byte	0xed
 529 0197 6C000000 		.4byte	.LLST3
 530 019b 12       		.uleb128 0x12
 531 019c 6900     		.ascii	"i\000"
 532 019e 01       		.byte	0x1
 533 019f 37       		.byte	0x37
 534 01a0 A8010000 		.4byte	0x1a8
 535 01a4 02       		.byte	0x2
 536 01a5 91       		.byte	0x91
 537 01a6 6F       		.sleb128 -17
 538 01a7 00       		.byte	0
 539 01a8 0A       		.uleb128 0xa
 540 01a9 48000000 		.4byte	0x48
 541 01ad 0F       		.uleb128 0xf
 542 01ae 01       		.byte	0x1
 543 01af F6000000 		.4byte	.LASF20
 544 01b3 01       		.byte	0x1
 545 01b4 3F       		.byte	0x3f
 546 01b5 01       		.byte	0x1
 547 01b6 6C000000 		.4byte	0x6c
 548 01ba D8000000 		.4byte	.LFB4
 549 01be E4000000 		.4byte	.LFE4
 550 01c2 02       		.byte	0x2
 551 01c3 7D       		.byte	0x7d
 552 01c4 00       		.sleb128 0
 553 01c5 01       		.byte	0x1
 554 01c6 13       		.uleb128 0x13
 555 01c7 03020000 		.4byte	.LASF21
 556 01cb 01       		.byte	0x1
 557 01cc 0B       		.byte	0xb
 558 01cd D7010000 		.4byte	0x1d7
 559 01d1 05       		.byte	0x5
 560 01d2 03       		.byte	0x3
ARM GAS  /tmp/ccQtIYYF.s 			page 12


 561 01d3 00000000 		.4byte	current_clock
 562 01d7 0A       		.uleb128 0xa
 563 01d8 E2000000 		.4byte	0xe2
 564 01dc 13       		.uleb128 0x13
 565 01dd 2F020000 		.4byte	.LASF22
 566 01e1 01       		.byte	0x1
 567 01e2 0C       		.byte	0xc
 568 01e3 ED010000 		.4byte	0x1ed
 569 01e7 05       		.byte	0x5
 570 01e8 03       		.byte	0x3
 571 01e9 04000000 		.4byte	current_seconds
 572 01ed 0A       		.uleb128 0xa
 573 01ee 6C000000 		.4byte	0x6c
 574 01f2 13       		.uleb128 0x13
 575 01f3 4B010000 		.4byte	.LASF23
 576 01f7 01       		.byte	0x1
 577 01f8 0D       		.byte	0xd
 578 01f9 ED000000 		.4byte	0xed
 579 01fd 05       		.byte	0x5
 580 01fe 03       		.byte	0x3
 581 01ff 00000000 		.4byte	second_countdown
 582 0203 14       		.uleb128 0x14
 583 0204 01       		.byte	0x1
 584 0205 00000000 		.4byte	.LASF24
 585 0209 05       		.byte	0x5
 586 020a DE       		.byte	0xde
 587 020b 01       		.byte	0x1
 588 020c 25000000 		.4byte	0x25
 589 0210 01       		.byte	0x1
 590 0211 14       		.uleb128 0x14
 591 0212 01       		.byte	0x1
 592 0213 93010000 		.4byte	.LASF25
 593 0217 05       		.byte	0x5
 594 0218 E9       		.byte	0xe9
 595 0219 01       		.byte	0x1
 596 021a E2000000 		.4byte	0xe2
 597 021e 01       		.byte	0x1
 598 021f 15       		.uleb128 0x15
 599 0220 01       		.byte	0x1
 600 0221 C8000000 		.4byte	.LASF30
 601 0225 05       		.byte	0x5
 602 0226 D4       		.byte	0xd4
 603 0227 01       		.byte	0x1
 604 0228 01       		.byte	0x1
 605 0229 16       		.uleb128 0x16
 606 022a 01       		.byte	0x1
 607 022b 51020000 		.4byte	.LASF31
 608 022f 06       		.byte	0x6
 609 0230 5C       		.byte	0x5c
 610 0231 01       		.byte	0x1
 611 0232 01       		.byte	0x1
 612 0233 17       		.uleb128 0x17
 613 0234 48000000 		.4byte	0x48
 614 0238 00       		.byte	0
 615 0239 00       		.byte	0
 616              		.section	.debug_abbrev,"",%progbits
 617              	.Ldebug_abbrev0:
ARM GAS  /tmp/ccQtIYYF.s 			page 13


 618 0000 01       		.uleb128 0x1
 619 0001 11       		.uleb128 0x11
 620 0002 01       		.byte	0x1
 621 0003 25       		.uleb128 0x25
 622 0004 0E       		.uleb128 0xe
 623 0005 13       		.uleb128 0x13
 624 0006 0B       		.uleb128 0xb
 625 0007 03       		.uleb128 0x3
 626 0008 0E       		.uleb128 0xe
 627 0009 1B       		.uleb128 0x1b
 628 000a 0E       		.uleb128 0xe
 629 000b 11       		.uleb128 0x11
 630 000c 01       		.uleb128 0x1
 631 000d 12       		.uleb128 0x12
 632 000e 01       		.uleb128 0x1
 633 000f 10       		.uleb128 0x10
 634 0010 06       		.uleb128 0x6
 635 0011 00       		.byte	0
 636 0012 00       		.byte	0
 637 0013 02       		.uleb128 0x2
 638 0014 24       		.uleb128 0x24
 639 0015 00       		.byte	0
 640 0016 0B       		.uleb128 0xb
 641 0017 0B       		.uleb128 0xb
 642 0018 3E       		.uleb128 0x3e
 643 0019 0B       		.uleb128 0xb
 644 001a 03       		.uleb128 0x3
 645 001b 08       		.uleb128 0x8
 646 001c 00       		.byte	0
 647 001d 00       		.byte	0
 648 001e 03       		.uleb128 0x3
 649 001f 24       		.uleb128 0x24
 650 0020 00       		.byte	0
 651 0021 0B       		.uleb128 0xb
 652 0022 0B       		.uleb128 0xb
 653 0023 3E       		.uleb128 0x3e
 654 0024 0B       		.uleb128 0xb
 655 0025 03       		.uleb128 0x3
 656 0026 0E       		.uleb128 0xe
 657 0027 00       		.byte	0
 658 0028 00       		.byte	0
 659 0029 04       		.uleb128 0x4
 660 002a 16       		.uleb128 0x16
 661 002b 00       		.byte	0
 662 002c 03       		.uleb128 0x3
 663 002d 0E       		.uleb128 0xe
 664 002e 3A       		.uleb128 0x3a
 665 002f 0B       		.uleb128 0xb
 666 0030 3B       		.uleb128 0x3b
 667 0031 0B       		.uleb128 0xb
 668 0032 49       		.uleb128 0x49
 669 0033 13       		.uleb128 0x13
 670 0034 00       		.byte	0
 671 0035 00       		.byte	0
 672 0036 05       		.uleb128 0x5
 673 0037 13       		.uleb128 0x13
 674 0038 01       		.byte	0x1
ARM GAS  /tmp/ccQtIYYF.s 			page 14


 675 0039 03       		.uleb128 0x3
 676 003a 0E       		.uleb128 0xe
 677 003b 0B       		.uleb128 0xb
 678 003c 0B       		.uleb128 0xb
 679 003d 3A       		.uleb128 0x3a
 680 003e 0B       		.uleb128 0xb
 681 003f 3B       		.uleb128 0x3b
 682 0040 05       		.uleb128 0x5
 683 0041 01       		.uleb128 0x1
 684 0042 13       		.uleb128 0x13
 685 0043 00       		.byte	0
 686 0044 00       		.byte	0
 687 0045 06       		.uleb128 0x6
 688 0046 0D       		.uleb128 0xd
 689 0047 00       		.byte	0
 690 0048 03       		.uleb128 0x3
 691 0049 08       		.uleb128 0x8
 692 004a 3A       		.uleb128 0x3a
 693 004b 0B       		.uleb128 0xb
 694 004c 3B       		.uleb128 0x3b
 695 004d 05       		.uleb128 0x5
 696 004e 49       		.uleb128 0x49
 697 004f 13       		.uleb128 0x13
 698 0050 38       		.uleb128 0x38
 699 0051 0A       		.uleb128 0xa
 700 0052 00       		.byte	0
 701 0053 00       		.byte	0
 702 0054 07       		.uleb128 0x7
 703 0055 0D       		.uleb128 0xd
 704 0056 00       		.byte	0
 705 0057 03       		.uleb128 0x3
 706 0058 0E       		.uleb128 0xe
 707 0059 3A       		.uleb128 0x3a
 708 005a 0B       		.uleb128 0xb
 709 005b 3B       		.uleb128 0x3b
 710 005c 05       		.uleb128 0x5
 711 005d 49       		.uleb128 0x49
 712 005e 13       		.uleb128 0x13
 713 005f 38       		.uleb128 0x38
 714 0060 0A       		.uleb128 0xa
 715 0061 00       		.byte	0
 716 0062 00       		.byte	0
 717 0063 08       		.uleb128 0x8
 718 0064 16       		.uleb128 0x16
 719 0065 00       		.byte	0
 720 0066 03       		.uleb128 0x3
 721 0067 0E       		.uleb128 0xe
 722 0068 3A       		.uleb128 0x3a
 723 0069 0B       		.uleb128 0xb
 724 006a 3B       		.uleb128 0x3b
 725 006b 05       		.uleb128 0x5
 726 006c 49       		.uleb128 0x49
 727 006d 13       		.uleb128 0x13
 728 006e 00       		.byte	0
 729 006f 00       		.byte	0
 730 0070 09       		.uleb128 0x9
 731 0071 0F       		.uleb128 0xf
ARM GAS  /tmp/ccQtIYYF.s 			page 15


 732 0072 00       		.byte	0
 733 0073 0B       		.uleb128 0xb
 734 0074 0B       		.uleb128 0xb
 735 0075 49       		.uleb128 0x49
 736 0076 13       		.uleb128 0x13
 737 0077 00       		.byte	0
 738 0078 00       		.byte	0
 739 0079 0A       		.uleb128 0xa
 740 007a 35       		.uleb128 0x35
 741 007b 00       		.byte	0
 742 007c 49       		.uleb128 0x49
 743 007d 13       		.uleb128 0x13
 744 007e 00       		.byte	0
 745 007f 00       		.byte	0
 746 0080 0B       		.uleb128 0xb
 747 0081 2E       		.uleb128 0x2e
 748 0082 01       		.byte	0x1
 749 0083 3F       		.uleb128 0x3f
 750 0084 0C       		.uleb128 0xc
 751 0085 03       		.uleb128 0x3
 752 0086 0E       		.uleb128 0xe
 753 0087 3A       		.uleb128 0x3a
 754 0088 0B       		.uleb128 0xb
 755 0089 3B       		.uleb128 0x3b
 756 008a 0B       		.uleb128 0xb
 757 008b 27       		.uleb128 0x27
 758 008c 0C       		.uleb128 0xc
 759 008d 11       		.uleb128 0x11
 760 008e 01       		.uleb128 0x1
 761 008f 12       		.uleb128 0x12
 762 0090 01       		.uleb128 0x1
 763 0091 40       		.uleb128 0x40
 764 0092 06       		.uleb128 0x6
 765 0093 9742     		.uleb128 0x2117
 766 0095 0C       		.uleb128 0xc
 767 0096 01       		.uleb128 0x1
 768 0097 13       		.uleb128 0x13
 769 0098 00       		.byte	0
 770 0099 00       		.byte	0
 771 009a 0C       		.uleb128 0xc
 772 009b 898201   		.uleb128 0x4109
 773 009e 00       		.byte	0
 774 009f 11       		.uleb128 0x11
 775 00a0 01       		.uleb128 0x1
 776 00a1 31       		.uleb128 0x31
 777 00a2 13       		.uleb128 0x13
 778 00a3 00       		.byte	0
 779 00a4 00       		.byte	0
 780 00a5 0D       		.uleb128 0xd
 781 00a6 898201   		.uleb128 0x4109
 782 00a9 01       		.byte	0x1
 783 00aa 11       		.uleb128 0x11
 784 00ab 01       		.uleb128 0x1
 785 00ac 31       		.uleb128 0x31
 786 00ad 13       		.uleb128 0x13
 787 00ae 00       		.byte	0
 788 00af 00       		.byte	0
ARM GAS  /tmp/ccQtIYYF.s 			page 16


 789 00b0 0E       		.uleb128 0xe
 790 00b1 8A8201   		.uleb128 0x410a
 791 00b4 00       		.byte	0
 792 00b5 02       		.uleb128 0x2
 793 00b6 0A       		.uleb128 0xa
 794 00b7 9142     		.uleb128 0x2111
 795 00b9 0A       		.uleb128 0xa
 796 00ba 00       		.byte	0
 797 00bb 00       		.byte	0
 798 00bc 0F       		.uleb128 0xf
 799 00bd 2E       		.uleb128 0x2e
 800 00be 00       		.byte	0
 801 00bf 3F       		.uleb128 0x3f
 802 00c0 0C       		.uleb128 0xc
 803 00c1 03       		.uleb128 0x3
 804 00c2 0E       		.uleb128 0xe
 805 00c3 3A       		.uleb128 0x3a
 806 00c4 0B       		.uleb128 0xb
 807 00c5 3B       		.uleb128 0x3b
 808 00c6 0B       		.uleb128 0xb
 809 00c7 27       		.uleb128 0x27
 810 00c8 0C       		.uleb128 0xc
 811 00c9 49       		.uleb128 0x49
 812 00ca 13       		.uleb128 0x13
 813 00cb 11       		.uleb128 0x11
 814 00cc 01       		.uleb128 0x1
 815 00cd 12       		.uleb128 0x12
 816 00ce 01       		.uleb128 0x1
 817 00cf 40       		.uleb128 0x40
 818 00d0 0A       		.uleb128 0xa
 819 00d1 9742     		.uleb128 0x2117
 820 00d3 0C       		.uleb128 0xc
 821 00d4 00       		.byte	0
 822 00d5 00       		.byte	0
 823 00d6 10       		.uleb128 0x10
 824 00d7 2E       		.uleb128 0x2e
 825 00d8 01       		.byte	0x1
 826 00d9 3F       		.uleb128 0x3f
 827 00da 0C       		.uleb128 0xc
 828 00db 03       		.uleb128 0x3
 829 00dc 0E       		.uleb128 0xe
 830 00dd 3A       		.uleb128 0x3a
 831 00de 0B       		.uleb128 0xb
 832 00df 3B       		.uleb128 0x3b
 833 00e0 0B       		.uleb128 0xb
 834 00e1 27       		.uleb128 0x27
 835 00e2 0C       		.uleb128 0xc
 836 00e3 11       		.uleb128 0x11
 837 00e4 01       		.uleb128 0x1
 838 00e5 12       		.uleb128 0x12
 839 00e6 01       		.uleb128 0x1
 840 00e7 40       		.uleb128 0x40
 841 00e8 06       		.uleb128 0x6
 842 00e9 9642     		.uleb128 0x2116
 843 00eb 0C       		.uleb128 0xc
 844 00ec 01       		.uleb128 0x1
 845 00ed 13       		.uleb128 0x13
ARM GAS  /tmp/ccQtIYYF.s 			page 17


 846 00ee 00       		.byte	0
 847 00ef 00       		.byte	0
 848 00f0 11       		.uleb128 0x11
 849 00f1 05       		.uleb128 0x5
 850 00f2 00       		.byte	0
 851 00f3 03       		.uleb128 0x3
 852 00f4 08       		.uleb128 0x8
 853 00f5 3A       		.uleb128 0x3a
 854 00f6 0B       		.uleb128 0xb
 855 00f7 3B       		.uleb128 0x3b
 856 00f8 0B       		.uleb128 0xb
 857 00f9 49       		.uleb128 0x49
 858 00fa 13       		.uleb128 0x13
 859 00fb 02       		.uleb128 0x2
 860 00fc 06       		.uleb128 0x6
 861 00fd 00       		.byte	0
 862 00fe 00       		.byte	0
 863 00ff 12       		.uleb128 0x12
 864 0100 34       		.uleb128 0x34
 865 0101 00       		.byte	0
 866 0102 03       		.uleb128 0x3
 867 0103 08       		.uleb128 0x8
 868 0104 3A       		.uleb128 0x3a
 869 0105 0B       		.uleb128 0xb
 870 0106 3B       		.uleb128 0x3b
 871 0107 0B       		.uleb128 0xb
 872 0108 49       		.uleb128 0x49
 873 0109 13       		.uleb128 0x13
 874 010a 02       		.uleb128 0x2
 875 010b 0A       		.uleb128 0xa
 876 010c 00       		.byte	0
 877 010d 00       		.byte	0
 878 010e 13       		.uleb128 0x13
 879 010f 34       		.uleb128 0x34
 880 0110 00       		.byte	0
 881 0111 03       		.uleb128 0x3
 882 0112 0E       		.uleb128 0xe
 883 0113 3A       		.uleb128 0x3a
 884 0114 0B       		.uleb128 0xb
 885 0115 3B       		.uleb128 0x3b
 886 0116 0B       		.uleb128 0xb
 887 0117 49       		.uleb128 0x49
 888 0118 13       		.uleb128 0x13
 889 0119 02       		.uleb128 0x2
 890 011a 0A       		.uleb128 0xa
 891 011b 00       		.byte	0
 892 011c 00       		.byte	0
 893 011d 14       		.uleb128 0x14
 894 011e 2E       		.uleb128 0x2e
 895 011f 00       		.byte	0
 896 0120 3F       		.uleb128 0x3f
 897 0121 0C       		.uleb128 0xc
 898 0122 03       		.uleb128 0x3
 899 0123 0E       		.uleb128 0xe
 900 0124 3A       		.uleb128 0x3a
 901 0125 0B       		.uleb128 0xb
 902 0126 3B       		.uleb128 0x3b
ARM GAS  /tmp/ccQtIYYF.s 			page 18


 903 0127 0B       		.uleb128 0xb
 904 0128 27       		.uleb128 0x27
 905 0129 0C       		.uleb128 0xc
 906 012a 49       		.uleb128 0x49
 907 012b 13       		.uleb128 0x13
 908 012c 3C       		.uleb128 0x3c
 909 012d 0C       		.uleb128 0xc
 910 012e 00       		.byte	0
 911 012f 00       		.byte	0
 912 0130 15       		.uleb128 0x15
 913 0131 2E       		.uleb128 0x2e
 914 0132 00       		.byte	0
 915 0133 3F       		.uleb128 0x3f
 916 0134 0C       		.uleb128 0xc
 917 0135 03       		.uleb128 0x3
 918 0136 0E       		.uleb128 0xe
 919 0137 3A       		.uleb128 0x3a
 920 0138 0B       		.uleb128 0xb
 921 0139 3B       		.uleb128 0x3b
 922 013a 0B       		.uleb128 0xb
 923 013b 27       		.uleb128 0x27
 924 013c 0C       		.uleb128 0xc
 925 013d 3C       		.uleb128 0x3c
 926 013e 0C       		.uleb128 0xc
 927 013f 00       		.byte	0
 928 0140 00       		.byte	0
 929 0141 16       		.uleb128 0x16
 930 0142 2E       		.uleb128 0x2e
 931 0143 01       		.byte	0x1
 932 0144 3F       		.uleb128 0x3f
 933 0145 0C       		.uleb128 0xc
 934 0146 03       		.uleb128 0x3
 935 0147 0E       		.uleb128 0xe
 936 0148 3A       		.uleb128 0x3a
 937 0149 0B       		.uleb128 0xb
 938 014a 3B       		.uleb128 0x3b
 939 014b 0B       		.uleb128 0xb
 940 014c 27       		.uleb128 0x27
 941 014d 0C       		.uleb128 0xc
 942 014e 3C       		.uleb128 0x3c
 943 014f 0C       		.uleb128 0xc
 944 0150 00       		.byte	0
 945 0151 00       		.byte	0
 946 0152 17       		.uleb128 0x17
 947 0153 05       		.uleb128 0x5
 948 0154 00       		.byte	0
 949 0155 49       		.uleb128 0x49
 950 0156 13       		.uleb128 0x13
 951 0157 00       		.byte	0
 952 0158 00       		.byte	0
 953 0159 00       		.byte	0
 954              		.section	.debug_loc,"",%progbits
 955              	.Ldebug_loc0:
 956              	.LLST0:
 957 0000 00000000 		.4byte	.LFB0-.Ltext0
 958 0004 02000000 		.4byte	.LCFI0-.Ltext0
 959 0008 0200     		.2byte	0x2
ARM GAS  /tmp/ccQtIYYF.s 			page 19


 960 000a 7D       		.byte	0x7d
 961 000b 00       		.sleb128 0
 962 000c 02000000 		.4byte	.LCFI0-.Ltext0
 963 0010 50000000 		.4byte	.LFE0-.Ltext0
 964 0014 0200     		.2byte	0x2
 965 0016 7D       		.byte	0x7d
 966 0017 08       		.sleb128 8
 967 0018 00000000 		.4byte	0
 968 001c 00000000 		.4byte	0
 969              	.LLST1:
 970 0020 50000000 		.4byte	.LFB1-.Ltext0
 971 0024 52000000 		.4byte	.LCFI1-.Ltext0
 972 0028 0200     		.2byte	0x2
 973 002a 7D       		.byte	0x7d
 974 002b 00       		.sleb128 0
 975 002c 52000000 		.4byte	.LCFI1-.Ltext0
 976 0030 6C000000 		.4byte	.LFE1-.Ltext0
 977 0034 0200     		.2byte	0x2
 978 0036 7D       		.byte	0x7d
 979 0037 08       		.sleb128 8
 980 0038 00000000 		.4byte	0
 981 003c 00000000 		.4byte	0
 982              	.LLST2:
 983 0040 78000000 		.4byte	.LFB3-.Ltext0
 984 0044 7A000000 		.4byte	.LCFI2-.Ltext0
 985 0048 0200     		.2byte	0x2
 986 004a 7D       		.byte	0x7d
 987 004b 00       		.sleb128 0
 988 004c 7A000000 		.4byte	.LCFI2-.Ltext0
 989 0050 7C000000 		.4byte	.LCFI3-.Ltext0
 990 0054 0200     		.2byte	0x2
 991 0056 7D       		.byte	0x7d
 992 0057 10       		.sleb128 16
 993 0058 7C000000 		.4byte	.LCFI3-.Ltext0
 994 005c D8000000 		.4byte	.LFE3-.Ltext0
 995 0060 0200     		.2byte	0x2
 996 0062 7D       		.byte	0x7d
 997 0063 18       		.sleb128 24
 998 0064 00000000 		.4byte	0
 999 0068 00000000 		.4byte	0
 1000              	.LLST3:
 1001 006c 78000000 		.4byte	.LVL4-.Ltext0
 1002 0070 89000000 		.4byte	.LVL5-1-.Ltext0
 1003 0074 0100     		.2byte	0x1
 1004 0076 50       		.byte	0x50
 1005 0077 89000000 		.4byte	.LVL5-1-.Ltext0
 1006 007b D8000000 		.4byte	.LFE3-.Ltext0
 1007 007f 0400     		.2byte	0x4
 1008 0081 F3       		.byte	0xf3
 1009 0082 01       		.uleb128 0x1
 1010 0083 50       		.byte	0x50
 1011 0084 9F       		.byte	0x9f
 1012 0085 00000000 		.4byte	0
 1013 0089 00000000 		.4byte	0
 1014              		.section	.debug_aranges,"",%progbits
 1015 0000 1C000000 		.4byte	0x1c
 1016 0004 0200     		.2byte	0x2
ARM GAS  /tmp/ccQtIYYF.s 			page 20


 1017 0006 00000000 		.4byte	.Ldebug_info0
 1018 000a 04       		.byte	0x4
 1019 000b 00       		.byte	0
 1020 000c 0000     		.2byte	0
 1021 000e 0000     		.2byte	0
 1022 0010 00000000 		.4byte	.Ltext0
 1023 0014 E4000000 		.4byte	.Letext0-.Ltext0
 1024 0018 00000000 		.4byte	0
 1025 001c 00000000 		.4byte	0
 1026              		.section	.debug_line,"",%progbits
 1027              	.Ldebug_line0:
 1028 0000 2E010000 		.section	.debug_str,"MS",%progbits,1
 1028      0200F100 
 1028      00000201 
 1028      FB0E0D00 
 1028      01010101 
 1029              	.LASF24:
 1030 0000 6574696D 		.ascii	"etimer_pending\000"
 1030      65725F70 
 1030      656E6469 
 1030      6E6700
 1031              	.LASF27:
 1032 000f 2E2E2F2E 		.ascii	"../../cpu/arm/mkl25z/./clock.c\000"
 1032      2E2F6370 
 1032      752F6172 
 1032      6D2F6D6B 
 1032      6C32357A 
 1033              	.LASF26:
 1034 002e 474E5520 		.ascii	"GNU C 4.8.3 20131129 (release) [ARM/embedded-4_8-br"
 1034      4320342E 
 1034      382E3320 
 1034      32303133 
 1034      31313239 
 1035 0061 616E6368 		.ascii	"anch revision 205641] -mcpu=cortex-m0plus -mthumb -"
 1035      20726576 
 1035      6973696F 
 1035      6E203230 
 1035      35363431 
 1036 0094 67647761 		.ascii	"gdwarf-2 -g -O -fomit-frame-pointer\000"
 1036      72662D32 
 1036      202D6720 
 1036      2D4F202D 
 1036      666F6D69 
 1037              	.LASF16:
 1038 00b8 53797354 		.ascii	"SysTick_Handler\000"
 1038      69636B5F 
 1038      48616E64 
 1038      6C657200 
 1039              	.LASF30:
 1040 00c8 6574696D 		.ascii	"etimer_request_poll\000"
 1040      65725F72 
 1040      65717565 
 1040      73745F70 
 1040      6F6C6C00 
 1041              	.LASF0:
 1042 00dc 7369676E 		.ascii	"signed char\000"
 1042      65642063 
ARM GAS  /tmp/ccQtIYYF.s 			page 21


 1042      68617200 
 1043              	.LASF4:
 1044 00e8 756E7369 		.ascii	"unsigned char\000"
 1044      676E6564 
 1044      20636861 
 1044      7200
 1045              	.LASF20:
 1046 00f6 636C6F63 		.ascii	"clock_seconds\000"
 1046      6B5F7365 
 1046      636F6E64 
 1046      7300
 1047              	.LASF8:
 1048 0104 6C6F6E67 		.ascii	"long unsigned int\000"
 1048      20756E73 
 1048      69676E65 
 1048      6420696E 
 1048      7400
 1049              	.LASF13:
 1050 0116 636C6F63 		.ascii	"clock_time_t\000"
 1050      6B5F7469 
 1050      6D655F74 
 1050      00
 1051              	.LASF5:
 1052 0123 73686F72 		.ascii	"short unsigned int\000"
 1052      7420756E 
 1052      7369676E 
 1052      65642069 
 1052      6E7400
 1053              	.LASF11:
 1054 0136 43414C49 		.ascii	"CALIB\000"
 1054      4200
 1055              	.LASF29:
 1056 013c 53797354 		.ascii	"SysTick_MemMap\000"
 1056      69636B5F 
 1056      4D656D4D 
 1056      617000
 1057              	.LASF23:
 1058 014b 7365636F 		.ascii	"second_countdown\000"
 1058      6E645F63 
 1058      6F756E74 
 1058      646F776E 
 1058      00
 1059              	.LASF14:
 1060 015c 756E7369 		.ascii	"unsigned int\000"
 1060      676E6564 
 1060      20696E74 
 1060      00
 1061              	.LASF19:
 1062 0169 636C6F63 		.ascii	"clock_time\000"
 1062      6B5F7469 
 1062      6D6500
 1063              	.LASF9:
 1064 0174 6C6F6E67 		.ascii	"long long unsigned int\000"
 1064      206C6F6E 
 1064      6720756E 
 1064      7369676E 
 1064      65642069 
ARM GAS  /tmp/ccQtIYYF.s 			page 22


 1065              	.LASF6:
 1066 018b 75696E74 		.ascii	"uint8_t\000"
 1066      385F7400 
 1067              	.LASF25:
 1068 0193 6574696D 		.ascii	"etimer_next_expiration_time\000"
 1068      65725F6E 
 1068      6578745F 
 1068      65787069 
 1068      72617469 
 1069              	.LASF10:
 1070 01af 73697A65 		.ascii	"sizetype\000"
 1070      74797065 
 1070      00
 1071              	.LASF3:
 1072 01b8 6C6F6E67 		.ascii	"long long int\000"
 1072      206C6F6E 
 1072      6720696E 
 1072      7400
 1073              	.LASF28:
 1074 01c6 2F686F6D 		.ascii	"/home/glacsweb/glacsweb/contiki/examples/rime\000"
 1074      652F676C 
 1074      61637377 
 1074      65622F67 
 1074      6C616373 
 1075              	.LASF15:
 1076 01f4 63686172 		.ascii	"char\000"
 1076      00
 1077              	.LASF1:
 1078 01f9 73686F72 		.ascii	"short int\000"
 1078      7420696E 
 1078      7400
 1079              	.LASF21:
 1080 0203 63757272 		.ascii	"current_clock\000"
 1080      656E745F 
 1080      636C6F63 
 1080      6B00
 1081              	.LASF7:
 1082 0211 75696E74 		.ascii	"uint32_t\000"
 1082      33325F74 
 1082      00
 1083              	.LASF2:
 1084 021a 6C6F6E67 		.ascii	"long int\000"
 1084      20696E74 
 1084      00
 1085              	.LASF18:
 1086 0223 636C6F63 		.ascii	"clock_delay\000"
 1086      6B5F6465 
 1086      6C617900 
 1087              	.LASF22:
 1088 022f 63757272 		.ascii	"current_seconds\000"
 1088      656E745F 
 1088      7365636F 
 1088      6E647300 
 1089              	.LASF12:
 1090 023f 53797354 		.ascii	"SysTick_MemMapPtr\000"
 1090      69636B5F 
 1090      4D656D4D 
ARM GAS  /tmp/ccQtIYYF.s 			page 23


 1090      61705074 
 1090      7200
 1091              	.LASF31:
 1092 0251 4E564943 		.ascii	"NVIC_SET_SYSTICK_PRI\000"
 1092      5F534554 
 1092      5F535953 
 1092      5449434B 
 1092      5F505249 
 1093              	.LASF17:
 1094 0266 636C6F63 		.ascii	"clock_init\000"
 1094      6B5F696E 
 1094      697400
 1095              		.ident	"GCC: (GNU Tools for ARM Embedded Processors) 4.8.3 20131129 (release) [ARM/embedded-4_8-br
ARM GAS  /tmp/ccQtIYYF.s 			page 24


DEFINED SYMBOLS
                            *ABS*:00000000 clock.c
     /tmp/ccQtIYYF.s:75     .text:00000000 $t
     /tmp/ccQtIYYF.s:80     .text:00000000 SysTick_Handler
     /tmp/ccQtIYYF.s:137    .text:00000044 $d
     /tmp/ccQtIYYF.s:143    .text:00000050 $t
     /tmp/ccQtIYYF.s:148    .text:00000050 clock_init
     /tmp/ccQtIYYF.s:174    .text:00000064 $d
     /tmp/ccQtIYYF.s:179    .text:0000006c $t
     /tmp/ccQtIYYF.s:184    .text:0000006c clock_time
     /tmp/ccQtIYYF.s:197    .text:00000074 $d
     /tmp/ccQtIYYF.s:205    .text:00000078 $t
     /tmp/ccQtIYYF.s:210    .text:00000078 clock_delay
     /tmp/ccQtIYYF.s:280    .text:000000d0 $d
     /tmp/ccQtIYYF.s:285    .text:000000d8 $t
     /tmp/ccQtIYYF.s:290    .text:000000d8 clock_seconds
     /tmp/ccQtIYYF.s:303    .text:000000e0 $d
     /tmp/ccQtIYYF.s:308    .data:00000000 $d
     /tmp/ccQtIYYF.s:312    .data:00000000 second_countdown
     /tmp/ccQtIYYF.s:315    .bss:00000000 $d
     /tmp/ccQtIYYF.s:319    .bss:00000000 current_clock
     /tmp/ccQtIYYF.s:323    .bss:00000004 current_seconds
                     .debug_frame:00000010 $d
     /tmp/ccQtIYYF.s:332    .text:000000e4 $t

UNDEFINED SYMBOLS
etimer_pending
etimer_next_expiration_time
etimer_request_poll
NVIC_SET_SYSTICK_PRI
__aeabi_ui2d
__aeabi_dmul
__aeabi_i2d
__aeabi_dcmplt
