ARM GAS  /tmp/ccQtIYYF.s 			page 1


   1              		.cpu cortex-m0plus
   2              		.fpu softvfp
   3              		.eabi_attribute 20, 1	@ Tag_ABI_FP_denormal
   4              		.eabi_attribute 21, 1	@ Tag_ABI_FP_exceptions
   5              		.eabi_attribute 23, 3	@ Tag_ABI_FP_number_model
   6              		.eabi_attribute 24, 1	@ Tag_ABI_align8_needed
   7              		.eabi_attribute 25, 1	@ Tag_ABI_align8_preserved
   8              		.eabi_attribute 26, 1	@ Tag_ABI_enum_size
   9              		.eabi_attribute 30, 1	@ Tag_ABI_optimization_goals
  10              		.eabi_attribute 34, 0	@ Tag_CPU_unaligned_access
  11              		.eabi_attribute 18, 4	@ Tag_ABI_PCS_wchar_t
  12              		.file	"clock.c"
  13              	@ GNU C (GNU Tools for ARM Embedded Processors) version 4.8.3 20131129 (release) [ARM/embedded-4_8-
  14              	@	compiled by GNU C version 4.6.3, GMP version 4.3.2, MPFR version 2.4.2, MPC version 0.8.1
  15              	@ GGC heuristics: --param ggc-min-expand=100 --param ggc-min-heapsize=131072
  16              	@ options passed:  -I . -I ../../cpu/arm/mkl25z
  17              	@ -I ../../cpu/arm/mkl25z/loader -I ../../cpu/arm/mkl25z/dbg-io
  18              	@ -I ../../dev -I ../../platform/frdm-kl25z-rf
  19              	@ -I /home/glacsweb/arm-gcc/ARM_GCC_Support/ewl/EWL_C/include
  20              	@ -I /home/glacsweb/arm-gcc/ARM_GCC_Support/ewl/EWL_Runtime/include
  21              	@ -I /home/glacsweb/arm-gcc/lib/gcc/arm-none-eabi/4.8.3/include
  22              	@ -I /home/glacsweb/arm-gcc/lib/gcc/arm-none-eabi/4.8.3/include-fixed
  23              	@ -I /home/glacsweb/arm-gcc/arm-none-eabi/include -I ../../dev/cc1120 -I .
  24              	@ -I ../../platform/frdm-kl25z-rf/. -I ../../platform/frdm-kl25z-rf/dev
  25              	@ -I ../../platform/frdm-kl25z-rf/apps -I ../../platform/frdm-kl25z-rf/net
  26              	@ -I ../../platform/frdm-kl25z-rf/../../dev/cc1120
  27              	@ -I ../../platform/frdm-kl25z-rf/../../core/net -I ../../cpu/arm/mkl25z/.
  28              	@ -I ../../cpu/arm/mkl25z/../common/dbg-io -I ../../cpu/arm/mkl25z/loader
  29              	@ -I ../../core/dev -I ../../core/lib -I ../../core/net
  30              	@ -I ../../core/net/mac -I ../../core/net/rime -I ../../core/net/rpl
  31              	@ -I ../../core/sys -I ../../core/cfs -I ../../core/ctk
  32              	@ -I ../../core/lib/ctk -I ../../core/loader -I ../../core/.
  33              	@ -I ../../platform/frdm-kl25z-rf/ -imultilib armv6-m
  34              	@ -iprefix /home/glacsweb/arm-gcc/bin/../lib/gcc/arm-none-eabi/4.8.3/
  35              	@ -isysroot /home/glacsweb/arm-gcc/bin/../arm-none-eabi -D__USES_INITFINI__
  36              	@ -D CONTIKI=1 -D CONTIKI_TARGET_FRDM_KL25Z_RF=1 -D WITH_UIP=1
  37              	@ -D MCK=48000000 -D AUTOSTART_ENABLE -D CC11xx_CC1120=1 -D RUN_AS_SYSTEM
  38              	@ -D ROM_RUN -D __SDCC
  39              	@ -D CONTIKI_VERSION_STRING="Contiki-KL25Z-Port-18-g5a8e189"
  40              	@ ../../cpu/arm/mkl25z/./clock.c -mcpu=cortex-m0plus -mthumb
  41              	@ -auxbase-strip obj_frdm-kl25z-rf/clock.o -gdwarf-2 -g -O -Wall
  42              	@ -Wstrict-prototypes -fomit-frame-pointer -fverbose-asm
  43              	@ options enabled:  -faggressive-loop-optimizations -fauto-inc-dec
  44              	@ -fbranch-count-reg -fcombine-stack-adjustments -fcommon -fcompare-elim
  45              	@ -fcprop-registers -fdefer-pop -fdelete-null-pointer-checks
  46              	@ -fdwarf2-cfi-asm -fearly-inlining -feliminate-unused-debug-types
  47              	@ -fforward-propagate -ffunction-cse -fgcse-lm -fgnu-runtime
  48              	@ -fguess-branch-probability -fident -fif-conversion -fif-conversion2
  49              	@ -finline -finline-atomics -finline-functions-called-once -fipa-profile
  50              	@ -fipa-pure-const -fipa-reference -fira-hoist-pressure
  51              	@ -fira-share-save-slots -fira-share-spill-slots -fivopts
  52              	@ -fkeep-static-consts -fleading-underscore -fmath-errno -fmerge-constants
  53              	@ -fmerge-debug-strings -fmove-loop-invariants -fomit-frame-pointer
  54              	@ -fpeephole -fprefetch-loop-arrays -freg-struct-return
  55              	@ -fsched-critical-path-heuristic -fsched-dep-count-heuristic
  56              	@ -fsched-group-heuristic -fsched-interblock -fsched-last-insn-heuristic
  57              	@ -fsched-pressure -fsched-rank-heuristic -fsched-spec
ARM GAS  /tmp/ccQtIYYF.s 			page 2


  58              	@ -fsched-spec-insn-heuristic -fsched-stalled-insns-dep -fsection-anchors
  59              	@ -fshow-column -fshrink-wrap -fsigned-zeros -fsplit-ivs-in-unroller
  60              	@ -fsplit-wide-types -fstrict-volatile-bitfields -fsync-libcalls
  61              	@ -ftoplevel-reorder -ftrapping-math -ftree-bit-ccp -ftree-ccp -ftree-ch
  62              	@ -ftree-coalesce-vars -ftree-copy-prop -ftree-copyrename -ftree-cselim
  63              	@ -ftree-dce -ftree-dominator-opts -ftree-dse -ftree-forwprop -ftree-fre
  64              	@ -ftree-loop-if-convert -ftree-loop-im -ftree-loop-ivcanon
  65              	@ -ftree-loop-optimize -ftree-parallelize-loops= -ftree-phiprop -ftree-pta
  66              	@ -ftree-reassoc -ftree-scev-cprop -ftree-sink -ftree-slp-vectorize
  67              	@ -ftree-slsr -ftree-sra -ftree-ter -ftree-vect-loop-version
  68              	@ -funit-at-a-time -fvar-tracking -fvar-tracking-assignments -fverbose-asm
  69              	@ -fzero-initialized-in-bss -mlittle-endian -mpic-data-is-text-relative
  70              	@ -msched-prolog -mthumb -mvectorize-with-neon-quad
  71              	
  72              		.text
  73              	.Ltext0:
  74              		.cfi_sections	.debug_frame
  75              		.align	2
  76              		.global	SysTick_Handler
  77              		.code	16
  78              		.thumb_func
  79              		.type	SysTick_Handler, %function
  80              	SysTick_Handler:
  81              	.LFB0:
  82              		.file 1 "../../cpu/arm/mkl25z/./clock.c"
   1:../../cpu/arm/mkl25z/./clock.c **** #include <contiki.h>
   2:../../cpu/arm/mkl25z/./clock.c **** #include <sys/clock.h>
   3:../../cpu/arm/mkl25z/./clock.c **** #include <sys/cc.h>
   4:../../cpu/arm/mkl25z/./clock.c **** #include <sys/etimer.h>
   5:../../cpu/arm/mkl25z/./clock.c **** #include <MKL25Z4.h>
   6:../../cpu/arm/mkl25z/./clock.c **** 
   7:../../cpu/arm/mkl25z/./clock.c **** #include "cpu.h"
   8:../../cpu/arm/mkl25z/./clock.c **** #include "nvic.h"
   9:../../cpu/arm/mkl25z/./clock.c **** #include "debug-uart.h"
  10:../../cpu/arm/mkl25z/./clock.c **** 
  11:../../cpu/arm/mkl25z/./clock.c **** static volatile clock_time_t current_clock = 0;
  12:../../cpu/arm/mkl25z/./clock.c **** static volatile unsigned long current_seconds = 0;
  13:../../cpu/arm/mkl25z/./clock.c **** static unsigned int second_countdown = CLOCK_SECOND;
  14:../../cpu/arm/mkl25z/./clock.c **** 
  15:../../cpu/arm/mkl25z/./clock.c **** //void
  16:../../cpu/arm/mkl25z/./clock.c **** //SysTick_handler(void) __attribute__ ((interrupt));
  17:../../cpu/arm/mkl25z/./clock.c **** 
  18:../../cpu/arm/mkl25z/./clock.c **** void
  19:../../cpu/arm/mkl25z/./clock.c **** SysTick_Handler(void)
  20:../../cpu/arm/mkl25z/./clock.c **** {
  83              		.loc 1 20 0
  84              		.cfi_startproc
  85 0000 08B5     		push	{r3, lr}	@
  86              	.LCFI0:
  87              		.cfi_def_cfa_offset 8
  88              		.cfi_offset 3, -8
  89              		.cfi_offset 14, -4
  21:../../cpu/arm/mkl25z/./clock.c **** 	(void)SYST_CSR;						/* Dummy read CSR register to clear Count flag. SysTick->CTRL in CMSIS */
  90              		.loc 1 21 0
  91 0002 104B     		ldr	r3, .L4	@ tmp120,
  92 0004 1B68     		ldr	r3, [r3]	@ vol.0, MEM[(volatile struct SysTick_MemMap *)3758153744B].CSR
  22:../../cpu/arm/mkl25z/./clock.c **** 	//SCB_ICSR = SCB_ICSR_PENDSTCLR_MASK;	/* Clear pending interrupt in SCB. */
ARM GAS  /tmp/ccQtIYYF.s 			page 3


  23:../../cpu/arm/mkl25z/./clock.c **** 	current_clock++;						/* Increment current clock. */
  93              		.loc 1 23 0
  94 0006 104B     		ldr	r3, .L4+4	@ tmp121,
  95 0008 1A68     		ldr	r2, [r3]	@ current_clock.1, current_clock
  96 000a 0132     		add	r2, r2, #1	@ current_clock.2,
  97 000c 1A60     		str	r2, [r3]	@ current_clock.2, current_clock
  24:../../cpu/arm/mkl25z/./clock.c **** 	if(etimer_pending() && etimer_next_expiration_time() >= current_clock) {
  98              		.loc 1 24 0
  99 000e FFF7FEFF 		bl	etimer_pending	@
 100              	.LVL0:
 101 0012 0028     		cmp	r0, #0	@ D.4922,
 102 0014 07D0     		beq	.L2	@,
 103              		.loc 1 24 0 is_stmt 0 discriminator 1
 104 0016 FFF7FEFF 		bl	etimer_next_expiration_time	@
 105              	.LVL1:
 106 001a 0B4B     		ldr	r3, .L4+4	@ tmp123,
 107 001c 1B68     		ldr	r3, [r3]	@ current_clock.3, current_clock
 108 001e 9842     		cmp	r0, r3	@ D.4923, current_clock.3
 109 0020 01D3     		bcc	.L2	@,
  25:../../cpu/arm/mkl25z/./clock.c **** 		etimer_request_poll();
 110              		.loc 1 25 0 is_stmt 1
 111 0022 FFF7FEFF 		bl	etimer_request_poll	@
 112              	.LVL2:
 113              	.L2:
  26:../../cpu/arm/mkl25z/./clock.c **** 		/* printf("%d,%d\n", clock_time(),etimer_next_expiration_time  	()); */
  27:../../cpu/arm/mkl25z/./clock.c **** 	}
  28:../../cpu/arm/mkl25z/./clock.c **** 	if (--second_countdown == 0) {
 114              		.loc 1 28 0
 115 0026 094A     		ldr	r2, .L4+8	@ tmp124,
 116 0028 1368     		ldr	r3, [r2]	@ second_countdown.5, second_countdown
 117 002a 013B     		sub	r3, r3, #1	@ second_countdown.5,
 118 002c 1360     		str	r3, [r2]	@ second_countdown.5, second_countdown
 119 002e 002B     		cmp	r3, #0	@ second_countdown.5,
 120 0030 06D1     		bne	.L1	@,
  29:../../cpu/arm/mkl25z/./clock.c **** 		current_seconds++;
 121              		.loc 1 29 0
 122 0032 054B     		ldr	r3, .L4+4	@ tmp127,
 123 0034 5A68     		ldr	r2, [r3, #4]	@ current_seconds.6, current_seconds
 124 0036 0132     		add	r2, r2, #1	@ current_seconds.7,
 125 0038 5A60     		str	r2, [r3, #4]	@ current_seconds.7, current_seconds
  30:../../cpu/arm/mkl25z/./clock.c **** 		second_countdown = CLOCK_SECOND;
 126              		.loc 1 30 0
 127 003a 6422     		mov	r2, #100	@ tmp130,
 128 003c 034B     		ldr	r3, .L4+8	@ tmp129,
 129 003e 1A60     		str	r2, [r3]	@ tmp130, second_countdown
 130              	.L1:
  31:../../cpu/arm/mkl25z/./clock.c **** 	}
  32:../../cpu/arm/mkl25z/./clock.c **** }
 131              		.loc 1 32 0
 132              		@ sp needed	@
 133 0040 08BD     		pop	{r3, pc}
 134              	.L5:
 135 0042 C046     		.align	2
 136              	.L4:
 137 0044 10E000E0 		.word	-536813552
 138 0048 00000000 		.word	.LANCHOR0
 139 004c 00000000 		.word	.LANCHOR1
ARM GAS  /tmp/ccQtIYYF.s 			page 4


 140              		.cfi_endproc
 141              	.LFE0:
 142              		.size	SysTick_Handler, .-SysTick_Handler
 143              		.align	2
 144              		.global	clock_init
 145              		.code	16
 146              		.thumb_func
 147              		.type	clock_init, %function
 148              	clock_init:
 149              	.LFB1:
  33:../../cpu/arm/mkl25z/./clock.c **** 
  34:../../cpu/arm/mkl25z/./clock.c **** 
  35:../../cpu/arm/mkl25z/./clock.c **** void
  36:../../cpu/arm/mkl25z/./clock.c **** clock_init()
  37:../../cpu/arm/mkl25z/./clock.c **** {
 150              		.loc 1 37 0
 151              		.cfi_startproc
 152 0050 08B5     		push	{r3, lr}	@
 153              	.LCFI1:
 154              		.cfi_def_cfa_offset 8
 155              		.cfi_offset 3, -8
 156              		.cfi_offset 14, -4
  38:../../cpu/arm/mkl25z/./clock.c **** 	NVIC_SET_SYSTICK_PRI(8);				/* Set Systick priority. */
 157              		.loc 1 38 0
 158 0052 0820     		mov	r0, #8	@,
 159 0054 FFF7FEFF 		bl	NVIC_SET_SYSTICK_PRI	@
 160              	.LVL3:
  39:../../cpu/arm/mkl25z/./clock.c **** 	SYST_RVR = CORECLK/16/CLOCK_SECOND;		/* Set reload value.  SysTick->LOAD in CMSIS. */
 161              		.loc 1 39 0
 162 0058 024B     		ldr	r3, .L7	@ tmp110,
 163 005a 034A     		ldr	r2, .L7+4	@ tmp111,
 164 005c 5A60     		str	r2, [r3, #4]	@ tmp111, MEM[(volatile struct SysTick_MemMap *)3758153744B].RVR
  40:../../cpu/arm/mkl25z/./clock.c **** 	SYST_CSR = 	SysTick_CSR_ENABLE_MASK | 	/* Enable SysTick. */
 165              		.loc 1 40 0
 166 005e 0322     		mov	r2, #3	@ tmp113,
 167 0060 1A60     		str	r2, [r3]	@ tmp113, MEM[(volatile struct SysTick_MemMap *)3758153744B].CSR
  41:../../cpu/arm/mkl25z/./clock.c **** 				SysTick_CSR_TICKINT_MASK; 		/* Enable tick interrupt. */	
  42:../../cpu/arm/mkl25z/./clock.c **** 	/* Leave clock source as "external" clock.  This is core clock / 16, so 48/16 = 3MHz. */
  43:../../cpu/arm/mkl25z/./clock.c **** 	/* In CMSIS, this would be: SysTick->CTRL = SysTick_CTRL_ENABLE | SysTick_CTRL_TICKINT; */
  44:../../cpu/arm/mkl25z/./clock.c **** }
 168              		.loc 1 44 0
 169              		@ sp needed	@
 170 0062 08BD     		pop	{r3, pc}
 171              	.L8:
 172              		.align	2
 173              	.L7:
 174 0064 10E000E0 		.word	-536813552
 175 0068 30750000 		.word	30000
 176              		.cfi_endproc
 177              	.LFE1:
 178              		.size	clock_init, .-clock_init
 179              		.align	2
 180              		.global	clock_time
 181              		.code	16
 182              		.thumb_func
 183              		.type	clock_time, %function
 184              	clock_time:
ARM GAS  /tmp/ccQtIYYF.s 			page 5


 185              	.LFB2:
  45:../../cpu/arm/mkl25z/./clock.c **** 
  46:../../cpu/arm/mkl25z/./clock.c **** clock_time_t
  47:../../cpu/arm/mkl25z/./clock.c **** clock_time(void)
  48:../../cpu/arm/mkl25z/./clock.c **** {
 186              		.loc 1 48 0
 187              		.cfi_startproc
  49:../../cpu/arm/mkl25z/./clock.c ****   return current_clock;
 188              		.loc 1 49 0
 189 006c 014B     		ldr	r3, .L10	@ tmp112,
 190 006e 1868     		ldr	r0, [r3]	@ D.4928, current_clock
  50:../../cpu/arm/mkl25z/./clock.c **** }
 191              		.loc 1 50 0
 192              		@ sp needed	@
 193 0070 7047     		bx	lr
 194              	.L11:
 195 0072 C046     		.align	2
 196              	.L10:
 197 0074 00000000 		.word	.LANCHOR0
 198              		.cfi_endproc
 199              	.LFE2:
 200              		.size	clock_time, .-clock_time
 201              		.global	__aeabi_ui2d
 202              		.global	__aeabi_dmul
 203              		.global	__aeabi_i2d
 204              		.global	__aeabi_dcmplt
 205              		.align	2
 206              		.global	clock_delay
 207              		.code	16
 208              		.thumb_func
 209              		.type	clock_delay, %function
 210              	clock_delay:
 211              	.LFB3:
  51:../../cpu/arm/mkl25z/./clock.c **** 
  52:../../cpu/arm/mkl25z/./clock.c **** void
  53:../../cpu/arm/mkl25z/./clock.c **** clock_delay(unsigned int t)
  54:../../cpu/arm/mkl25z/./clock.c **** {
 212              		.loc 1 54 0
 213              		.cfi_startproc
 214              	.LVL4:
 215 0078 70B5     		push	{r4, r5, r6, lr}	@
 216              	.LCFI2:
 217              		.cfi_def_cfa_offset 16
 218              		.cfi_offset 4, -16
 219              		.cfi_offset 5, -12
 220              		.cfi_offset 6, -8
 221              		.cfi_offset 14, -4
 222 007a 82B0     		sub	sp, sp, #8	@,,
 223              	.LCFI3:
 224              		.cfi_def_cfa_offset 24
  55:../../cpu/arm/mkl25z/./clock.c **** 	volatile uint8_t i;
  56:../../cpu/arm/mkl25z/./clock.c **** 	for(i=0; i<(t*1.25); i++) {
 225              		.loc 1 56 0
 226 007c 6B46     		mov	r3, sp	@ tmp121,
 227 007e 0022     		mov	r2, #0	@ tmp122,
 228 0080 DA71     		strb	r2, [r3, #7]	@ tmp122, i
 229 0082 DE79     		ldrb	r6, [r3, #7]	@ i, i
ARM GAS  /tmp/ccQtIYYF.s 			page 6


 230 0084 F6B2     		uxtb	r6, r6	@ i.11, i
 231 0086 FFF7FEFF 		bl	__aeabi_ui2d	@
 232              	.LVL5:
 233 008a 124B     		ldr	r3, .L20+4	@,
 234 008c 104A     		ldr	r2, .L20	@,
 235 008e FFF7FEFF 		bl	__aeabi_dmul	@
 236              	.LVL6:
 237 0092 041C     		mov	r4, r0	@ D.4932,
 238 0094 0D1C     		mov	r5, r1	@ D.4932,
 239 0096 301C     		mov	r0, r6	@, i.11
 240 0098 FFF7FEFF 		bl	__aeabi_i2d	@
 241              	.LVL7:
 242 009c 221C     		mov	r2, r4	@, D.4932
 243 009e 2B1C     		mov	r3, r5	@, D.4932
 244 00a0 FFF7FEFF 		bl	__aeabi_dcmplt	@
 245              	.LVL8:
 246 00a4 6E46     		mov	r6, sp	@ tmp142,
 247 00a6 0736     		add	r6, r6, #7	@ tmp142,
 248 00a8 0028     		cmp	r0, #0	@ tmp130,
 249 00aa 0ED0     		beq	.L12	@,
 250              	.L19:
  57:../../cpu/arm/mkl25z/./clock.c **** 		/* NOTE: this is not really accurate, as not sure yet about the cycle counts. Assuming 0.75 cycle
  58:../../cpu/arm/mkl25z/./clock.c **** 		asm("nop \n\t");
 251              		.loc 1 58 0 discriminator 2
 252              	@ 58 "../../cpu/arm/mkl25z/./clock.c" 1
 253 00ac C046     		nop 
 254              		
 255              	@ 0 "" 2
  56:../../cpu/arm/mkl25z/./clock.c **** 	for(i=0; i<(t*1.25); i++) {
 256              		.loc 1 56 0 discriminator 2
 257              		.code	16
 258 00ae 3378     		ldrb	r3, [r6]	@ i, i
 259 00b0 0133     		add	r3, r3, #1	@ tmp134,
 260 00b2 DBB2     		uxtb	r3, r3	@ i.10, tmp134
 261 00b4 3370     		strb	r3, [r6]	@ i.10, i
 262 00b6 3078     		ldrb	r0, [r6]	@ i, i
 263 00b8 C0B2     		uxtb	r0, r0	@ i.11, i
 264 00ba FFF7FEFF 		bl	__aeabi_i2d	@
 265              	.LVL9:
 266 00be 221C     		mov	r2, r4	@, D.4932
 267 00c0 2B1C     		mov	r3, r5	@, D.4932
 268 00c2 FFF7FEFF 		bl	__aeabi_dcmplt	@
 269              	.LVL10:
 270 00c6 0028     		cmp	r0, #0	@ tmp141,
 271 00c8 F0D1     		bne	.L19	@,
 272              	.L12:
  59:../../cpu/arm/mkl25z/./clock.c **** 	} /* just something to wait, NOT the requested cycles */
  60:../../cpu/arm/mkl25z/./clock.c **** }
 273              		.loc 1 60 0
 274 00ca 02B0     		add	sp, sp, #8	@,,
 275              		@ sp needed	@
 276 00cc 70BD     		pop	{r4, r5, r6, pc}
 277              	.L21:
 278 00ce C046     		.align	3
 279              	.L20:
 280 00d0 00000000 		.word	0
 281 00d4 0000F43F 		.word	1072955392
ARM GAS  /tmp/ccQtIYYF.s 			page 7


 282              		.cfi_endproc
 283              	.LFE3:
 284              		.size	clock_delay, .-clock_delay
 285              		.align	2
 286              		.global	clock_seconds
 287              		.code	16
 288              		.thumb_func
 289              		.type	clock_seconds, %function
 290              	clock_seconds:
 291              	.LFB4:
  61:../../cpu/arm/mkl25z/./clock.c **** 
  62:../../cpu/arm/mkl25z/./clock.c **** unsigned long
  63:../../cpu/arm/mkl25z/./clock.c **** clock_seconds(void)
  64:../../cpu/arm/mkl25z/./clock.c **** {
 292              		.loc 1 64 0
 293              		.cfi_startproc
  65:../../cpu/arm/mkl25z/./clock.c ****   return current_seconds;
 294              		.loc 1 65 0
 295 00d8 014B     		ldr	r3, .L23	@ tmp112,
 296 00da 5868     		ldr	r0, [r3, #4]	@ D.4934, current_seconds
  66:../../cpu/arm/mkl25z/./clock.c **** }
 297              		.loc 1 66 0
 298              		@ sp needed	@
 299 00dc 7047     		bx	lr
 300              	.L24:
 301 00de C046     		.align	2
 302              	.L23:
 303 00e0 00000000 		.word	.LANCHOR0
 304              		.cfi_endproc
 305              	.LFE4:
 306              		.size	clock_seconds, .-clock_seconds
 307              		.data
 308              		.align	2
 309              		.set	.LANCHOR1,. + 0
 310              		.type	second_countdown, %object
 311              		.size	second_countdown, 4
 312              	second_countdown:
 313 0000 64000000 		.word	100
 314              		.bss
 315              		.align	2
 316              		.set	.LANCHOR0,. + 0
 317              		.type	current_clock, %object
 318              		.size	current_clock, 4
 319              	current_clock:
 320 0000 00000000 		.space	4
 321              		.type	current_seconds, %object
 322              		.size	current_seconds, 4
 323              	current_seconds:
 324 0004 00000000 		.space	4
 325              		.text
 326              	.Letext0:
 327              		.file 2 "/home/glacsweb/arm-gcc/ARM_GCC_Support/ewl/EWL_C/include/cstdint"
 328              		.file 3 "../../cpu/arm/mkl25z/MKL25Z4.h"
 329              		.file 4 "../../platform/frdm-kl25z-rf/contiki-conf.h"
 330              		.file 5 "../../core/./sys/etimer.h"
 331              		.file 6 "../../cpu/arm/mkl25z/./nvic.h"