ARM GAS  /tmp/cc9aNEDf.s 			page 1


   1              		.cpu cortex-m0plus
   2              		.fpu softvfp
   3              		.eabi_attribute 20, 1	@ Tag_ABI_FP_denormal
   4              		.eabi_attribute 21, 1	@ Tag_ABI_FP_exceptions
   5              		.eabi_attribute 23, 3	@ Tag_ABI_FP_number_model
   6              		.eabi_attribute 24, 1	@ Tag_ABI_align8_needed
   7              		.eabi_attribute 25, 1	@ Tag_ABI_align8_preserved
   8              		.eabi_attribute 26, 1	@ Tag_ABI_enum_size
   9              		.eabi_attribute 30, 1	@ Tag_ABI_optimization_goals
  10              		.eabi_attribute 34, 0	@ Tag_CPU_unaligned_access
  11              		.eabi_attribute 18, 4	@ Tag_ABI_PCS_wchar_t
  12              		.file	"cpu.c"
  13              	@ GNU C (GNU Tools for ARM Embedded Processors) version 4.8.3 20131129 (release) [ARM/embedded-4_8-
  14              	@	compiled by GNU C version 4.6.3, GMP version 4.3.2, MPFR version 2.4.2, MPC version 0.8.1
  15              	@ GGC heuristics: --param ggc-min-expand=100 --param ggc-min-heapsize=131072
  16              	@ options passed:  -I . -I ../../cpu/arm/mkl25z
  17              	@ -I ../../cpu/arm/mkl25z/loader -I ../../cpu/arm/mkl25z/dbg-io
  18              	@ -I ../../dev -I ../../platform/frdm-kl25z-rf
  19              	@ -I /home/glacsweb/arm-gcc/ARM_GCC_Support/ewl/EWL_C/include
  20              	@ -I /home/glacsweb/arm-gcc/ARM_GCC_Support/ewl/EWL_Runtime/include
  21              	@ -I /home/glacsweb/arm-gcc/lib/gcc/arm-none-eabi/4.8.3/include
  22              	@ -I /home/glacsweb/arm-gcc/lib/gcc/arm-none-eabi/4.8.3/include-fixed
  23              	@ -I /home/glacsweb/arm-gcc/arm-none-eabi/include -I ../../dev/cc1120 -I .
  24              	@ -I ../../platform/frdm-kl25z-rf/. -I ../../platform/frdm-kl25z-rf/dev
  25              	@ -I ../../platform/frdm-kl25z-rf/apps -I ../../platform/frdm-kl25z-rf/net
  26              	@ -I ../../platform/frdm-kl25z-rf/../../dev/cc1120
  27              	@ -I ../../platform/frdm-kl25z-rf/../../core/net -I ../../cpu/arm/mkl25z/.
  28              	@ -I ../../cpu/arm/mkl25z/../common/dbg-io -I ../../cpu/arm/mkl25z/loader
  29              	@ -I ../../core/dev -I ../../core/lib -I ../../core/net
  30              	@ -I ../../core/net/mac -I ../../core/net/rime -I ../../core/net/rpl
  31              	@ -I ../../core/sys -I ../../core/cfs -I ../../core/ctk
  32              	@ -I ../../core/lib/ctk -I ../../core/loader -I ../../core/.
  33              	@ -I ../../platform/frdm-kl25z-rf/ -imultilib armv6-m
  34              	@ -iprefix /home/glacsweb/arm-gcc/bin/../lib/gcc/arm-none-eabi/4.8.3/
  35              	@ -isysroot /home/glacsweb/arm-gcc/bin/../arm-none-eabi -D__USES_INITFINI__
  36              	@ -D CONTIKI=1 -D CONTIKI_TARGET_FRDM_KL25Z_RF=1 -D WITH_UIP=1
  37              	@ -D MCK=48000000 -D AUTOSTART_ENABLE -D CC11xx_CC1120=1 -D RUN_AS_SYSTEM
  38              	@ -D ROM_RUN -D __SDCC
  39              	@ -D CONTIKI_VERSION_STRING="Contiki-KL25Z-Port-18-g5a8e189"
  40              	@ ../../cpu/arm/mkl25z/./cpu.c -mcpu=cortex-m0plus -mthumb
  41              	@ -auxbase-strip obj_frdm-kl25z-rf/cpu.o -gdwarf-2 -g -O -Wall
  42              	@ -Wstrict-prototypes -fomit-frame-pointer -fverbose-asm
  43              	@ options enabled:  -faggressive-loop-optimizations -fauto-inc-dec
  44              	@ -fbranch-count-reg -fcombine-stack-adjustments -fcommon -fcompare-elim
  45              	@ -fcprop-registers -fdefer-pop -fdelete-null-pointer-checks
  46              	@ -fdwarf2-cfi-asm -fearly-inlining -feliminate-unused-debug-types
  47              	@ -fforward-propagate -ffunction-cse -fgcse-lm -fgnu-runtime
  48              	@ -fguess-branch-probability -fident -fif-conversion -fif-conversion2
  49              	@ -finline -finline-atomics -finline-functions-called-once -fipa-profile
  50              	@ -fipa-pure-const -fipa-reference -fira-hoist-pressure
  51              	@ -fira-share-save-slots -fira-share-spill-slots -fivopts
  52              	@ -fkeep-static-consts -fleading-underscore -fmath-errno -fmerge-constants
  53              	@ -fmerge-debug-strings -fmove-loop-invariants -fomit-frame-pointer
  54              	@ -fpeephole -fprefetch-loop-arrays -freg-struct-return
  55              	@ -fsched-critical-path-heuristic -fsched-dep-count-heuristic
  56              	@ -fsched-group-heuristic -fsched-interblock -fsched-last-insn-heuristic
  57              	@ -fsched-pressure -fsched-rank-heuristic -fsched-spec
ARM GAS  /tmp/cc9aNEDf.s 			page 2


  58              	@ -fsched-spec-insn-heuristic -fsched-stalled-insns-dep -fsection-anchors
  59              	@ -fshow-column -fshrink-wrap -fsigned-zeros -fsplit-ivs-in-unroller
  60              	@ -fsplit-wide-types -fstrict-volatile-bitfields -fsync-libcalls
  61              	@ -ftoplevel-reorder -ftrapping-math -ftree-bit-ccp -ftree-ccp -ftree-ch
  62              	@ -ftree-coalesce-vars -ftree-copy-prop -ftree-copyrename -ftree-cselim
  63              	@ -ftree-dce -ftree-dominator-opts -ftree-dse -ftree-forwprop -ftree-fre
  64              	@ -ftree-loop-if-convert -ftree-loop-im -ftree-loop-ivcanon
  65              	@ -ftree-loop-optimize -ftree-parallelize-loops= -ftree-phiprop -ftree-pta
  66              	@ -ftree-reassoc -ftree-scev-cprop -ftree-sink -ftree-slp-vectorize
  67              	@ -ftree-slsr -ftree-sra -ftree-ter -ftree-vect-loop-version
  68              	@ -funit-at-a-time -fvar-tracking -fvar-tracking-assignments -fverbose-asm
  69              	@ -fzero-initialized-in-bss -mlittle-endian -mpic-data-is-text-relative
  70              	@ -msched-prolog -mthumb -mvectorize-with-neon-quad
  71              	
  72              		.text
  73              	.Ltext0:
  74              		.cfi_sections	.debug_frame
  75              		.align	2
  76              		.global	port_enable
  77              		.code	16
  78              		.thumb_func
  79              		.type	port_enable, %function
  80              	port_enable:
  81              	.LFB0:
  82              		.file 1 "../../cpu/arm/mkl25z/./cpu.c"
   1:../../cpu/arm/mkl25z/./cpu.c **** /*-------------------------------------------------------------------------------------------------
   2:../../cpu/arm/mkl25z/./cpu.c **** /*	cpu.c	
   3:../../cpu/arm/mkl25z/./cpu.c ****  *	
   4:../../cpu/arm/mkl25z/./cpu.c ****  *	Initialisation & Interrupt handler for CPU on the Freescale FRDM-KL25z Freedom Board
   5:../../cpu/arm/mkl25z/./cpu.c ****  *	
   6:../../cpu/arm/mkl25z/./cpu.c ****  *	Author: Graeme Bragg    
   7:../../cpu/arm/mkl25z/./cpu.c ****  * 			ARM-ECS / Pervasive Systems Centre
   8:../../cpu/arm/mkl25z/./cpu.c ****  * 			School of Electronics & Computer Science
   9:../../cpu/arm/mkl25z/./cpu.c ****  * 			University of Southampton
  10:../../cpu/arm/mkl25z/./cpu.c ****  * 
  11:../../cpu/arm/mkl25z/./cpu.c ****  * 
  12:../../cpu/arm/mkl25z/./cpu.c ****  *	27/2/2013	Rev.01		Configures CPU for 20.97152MHz Bus, Core and MCG Clock sources from the intern
  13:../../cpu/arm/mkl25z/./cpu.c ****  *							CPU runs in FEI. MGCIRCLK source is set to the slow internal oscillator.
  14:../../cpu/arm/mkl25z/./cpu.c ****  *							VLPM, LLS and VLLS are "allowed". NMI Interrupt is enabled on PTA4, Reset is PTA20.
  15:../../cpu/arm/mkl25z/./cpu.c ****  *	5/3/2013	Rev.02		Functions to enter low power modes.						
  16:../../cpu/arm/mkl25z/./cpu.c ****  *	12/3/2013	Rev.03		Added definitions for clock values.	
  17:../../cpu/arm/mkl25z/./cpu.c ****  *	18/2/2014	Rev.04		Options for 21MHz (from 32k internal) or 48MHz (from 8MHz external) clocks.
  18:../../cpu/arm/mkl25z/./cpu.c ****  *	
  19:../../cpu/arm/mkl25z/./cpu.c ****  *
  20:../../cpu/arm/mkl25z/./cpu.c ****  *	Page references relate to the KL25 Sub-Family Reference Manual, Document No. KL25P80M48SF0RM, Re
  21:../../cpu/arm/mkl25z/./cpu.c ****  *	Available on 25/02/2013 from http://cache.freescale.com/files/32bit/doc/ref_manual/KL25P80M48SF0
  22:../../cpu/arm/mkl25z/./cpu.c ****  *	
  23:../../cpu/arm/mkl25z/./cpu.c ****  *	Page references to "M0 Book" refer to "The Definitive Guide to the ARM Cortex-M0" by Joseph Yiu,
  24:../../cpu/arm/mkl25z/./cpu.c ****  *	
  25:../../cpu/arm/mkl25z/./cpu.c ****  *
  26:../../cpu/arm/mkl25z/./cpu.c ****  *	***NB*** This file is intended for use with a new "Bareboard" project (with no rapid-development
  27:../../cpu/arm/mkl25z/./cpu.c ****  *				If this is not the case, you MUST ensure that an appropriate entry of "NMI_Handler" exists in
  28:../../cpu/arm/mkl25z/./cpu.c ****  *				(address 0x00000008) of the VectorTable.
  29:../../cpu/arm/mkl25z/./cpu.c ****  *
  30:../../cpu/arm/mkl25z/./cpu.c ****  *				Appropriate entries for the interrupt handler exist in the vector table contained in the gene
  31:../../cpu/arm/mkl25z/./cpu.c ****  *				kinetis_sysinit.c file
  32:../../cpu/arm/mkl25z/./cpu.c ****  */				
ARM GAS  /tmp/cc9aNEDf.s 			page 3


  33:../../cpu/arm/mkl25z/./cpu.c **** /*-------------------------------------------------------------------------------------------------
  34:../../cpu/arm/mkl25z/./cpu.c **** 
  35:../../cpu/arm/mkl25z/./cpu.c **** #include <MKL25Z4.h>                   /* I/O map for MKL25Z128VLK4 */
  36:../../cpu/arm/mkl25z/./cpu.c **** #include "cpu.h"
  37:../../cpu/arm/mkl25z/./cpu.c **** 
  38:../../cpu/arm/mkl25z/./cpu.c **** void port_enable(uint8_t PortMask)		/* Enable clock to used ports.  This is required before configu
  39:../../cpu/arm/mkl25z/./cpu.c **** {
  83              		.loc 1 39 0
  84              		.cfi_startproc
  85              	.LVL0:
  86 0000 10B5     		push	{r4, lr}	@
  87              	.LCFI0:
  88              		.cfi_def_cfa_offset 8
  89              		.cfi_offset 4, -8
  90              		.cfi_offset 14, -4
  40:../../cpu/arm/mkl25z/./cpu.c **** 	SIM_SCGC5 |= SIM_SCGC5_PORTA_MASK;			/* Enable clock to PortA as this is ALWAYS required for NMI a
  91              		.loc 1 40 0
  92 0002 154A     		ldr	r2, .L6	@ tmp125,
  93 0004 154B     		ldr	r3, .L6+4	@ tmp126,
  94 0006 D458     		ldr	r4, [r2, r3]	@ D.4828, MEM[(volatile struct SIM_MemMap *)1074032640B].SCGC5
  95 0008 8021     		mov	r1, #128	@ tmp178,
  96 000a 8900     		lsl	r1, r1, #2	@ tmp127, tmp178,
  97 000c 2143     		orr	r1, r4	@ D.4828, D.4828
  98 000e D150     		str	r1, [r2, r3]	@ D.4828, MEM[(volatile struct SIM_MemMap *)1074032640B].SCGC5
  41:../../cpu/arm/mkl25z/./cpu.c **** 	
  42:../../cpu/arm/mkl25z/./cpu.c **** 	if(PortMask & PORTB_EN_MASK)				/* If PortB Enable Mask, */
  99              		.loc 1 42 0
 100 0010 C307     		lsl	r3, r0, #31	@, PortMask,
 101 0012 05D5     		bpl	.L2	@,
  43:../../cpu/arm/mkl25z/./cpu.c **** 	{
  44:../../cpu/arm/mkl25z/./cpu.c **** 		SIM_SCGC5 |= SIM_SCGC5_PORTB_MASK;		/* Enable Clock to PortB. */
 102              		.loc 1 44 0
 103 0014 114B     		ldr	r3, .L6+4	@ tmp137,
 104 0016 D458     		ldr	r4, [r2, r3]	@ D.4828, MEM[(volatile struct SIM_MemMap *)1074032640B].SCGC5
 105 0018 8021     		mov	r1, #128	@ tmp177,
 106 001a C900     		lsl	r1, r1, #3	@ tmp138, tmp177,
 107 001c 2143     		orr	r1, r4	@ D.4828, D.4828
 108 001e D150     		str	r1, [r2, r3]	@ D.4828, MEM[(volatile struct SIM_MemMap *)1074032640B].SCGC5
 109              	.L2:
  45:../../cpu/arm/mkl25z/./cpu.c **** 	}
  46:../../cpu/arm/mkl25z/./cpu.c **** 	if(PortMask & PORTC_EN_MASK)				/* If PortC Enable Mask, */
 110              		.loc 1 46 0
 111 0020 8307     		lsl	r3, r0, #30	@, PortMask,
 112 0022 06D5     		bpl	.L3	@,
  47:../../cpu/arm/mkl25z/./cpu.c **** 	{
  48:../../cpu/arm/mkl25z/./cpu.c **** 		SIM_SCGC5 |= SIM_SCGC5_PORTC_MASK;		/* Enable Clock to PortC. */
 113              		.loc 1 48 0
 114 0024 0C4A     		ldr	r2, .L6	@ tmp147,
 115 0026 0D4B     		ldr	r3, .L6+4	@ tmp148,
 116 0028 D458     		ldr	r4, [r2, r3]	@ D.4828, MEM[(volatile struct SIM_MemMap *)1074032640B].SCGC5
 117 002a 8021     		mov	r1, #128	@ tmp176,
 118 002c 0901     		lsl	r1, r1, #4	@ tmp149, tmp176,
 119 002e 2143     		orr	r1, r4	@ D.4828, D.4828
 120 0030 D150     		str	r1, [r2, r3]	@ D.4828, MEM[(volatile struct SIM_MemMap *)1074032640B].SCGC5
 121              	.L3:
  49:../../cpu/arm/mkl25z/./cpu.c **** 	}
  50:../../cpu/arm/mkl25z/./cpu.c **** 	if(PortMask & PORTD_EN_MASK)				/* If PortD Enable Mask, */
ARM GAS  /tmp/cc9aNEDf.s 			page 4


 122              		.loc 1 50 0
 123 0032 4307     		lsl	r3, r0, #29	@, PortMask,
 124 0034 06D5     		bpl	.L4	@,
  51:../../cpu/arm/mkl25z/./cpu.c **** 	{
  52:../../cpu/arm/mkl25z/./cpu.c **** 		SIM_SCGC5 |= SIM_SCGC5_PORTD_MASK;		/* Enable Clock to PortD. */
 125              		.loc 1 52 0
 126 0036 084A     		ldr	r2, .L6	@ tmp158,
 127 0038 084B     		ldr	r3, .L6+4	@ tmp159,
 128 003a D458     		ldr	r4, [r2, r3]	@ D.4828, MEM[(volatile struct SIM_MemMap *)1074032640B].SCGC5
 129 003c 8021     		mov	r1, #128	@ tmp175,
 130 003e 4901     		lsl	r1, r1, #5	@ tmp160, tmp175,
 131 0040 2143     		orr	r1, r4	@ D.4828, D.4828
 132 0042 D150     		str	r1, [r2, r3]	@ D.4828, MEM[(volatile struct SIM_MemMap *)1074032640B].SCGC5
 133              	.L4:
  53:../../cpu/arm/mkl25z/./cpu.c **** 	}
  54:../../cpu/arm/mkl25z/./cpu.c **** 	if(PortMask & PORTE_EN_MASK)				/* If PortE Enable Mask, */
 134              		.loc 1 54 0
 135 0044 0307     		lsl	r3, r0, #28	@, PortMask,
 136 0046 06D5     		bpl	.L1	@,
  55:../../cpu/arm/mkl25z/./cpu.c **** 	{
  56:../../cpu/arm/mkl25z/./cpu.c **** 		SIM_SCGC5 |= SIM_SCGC5_PORTE_MASK;		/* Enable Clock to PortE. */
 137              		.loc 1 56 0
 138 0048 034A     		ldr	r2, .L6	@ tmp169,
 139 004a 044B     		ldr	r3, .L6+4	@ tmp170,
 140 004c D058     		ldr	r0, [r2, r3]	@ D.4828, MEM[(volatile struct SIM_MemMap *)1074032640B].SCGC5
 141              	.LVL1:
 142 004e 8021     		mov	r1, #128	@ tmp174,
 143 0050 8901     		lsl	r1, r1, #6	@ tmp171, tmp174,
 144 0052 0143     		orr	r1, r0	@ D.4828, D.4828
 145 0054 D150     		str	r1, [r2, r3]	@ D.4828, MEM[(volatile struct SIM_MemMap *)1074032640B].SCGC5
 146              	.L1:
  57:../../cpu/arm/mkl25z/./cpu.c **** 	}
  58:../../cpu/arm/mkl25z/./cpu.c **** }
 147              		.loc 1 58 0
 148              		@ sp needed	@
 149 0056 10BD     		pop	{r4, pc}
 150              	.L7:
 151              		.align	2
 152              	.L6:
 153 0058 00700440 		.word	1074032640
 154 005c 38100000 		.word	4152
 155              		.cfi_endproc
 156              	.LFE0:
 157              		.size	port_enable, .-port_enable
 158              		.align	2
 159              		.global	cpu_init
 160              		.code	16
 161              		.thumb_func
 162              		.type	cpu_init, %function
 163              	cpu_init:
 164              	.LFB1:
  59:../../cpu/arm/mkl25z/./cpu.c **** 
  60:../../cpu/arm/mkl25z/./cpu.c **** void cpu_init(void)
  61:../../cpu/arm/mkl25z/./cpu.c **** {
 165              		.loc 1 61 0
 166              		.cfi_startproc
 167 0060 08B5     		push	{r3, lr}	@
ARM GAS  /tmp/cc9aNEDf.s 			page 5


 168              	.LCFI1:
 169              		.cfi_def_cfa_offset 8
 170              		.cfi_offset 3, -8
 171              		.cfi_offset 14, -4
  62:../../cpu/arm/mkl25z/./cpu.c **** 	/* These two functions happen in startup code so not needed. */
  63:../../cpu/arm/mkl25z/./cpu.c **** 	//SCB_VTOR = (uint32_t)(&__vect_table); 		/* Set the interrupt vector table position */
  64:../../cpu/arm/mkl25z/./cpu.c **** 	//SIM_COPC = 0x00;							/* disable watchdog. */
  65:../../cpu/arm/mkl25z/./cpu.c **** 	
  66:../../cpu/arm/mkl25z/./cpu.c **** 	
  67:../../cpu/arm/mkl25z/./cpu.c **** 	port_enable(0);								/* Enable clocks to Port A. */
 172              		.loc 1 67 0
 173 0062 0020     		mov	r0, #0	@,
 174 0064 FFF7FEFF 		bl	port_enable	@
 175              	.LVL2:
  68:../../cpu/arm/mkl25z/./cpu.c **** 	
  69:../../cpu/arm/mkl25z/./cpu.c **** 
  70:../../cpu/arm/mkl25z/./cpu.c **** 	/* System clock initialisation */
  71:../../cpu/arm/mkl25z/./cpu.c **** #if defined(__21mhzIR)	/* 20.97MHz core and bus speed from internal 32kHz reference oscillator. */
  72:../../cpu/arm/mkl25z/./cpu.c **** 	SIM_CLKDIV1 = (uint32_t)0x0000;      										/* Set System Clock Divider Register to Divide-by-1
  73:../../cpu/arm/mkl25z/./cpu.c **** 	SIM_SOPT2 &= ~(SIM_SOPT2_PLLFLLSEL_MASK | SIM_SOPT2_TPMSRC_MASK); 			/* Set MCGFLLCLK without divi
  74:../../cpu/arm/mkl25z/./cpu.c **** 	SIM_SOPT2 |= SIM_SOPT2_TPMSRC(0x01);										/* Set TPM Clock Source to MCGFLLCLK. Page 195. */
  75:../../cpu/arm/mkl25z/./cpu.c **** 	
  76:../../cpu/arm/mkl25z/./cpu.c **** 	/* Stay in FEI Mode */
  77:../../cpu/arm/mkl25z/./cpu.c **** 	MCG_C1 |= (MCG_C1_IREFSTEN_MASK | MCG_C1_IRCLKEN_MASK | MCG_C1_IREFS_MASK);	/* Set MCG_C1 for Enab
  78:../../cpu/arm/mkl25z/./cpu.c **** 	MCG_C2 = 0x00;    															/* Set MCG_C2: LOCRE0=0,RANGE0=0,HGO0=0,EREFS0=0,LP=0,IRCS=0. Pag
  79:../../cpu/arm/mkl25z/./cpu.c **** 	MCG_C4 &= ~0xE0;		     												/* Set MCG_C4: Set FLL clock speed. DMX32=0,DRST_DRS=0, Interna
  80:../../cpu/arm/mkl25z/./cpu.c **** 	OSC0_CR = 0x00;     														/* Set OSC0_CR: ERCLKEN=0,EREFSTEN=0,SC2P=0,SC4P=0,SC8P=0,SC16P=
  81:../../cpu/arm/mkl25z/./cpu.c **** 	MCG_C5 = 0x00;																/* Set MCG_C5: PLLCLKEN0=0,PLLSTEN0=0,PRDIV0=0. Page 376. */        
  82:../../cpu/arm/mkl25z/./cpu.c **** 	MCG_C6 = 0x00;																/* Set MCG_C6: LOLIE0=0,PLLS=0,CME0=0,VDIV0=0. Page 377. */
  83:../../cpu/arm/mkl25z/./cpu.c **** 	while((MCG_S & MCG_S_IREFST_MASK) == 0x00) {} 								/* Check that the source of the FLL referenc
  84:../../cpu/arm/mkl25z/./cpu.c **** 	while((MCG_S & 0x0C) != 0x00) {}											/* Wait until output of the FLL is selected */
  85:../../cpu/arm/mkl25z/./cpu.c **** 
  86:../../cpu/arm/mkl25z/./cpu.c **** 		
  87:../../cpu/arm/mkl25z/./cpu.c **** #else	/*48 MHz with a 24MHz bus clock generated from an 8MHz crystal. */
  88:../../cpu/arm/mkl25z/./cpu.c **** 	SIM_CLKDIV1 = (SIM_CLKDIV1_OUTDIV1(0x01) | SIM_CLKDIV1_OUTDIV4(0x01));		/* Set OUTDIV1 and OUTDIV4
 176              		.loc 1 88 0
 177 0068 4C4B     		ldr	r3, .L19	@ tmp149,
 178 006a 4D49     		ldr	r1, .L19+4	@ tmp151,
 179 006c 4D4A     		ldr	r2, .L19+8	@ tmp150,
 180 006e 9950     		str	r1, [r3, r2]	@ tmp151, MEM[(volatile struct SIM_MemMap *)1074032640B].CLKDIV1
  89:../../cpu/arm/mkl25z/./cpu.c **** 	SIM_SOPT2 |= SIM_SOPT2_PLLFLLSEL_MASK; 										/* Select PLL as a clock source for various perip
 181              		.loc 1 89 0
 182 0070 4D4A     		ldr	r2, .L19+12	@ tmp153,
 183 0072 9858     		ldr	r0, [r3, r2]	@ D.4831, MEM[(volatile struct SIM_MemMap *)1074032640B].SOPT2
 184 0074 8021     		mov	r1, #128	@ tmp337,
 185 0076 4902     		lsl	r1, r1, #9	@ tmp154, tmp337,
 186 0078 0143     		orr	r1, r0	@ D.4831, D.4831
 187 007a 9950     		str	r1, [r3, r2]	@ D.4831, MEM[(volatile struct SIM_MemMap *)1074032640B].SOPT2
  90:../../cpu/arm/mkl25z/./cpu.c **** 	SIM_SOPT2 &= ~SIM_SOPT2_TPMSRC_MASK; 										/* Clear TPMSRC. Page 195. */
 188              		.loc 1 90 0
 189 007c 9858     		ldr	r0, [r3, r2]	@ D.4831, MEM[(volatile struct SIM_MemMap *)1074032640B].SOPT2
 190 007e 4B49     		ldr	r1, .L19+16	@ tmp159,
 191 0080 0140     		and	r1, r0	@ D.4831, D.4831
 192 0082 9950     		str	r1, [r3, r2]	@ D.4831, MEM[(volatile struct SIM_MemMap *)1074032640B].SOPT2
  91:../../cpu/arm/mkl25z/./cpu.c **** 	SIM_SOPT2 |= SIM_SOPT2_TPMSRC(0x01);    									/* Set TPM Clock Source to MCGFLLCLK. Page 195. *
 193              		.loc 1 91 0
 194 0084 9858     		ldr	r0, [r3, r2]	@ D.4831, MEM[(volatile struct SIM_MemMap *)1074032640B].SOPT2
ARM GAS  /tmp/cc9aNEDf.s 			page 6


 195 0086 8021     		mov	r1, #128	@ tmp338,
 196 0088 4904     		lsl	r1, r1, #17	@ tmp164, tmp338,
 197 008a 0143     		orr	r1, r0	@ D.4831, D.4831
 198 008c 9950     		str	r1, [r3, r2]	@ D.4831, MEM[(volatile struct SIM_MemMap *)1074032640B].SOPT2
  92:../../cpu/arm/mkl25z/./cpu.c **** 	
  93:../../cpu/arm/mkl25z/./cpu.c **** 	PORTA_PCR18 &= ~(PORT_PCR_ISF_MASK | PORT_PCR_MUX_MASK);					/* Set Port A Pin 18 as EXTAL0. */
 199              		.loc 1 93 0
 200 008e 484B     		ldr	r3, .L19+20	@ tmp167,
 201 0090 996C     		ldr	r1, [r3, #72]	@ D.4831, MEM[(volatile struct PORT_MemMap *)1074040832B].PCR
 202 0092 484A     		ldr	r2, .L19+24	@ tmp168,
 203 0094 1140     		and	r1, r2	@ D.4831, tmp168
 204 0096 9964     		str	r1, [r3, #72]	@ D.4831, MEM[(volatile struct PORT_MemMap *)1074040832B].PCR
  94:../../cpu/arm/mkl25z/./cpu.c **** 	PORTA_PCR19 &= ~(PORT_PCR_ISF_MASK | PORT_PCR_MUX_MASK);					/* Set Port A Pin 19 as XTAL0. */
 205              		.loc 1 94 0
 206 0098 D96C     		ldr	r1, [r3, #76]	@ D.4831, MEM[(volatile struct PORT_MemMap *)1074040832B].PCR
 207 009a 0A40     		and	r2, r1	@ D.4831, D.4831
 208 009c DA64     		str	r2, [r3, #76]	@ D.4831, MEM[(volatile struct PORT_MemMap *)1074040832B].PCR
  95:../../cpu/arm/mkl25z/./cpu.c **** 	
  96:../../cpu/arm/mkl25z/./cpu.c **** 	/* Need to go from FEI to FBE to PBE to PEE mode. */
  97:../../cpu/arm/mkl25z/./cpu.c **** 	/* See Page 384 for function diagram and descriptions. */
  98:../../cpu/arm/mkl25z/./cpu.c **** 	
  99:../../cpu/arm/mkl25z/./cpu.c **** 	/* Switch to FBE Mode */
 100:../../cpu/arm/mkl25z/./cpu.c **** 	OSC0_CR = OSC_CR_ERCLKEN_MASK; 												/* Enable External Reference Clock. */
 209              		.loc 1 100 0
 210 009e 8022     		mov	r2, #128	@ tmp174,
 211 00a0 454B     		ldr	r3, .L19+28	@ tmp173,
 212 00a2 1A70     		strb	r2, [r3]	@ tmp174, MEM[(volatile struct OSC_MemMap *)1074155520B].CR
 101:../../cpu/arm/mkl25z/./cpu.c **** 	MCG_C2 = (MCG_C2_RANGE0(0x02) | MCG_C2_EREFS0_MASK);						/* Set Freq range to VHF & enable 8MHz o
 213              		.loc 1 101 0
 214 00a4 454B     		ldr	r3, .L19+32	@ tmp176,
 215 00a6 2422     		mov	r2, #36	@ tmp177,
 216 00a8 5A70     		strb	r2, [r3, #1]	@ tmp177, MEM[(volatile struct MCG_MemMap *)1074151424B].C2
 102:../../cpu/arm/mkl25z/./cpu.c **** 	MCG_C1 = (MCG_C1_CLKS(0x02) | MCG_C1_FRDIV(0x03) | MCG_C1_IRCLKEN_MASK);   	/* Set CLK SRC to exte
 217              		.loc 1 102 0
 218 00aa 9A22     		mov	r2, #154	@ tmp180,
 219 00ac 1A70     		strb	r2, [r3]	@ tmp180, MEM[(volatile struct MCG_MemMap *)1074151424B].C1
 103:../../cpu/arm/mkl25z/./cpu.c **** 	MCG_C4 &= ~(MCG_C4_DMX32_MASK | MCG_C4_DRST_DRS_MASK);
 220              		.loc 1 103 0
 221 00ae 1A68     		ldr	r2, [r3]	@ tmp183,
 222 00b0 D200     		lsl	r2, r2, #3	@ tmp188, tmp183,
 223 00b2 D20E     		lsr	r2, r2, #27	@ D.4832, tmp188,
 224 00b4 DA70     		strb	r2, [r3, #3]	@ D.4832, MEM[(volatile struct MCG_MemMap *)1074151424B].C4
 104:../../cpu/arm/mkl25z/./cpu.c **** 	MCG_C5 = MCG_C5_PRDIV0(0x01);  												/* Set PLL Ext Ref Divider to divide factor of 2. */
 225              		.loc 1 104 0
 226 00b6 0122     		mov	r2, #1	@ tmp192,
 227 00b8 1A71     		strb	r2, [r3, #4]	@ tmp192, MEM[(volatile struct MCG_MemMap *)1074151424B].C5
 105:../../cpu/arm/mkl25z/./cpu.c **** 	MCG_C6 = 0x00;													
 228              		.loc 1 105 0
 229 00ba 0022     		mov	r2, #0	@ tmp195,
 230 00bc 5A71     		strb	r2, [r3, #5]	@ tmp195, MEM[(volatile struct MCG_MemMap *)1074151424B].C6
 106:../../cpu/arm/mkl25z/./cpu.c **** 	
 107:../../cpu/arm/mkl25z/./cpu.c **** 	while((MCG_S & MCG_S_IREFST_MASK) != 0x00) { 								/* Check that the source of the FLL reference
 231              		.loc 1 107 0
 232 00be 191C     		mov	r1, r3	@ tmp333, tmp176
 233 00c0 1022     		mov	r2, #16	@ tmp334,
 234              	.L10:
 235              		.loc 1 107 0 is_stmt 0 discriminator 1
ARM GAS  /tmp/cc9aNEDf.s 			page 7


 236 00c2 4B68     		ldr	r3, [r1, #4]	@ tmp198,
 237 00c4 1B0C     		lsr	r3, r3, #16	@ D.4832, tmp198,
 238 00c6 1342     		tst	r3, r2	@ D.4832, tmp334
 239 00c8 FBD1     		bne	.L10	@,
 108:../../cpu/arm/mkl25z/./cpu.c **** 	}
 109:../../cpu/arm/mkl25z/./cpu.c **** 	while((MCG_S & 0x0C) != 0x08) {    											/* Wait until external reference clock is selected a
 240              		.loc 1 109 0 is_stmt 1
 241 00ca 3C49     		ldr	r1, .L19+32	@ tmp331,
 242 00cc 0C22     		mov	r2, #12	@ tmp332,
 243              	.L12:
 244              		.loc 1 109 0 is_stmt 0 discriminator 1
 245 00ce 4B68     		ldr	r3, [r1, #4]	@ tmp208,
 246 00d0 1B0C     		lsr	r3, r3, #16	@ D.4832, tmp208,
 247 00d2 1340     		and	r3, r2	@ tmp215, tmp332
 248 00d4 082B     		cmp	r3, #8	@ tmp215,
 249 00d6 FAD1     		bne	.L12	@,
 110:../../cpu/arm/mkl25z/./cpu.c **** 	}
 111:../../cpu/arm/mkl25z/./cpu.c **** 	
 112:../../cpu/arm/mkl25z/./cpu.c **** 	/* Switch to PBE Mode */
 113:../../cpu/arm/mkl25z/./cpu.c **** 	OSC0_CR = OSC_CR_ERCLKEN_MASK;  											/* Enable External Reference Clock. */
 250              		.loc 1 113 0 is_stmt 1
 251 00d8 8022     		mov	r2, #128	@ tmp217,
 252 00da 374B     		ldr	r3, .L19+28	@ tmp216,
 253 00dc 1A70     		strb	r2, [r3]	@ tmp217, MEM[(volatile struct OSC_MemMap *)1074155520B].CR
 114:../../cpu/arm/mkl25z/./cpu.c **** 	MCG_C1 = (MCG_C1_CLKS(0x02) | MCG_C1_FRDIV(0x03) | MCG_C1_IRCLKEN_MASK); 	/* Select external Ref C
 254              		.loc 1 114 0
 255 00de 374B     		ldr	r3, .L19+32	@ tmp219,
 256 00e0 9A22     		mov	r2, #154	@ tmp220,
 257 00e2 1A70     		strb	r2, [r3]	@ tmp220, MEM[(volatile struct MCG_MemMap *)1074151424B].C1
 115:../../cpu/arm/mkl25z/./cpu.c **** 	MCG_C2 = (MCG_C2_RANGE0(0x02) | MCG_C2_EREFS0_MASK);						/* Set Freq range to VHF & enable 8MHz o
 258              		.loc 1 115 0
 259 00e4 2422     		mov	r2, #36	@ tmp223,
 260 00e6 5A70     		strb	r2, [r3, #1]	@ tmp223, MEM[(volatile struct MCG_MemMap *)1074151424B].C2
 116:../../cpu/arm/mkl25z/./cpu.c **** 	MCG_C5 = MCG_C5_PRDIV0(0x01);  												/* Set PLL Ext Ref Divider to divide factor of 2. */
 261              		.loc 1 116 0
 262 00e8 0122     		mov	r2, #1	@ tmp226,
 263 00ea 1A71     		strb	r2, [r3, #4]	@ tmp226, MEM[(volatile struct MCG_MemMap *)1074151424B].C5
 117:../../cpu/arm/mkl25z/./cpu.c **** 	MCG_C6 = MCG_C6_PLLS_MASK;													/* Select PLL. */
 264              		.loc 1 117 0
 265 00ec 4022     		mov	r2, #64	@ tmp229,
 266 00ee 5A71     		strb	r2, [r3, #5]	@ tmp229, MEM[(volatile struct MCG_MemMap *)1074151424B].C6
 118:../../cpu/arm/mkl25z/./cpu.c **** 	
 119:../../cpu/arm/mkl25z/./cpu.c **** 	while((MCG_S & 0x0CU) != 0x08U) {    										/* Wait until external reference clock is selected 
 267              		.loc 1 119 0
 268 00f0 191C     		mov	r1, r3	@ tmp329, tmp219
 269 00f2 0C22     		mov	r2, #12	@ tmp330,
 270              	.L14:
 271              		.loc 1 119 0 is_stmt 0 discriminator 1
 272 00f4 4B68     		ldr	r3, [r1, #4]	@ tmp232,
 273 00f6 1B0C     		lsr	r3, r3, #16	@ D.4832, tmp232,
 274 00f8 1340     		and	r3, r2	@ tmp239, tmp330
 275 00fa 082B     		cmp	r3, #8	@ tmp239,
 276 00fc FAD1     		bne	.L14	@,
 120:../../cpu/arm/mkl25z/./cpu.c **** 	}
 121:../../cpu/arm/mkl25z/./cpu.c **** 	while((MCG_S & MCG_S_LOCK0_MASK) == 0x00U) { 								/* Wait until locked */
 277              		.loc 1 121 0 is_stmt 1
 278 00fe 2F49     		ldr	r1, .L19+32	@ tmp327,
ARM GAS  /tmp/cc9aNEDf.s 			page 8


 279 0100 4022     		mov	r2, #64	@ tmp328,
 280              	.L16:
 281              		.loc 1 121 0 is_stmt 0 discriminator 1
 282 0102 4B68     		ldr	r3, [r1, #4]	@ tmp241,
 283 0104 1B0C     		lsr	r3, r3, #16	@ D.4832, tmp241,
 284 0106 1342     		tst	r3, r2	@ D.4832, tmp328
 285 0108 FBD0     		beq	.L16	@,
 122:../../cpu/arm/mkl25z/./cpu.c **** 	}
 123:../../cpu/arm/mkl25z/./cpu.c **** 	
 124:../../cpu/arm/mkl25z/./cpu.c **** 	/* Switch to PEE Mode */
 125:../../cpu/arm/mkl25z/./cpu.c **** 	OSC0_CR = OSC_CR_ERCLKEN_MASK; 												/* Enable External Reference Clock. */
 286              		.loc 1 125 0 is_stmt 1
 287 010a 8022     		mov	r2, #128	@ tmp251,
 288 010c 2A4B     		ldr	r3, .L19+28	@ tmp250,
 289 010e 1A70     		strb	r2, [r3]	@ tmp251, MEM[(volatile struct OSC_MemMap *)1074155520B].CR
 126:../../cpu/arm/mkl25z/./cpu.c **** 	
 127:../../cpu/arm/mkl25z/./cpu.c **** 	MCG_C1 = (MCG_C1_FRDIV(0x03) | MCG_C1_IRCLKEN_MASK); 						/* Select PLL as Clock Source, Divide F
 290              		.loc 1 127 0
 291 0110 2A4B     		ldr	r3, .L19+32	@ tmp253,
 292 0112 1A22     		mov	r2, #26	@ tmp254,
 293 0114 1A70     		strb	r2, [r3]	@ tmp254, MEM[(volatile struct MCG_MemMap *)1074151424B].C1
 128:../../cpu/arm/mkl25z/./cpu.c **** 	MCG_C2 = (MCG_C2_RANGE0(0x02) | MCG_C2_EREFS0_MASK);						/* Set Freq range to VHF & enable 8MHz o
 294              		.loc 1 128 0
 295 0116 2422     		mov	r2, #36	@ tmp257,
 296 0118 5A70     		strb	r2, [r3, #1]	@ tmp257, MEM[(volatile struct MCG_MemMap *)1074151424B].C2
 129:../../cpu/arm/mkl25z/./cpu.c **** 	MCG_C5 = MCG_C5_PRDIV0(0x01);  												/* Set PLL Ext Ref Divider to divide factor of 2. */
 297              		.loc 1 129 0
 298 011a 0122     		mov	r2, #1	@ tmp260,
 299 011c 1A71     		strb	r2, [r3, #4]	@ tmp260, MEM[(volatile struct MCG_MemMap *)1074151424B].C5
 130:../../cpu/arm/mkl25z/./cpu.c **** 	MCG_C6 = MCG_C6_PLLS_MASK;													/* Select PLL. */
 300              		.loc 1 130 0
 301 011e 4022     		mov	r2, #64	@ tmp263,
 302 0120 5A71     		strb	r2, [r3, #5]	@ tmp263, MEM[(volatile struct MCG_MemMap *)1074151424B].C6
 131:../../cpu/arm/mkl25z/./cpu.c **** 	while((MCG_S & 0x0CU) != 0x0CU) {   										/* Wait until output of the PLL is selected */
 303              		.loc 1 131 0
 304 0122 191C     		mov	r1, r3	@ tmp325, tmp253
 305 0124 0C22     		mov	r2, #12	@ tmp326,
 306              	.L18:
 307              		.loc 1 131 0 is_stmt 0 discriminator 1
 308 0126 4B68     		ldr	r3, [r1, #4]	@ tmp266,
 309 0128 1B0C     		lsr	r3, r3, #16	@ D.4832, tmp266,
 310 012a 1340     		and	r3, r2	@ tmp273, tmp326
 311 012c 0C2B     		cmp	r3, #12	@ tmp273,
 312 012e FAD1     		bne	.L18	@,
 132:../../cpu/arm/mkl25z/./cpu.c **** 	}
 133:../../cpu/arm/mkl25z/./cpu.c **** #endif
 134:../../cpu/arm/mkl25z/./cpu.c **** 
 135:../../cpu/arm/mkl25z/./cpu.c **** 	/* Setup the internal oscillator for MCGIRCLK. */
 136:../../cpu/arm/mkl25z/./cpu.c **** #if defined(OSCK32KSEL_RTCIN)	/* 32kHz internal "slow" oscillator with a link to RTC IN, or a 32K s
 137:../../cpu/arm/mkl25z/./cpu.c **** 	port_enable(PORTC_EN_MASK);									/* Enable Port C clock. */			
 138:../../cpu/arm/mkl25z/./cpu.c **** 	SIM_SOPT1 &= ~SIM_SOPT1_OSC32KSEL_MASK;						/* Clear RTC Clock Source. */
 139:../../cpu/arm/mkl25z/./cpu.c **** 	SIM_SOPT1 |= 0x00080000;									/* Set ERCLK32K source to RTC_CLKIN. Page 193. */
 140:../../cpu/arm/mkl25z/./cpu.c **** 	SIM_SOPT2 = (SIM_SOPT2 & ~SIM_SOPT2_CLKOUTSEL_MASK) | 0x80;	/* Set CLKOUTSEL to MCGIRCLK (32k inte
 141:../../cpu/arm/mkl25z/./cpu.c **** 	
 142:../../cpu/arm/mkl25z/./cpu.c **** 	PORTC_PCR1 = ((PORTC_PCR1 & ~0x01000600) | 0x0100);			/* Set PORTC_PCR1 as RTC_CLKIN, ISF=0,MUX=1.
 143:../../cpu/arm/mkl25z/./cpu.c **** 	PORTC_PCR3 = ((PORTC_PCR3 & ~0x01000200) | 0x0500);			/* Set PORTC_PCR3 as CLKOUT. ISF=0,MUX=5. */
 144:../../cpu/arm/mkl25z/./cpu.c **** 
ARM GAS  /tmp/cc9aNEDf.s 			page 9


 145:../../cpu/arm/mkl25z/./cpu.c **** #else	/* 1kHz internal low power oscillator. */
 146:../../cpu/arm/mkl25z/./cpu.c **** 	SIM_SOPT1 &= ~SIM_SOPT1_OSC32KSEL_MASK;						/* Set OSC32KSEL to LPO 1KHz so that LPTMR will work.
 313              		.loc 1 146 0 is_stmt 1
 314 0130 1A4B     		ldr	r3, .L19	@ tmp274,
 315 0132 1968     		ldr	r1, [r3]	@ D.4831, MEM[(volatile struct SIM_MemMap *)1074032640B].SOPT1
 316 0134 224A     		ldr	r2, .L19+36	@ tmp275,
 317 0136 0A40     		and	r2, r1	@ D.4831, D.4831
 318 0138 1A60     		str	r2, [r3]	@ D.4831, MEM[(volatile struct SIM_MemMap *)1074032640B].SOPT1
 147:../../cpu/arm/mkl25z/./cpu.c **** 	SIM_SOPT2 = (SIM_SOPT2 & ~SIM_SOPT2_CLKOUTSEL_MASK) | 0x70;	/* Set CLKOUTSEL to LPO Clock. */
 319              		.loc 1 147 0
 320 013a 1B4A     		ldr	r2, .L19+12	@ tmp278,
 321 013c 9958     		ldr	r1, [r3, r2]	@ D.4831, MEM[(volatile struct SIM_MemMap *)1074032640B].SOPT2
 322 013e F020     		mov	r0, #240	@ tmp280,
 323 0140 8143     		bic	r1, r0	@ D.4831, tmp280
 324 0142 7020     		mov	r0, #112	@ tmp281,
 325 0144 0143     		orr	r1, r0	@ D.4831, tmp281
 326 0146 9950     		str	r1, [r3, r2]	@ D.4831, MEM[(volatile struct SIM_MemMap *)1074032640B].SOPT2
 148:../../cpu/arm/mkl25z/./cpu.c **** #endif 
 149:../../cpu/arm/mkl25z/./cpu.c **** 	
 150:../../cpu/arm/mkl25z/./cpu.c **** 	/* Initialization of the RCM module */
 151:../../cpu/arm/mkl25z/./cpu.c **** 	RCM_RPFW &= ~0x1F;																	/* Set RCM_RPFW: Reset Pin Filter Width register. RSTFLTSEL=0. 
 327              		.loc 1 151 0
 328 0148 1E4B     		ldr	r3, .L19+40	@ tmp284,
 329 014a 5A68     		ldr	r2, [r3, #4]	@ tmp285,
 330 014c 1204     		lsl	r2, r2, #16	@ tmp287, tmp285,
 331 014e 120E     		lsr	r2, r2, #24	@ D.4832, tmp287,
 332 0150 1F21     		mov	r1, #31	@ tmp289,
 333 0152 8A43     		bic	r2, r1	@ D.4832, tmp289
 334 0154 5A71     		strb	r2, [r3, #5]	@ D.4832, MEM[(volatile struct RCM_MemMap *)1074262016B].RPFW
 152:../../cpu/arm/mkl25z/./cpu.c **** 	RCM_RPFC &= ~0x07;   																/* Set RCM_RPFC: Reset Pin Filter Control register. RSTFLTSS=
 335              		.loc 1 152 0
 336 0156 5968     		ldr	r1, [r3, #4]	@ tmp293,
 337 0158 F822     		mov	r2, #248	@ tmp295,
 338 015a 0A40     		and	r2, r1	@ D.4832, tmp293
 339 015c 1A71     		strb	r2, [r3, #4]	@ D.4832, MEM[(volatile struct RCM_MemMap *)1074262016B].RPFC
 153:../../cpu/arm/mkl25z/./cpu.c **** 	
 154:../../cpu/arm/mkl25z/./cpu.c **** 	/* Initialization of the PMC module */
 155:../../cpu/arm/mkl25z/./cpu.c **** 	PMC_LVDSC1 = (PMC_LVDSC1_LVDACK_MASK | PMC_LVDSC1_LVDRE_MASK);								/* Set PMC_LVDSC1: Clear LVD
 340              		.loc 1 155 0
 341 015e 1A4B     		ldr	r3, .L19+44	@ tmp298,
 342 0160 5022     		mov	r2, #80	@ tmp299,
 343 0162 1A70     		strb	r2, [r3]	@ tmp299, MEM[(volatile struct PMC_MemMap *)1074253824B].LVDSC1
 156:../../cpu/arm/mkl25z/./cpu.c **** 	PMC_LVDSC2 = (PMC_LVDSC2_LVWACK_MASK);														/* Set PMC_LVDSC2: Clear LVD warning flag. LVW
 344              		.loc 1 156 0
 345 0164 4022     		mov	r2, #64	@ tmp302,
 346 0166 5A70     		strb	r2, [r3, #1]	@ tmp302, MEM[(volatile struct PMC_MemMap *)1074253824B].LVDSC2
 157:../../cpu/arm/mkl25z/./cpu.c **** 	PMC_REGSC = (uint8_t)~(PMC_REGSC_BGEN_MASK | PMC_REGSC_ACKISO_MASK | PMC_REGSC_BGBE_MASK);	/* Set 
 347              		.loc 1 157 0
 348 0168 E622     		mov	r2, #230	@ tmp305,
 349 016a 9A70     		strb	r2, [r3, #2]	@ tmp305, MEM[(volatile struct PMC_MemMap *)1074253824B].REGSC
 158:../../cpu/arm/mkl25z/./cpu.c **** 	SMC_PMPROT = (uint8_t)(SMC_PMPROT_AVLLS_MASK | SMC_PMPROT_ALLS_MASK | SMC_PMPROT_AVLP_MASK);/* Set
 350              		.loc 1 158 0
 351 016c 2A22     		mov	r2, #42	@ tmp308,
 352 016e 174B     		ldr	r3, .L19+48	@ tmp307,
 353 0170 1A70     		strb	r2, [r3]	@ tmp308, MEM[(volatile struct SMC_MemMap *)1074257920B].PMPROT
 159:../../cpu/arm/mkl25z/./cpu.c **** 	
 160:../../cpu/arm/mkl25z/./cpu.c **** 	/* CPU Pin Allocations */
ARM GAS  /tmp/cc9aNEDf.s 			page 10


 161:../../cpu/arm/mkl25z/./cpu.c **** 	PORTA_PCR20 = (uint32_t)((PORTA_PCR20 & ~0x01000000) | 0x0700);								/* Set PORTA_PCR20 as Reset
 354              		.loc 1 161 0
 355 0172 0F4B     		ldr	r3, .L19+20	@ tmp310,
 356 0174 186D     		ldr	r0, [r3, #80]	@ D.4831, MEM[(volatile struct PORT_MemMap *)1074040832B].PCR
 357 0176 0F49     		ldr	r1, .L19+24	@ tmp312,
 358 0178 0840     		and	r0, r1	@ D.4831, tmp312
 359 017a E022     		mov	r2, #224	@ tmp335,
 360 017c D200     		lsl	r2, r2, #3	@ tmp313, tmp335,
 361 017e 1043     		orr	r0, r2	@ D.4831, tmp313
 362 0180 1865     		str	r0, [r3, #80]	@ D.4831, MEM[(volatile struct PORT_MemMap *)1074040832B].PCR
 162:../../cpu/arm/mkl25z/./cpu.c **** 	PORTA_PCR4 = (uint32_t)((PORTA_PCR4 & ~0x01000000) | 0x0700);								/* Set PORTA_PCR4 as NMI, ISF
 363              		.loc 1 162 0
 364 0182 1869     		ldr	r0, [r3, #16]	@ D.4831, MEM[(volatile struct PORT_MemMap *)1074040832B].PCR
 365 0184 0140     		and	r1, r0	@ D.4831, D.4831
 366 0186 0A43     		orr	r2, r1	@ D.4831, D.4831
 367 0188 1A61     		str	r2, [r3, #16]	@ D.4831, MEM[(volatile struct PORT_MemMap *)1074040832B].PCR
 163:../../cpu/arm/mkl25z/./cpu.c **** 	
 164:../../cpu/arm/mkl25z/./cpu.c **** 	NVIC_IPR1 &= (uint32_t)~0x00FF0000;          												/* Set NVIC_IPR1: Irq 4 to 7 Priority Reg
 368              		.loc 1 164 0
 369 018a 114A     		ldr	r2, .L19+52	@ tmp320,
 370 018c C123     		mov	r3, #193	@ tmp336,
 371 018e 9B00     		lsl	r3, r3, #2	@ tmp321, tmp336,
 372 0190 D058     		ldr	r0, [r2, r3]	@ D.4831, MEM[(volatile struct NVIC_MemMap *)3758153984B].IP
 373 0192 1049     		ldr	r1, .L19+56	@ tmp322,
 374 0194 0140     		and	r1, r0	@ D.4831, D.4831
 375 0196 D150     		str	r1, [r2, r3]	@ D.4831, MEM[(volatile struct NVIC_MemMap *)3758153984B].IP
 165:../../cpu/arm/mkl25z/./cpu.c ****             
 166:../../cpu/arm/mkl25z/./cpu.c **** 	/*lint -save  -e950 Disable MISRA rule (1.1) checking. */\
 167:../../cpu/arm/mkl25z/./cpu.c **** 		asm("CPSIE i");\
 376              		.loc 1 167 0
 377              	@ 167 "../../cpu/arm/mkl25z/./cpu.c" 1
 378 0198 62B6     		CPSIE i
 379              	@ 0 "" 2
 380              		.code	16
 381              		@ sp needed	@
 382 019a 08BD     		pop	{r3, pc}
 383              	.L20:
 384              		.align	2
 385              	.L19:
 386 019c 00700440 		.word	1074032640
 387 01a0 00000110 		.word	268500992
 388 01a4 44100000 		.word	4164
 389 01a8 04100000 		.word	4100
 390 01ac FFFFFFFC 		.word	-50331649
 391 01b0 00900440 		.word	1074040832
 392 01b4 FFF8FFFE 		.word	-16779009
 393 01b8 00500640 		.word	1074155520
 394 01bc 00400640 		.word	1074151424
 395 01c0 FFFFF3FF 		.word	-786433
 396 01c4 00F00740 		.word	1074262016
 397 01c8 00D00740 		.word	1074253824
 398 01cc 00E00740 		.word	1074257920
 399 01d0 00E100E0 		.word	-536813312
 400 01d4 FFFF00FF 		.word	-16711681
 401              		.cfi_endproc
 402              	.LFE1:
 403              		.size	cpu_init, .-cpu_init
ARM GAS  /tmp/cc9aNEDf.s 			page 11


 404              		.align	2
 405              		.global	cpu_run
 406              		.code	16
 407              		.thumb_func
 408              		.type	cpu_run, %function
 409              	cpu_run:
 410              	.LFB2:
 168:../../cpu/arm/mkl25z/./cpu.c **** 	/*lint -restore Enable MISRA rule (1.1) checking. */\
 169:../../cpu/arm/mkl25z/./cpu.c **** }
 170:../../cpu/arm/mkl25z/./cpu.c **** 
 171:../../cpu/arm/mkl25z/./cpu.c **** 
 172:../../cpu/arm/mkl25z/./cpu.c **** void cpu_run(void)							/* Place core into RUN mode. */
 173:../../cpu/arm/mkl25z/./cpu.c **** {
 411              		.loc 1 173 0
 412              		.cfi_startproc
 174:../../cpu/arm/mkl25z/./cpu.c **** 	SCB_SCR &= (uint32_t)~(SCB_SCR_SLEEPDEEP_MASK | SCB_SCR_SLEEPONEXIT_MASK);		/* Clear Sleep Deep ma
 413              		.loc 1 174 0
 414 01d8 034A     		ldr	r2, .L22	@ tmp112,
 415 01da D123     		mov	r3, #209	@ tmp117,
 416 01dc 1B01     		lsl	r3, r3, #4	@ tmp113, tmp117,
 417 01de D158     		ldr	r1, [r2, r3]	@ D.4834, MEM[(volatile struct SCB_MemMap *)3758153728B].SCR
 418 01e0 0620     		mov	r0, #6	@ tmp114,
 419 01e2 8143     		bic	r1, r0	@ D.4834, tmp114
 420 01e4 D150     		str	r1, [r2, r3]	@ D.4834, MEM[(volatile struct SCB_MemMap *)3758153728B].SCR
 175:../../cpu/arm/mkl25z/./cpu.c **** }
 421              		.loc 1 175 0
 422              		@ sp needed	@
 423 01e6 7047     		bx	lr
 424              	.L23:
 425              		.align	2
 426              	.L22:
 427 01e8 00E000E0 		.word	-536813568
 428              		.cfi_endproc
 429              	.LFE2:
 430              		.size	cpu_run, .-cpu_run
 431              		.align	2
 432              		.global	cpu_wait
 433              		.code	16
 434              		.thumb_func
 435              		.type	cpu_wait, %function
 436              	cpu_wait:
 437              	.LFB3:
 176:../../cpu/arm/mkl25z/./cpu.c **** 
 177:../../cpu/arm/mkl25z/./cpu.c **** void cpu_wait(void)							/* Place Core into WAIT mode (or VLPW if in VLPR). */
 178:../../cpu/arm/mkl25z/./cpu.c **** {
 438              		.loc 1 178 0
 439              		.cfi_startproc
 179:../../cpu/arm/mkl25z/./cpu.c **** 	SCB_SCR &= (uint32_t)~(SCB_SCR_SLEEPDEEP_MASK); 								/* Clear Sleep Deep mask so that WFI puts 
 440              		.loc 1 179 0
 441 01ec 074A     		ldr	r2, .L25	@ tmp114,
 442 01ee D123     		mov	r3, #209	@ tmp124,
 443 01f0 1B01     		lsl	r3, r3, #4	@ tmp115, tmp124,
 444 01f2 D158     		ldr	r1, [r2, r3]	@ D.4836, MEM[(volatile struct SCB_MemMap *)3758153728B].SCR
 445 01f4 0420     		mov	r0, #4	@ tmp116,
 446 01f6 8143     		bic	r1, r0	@ D.4836, tmp116
 447 01f8 D150     		str	r1, [r2, r3]	@ D.4836, MEM[(volatile struct SCB_MemMap *)3758153728B].SCR
 180:../../cpu/arm/mkl25z/./cpu.c **** 	SCB_SCR |= (uint32_t)SCB_SCR_SLEEPONEXIT_MASK; 									/* Set Sleep On Exit mask so that CPU retu
ARM GAS  /tmp/cc9aNEDf.s 			page 12


 448              		.loc 1 180 0
 449 01fa D058     		ldr	r0, [r2, r3]	@ D.4836, MEM[(volatile struct SCB_MemMap *)3758153728B].SCR
 450 01fc 0221     		mov	r1, #2	@ tmp121,
 451 01fe 0143     		orr	r1, r0	@ D.4836, D.4836
 452 0200 D150     		str	r1, [r2, r3]	@ D.4836, MEM[(volatile struct SCB_MemMap *)3758153728B].SCR
 181:../../cpu/arm/mkl25z/./cpu.c **** 	asm("DSB");																		/* DSB instruction to ensure effect of of previous writes.  See http:
 453              		.loc 1 181 0
 454              	@ 181 "../../cpu/arm/mkl25z/./cpu.c" 1
 455 0202 BFF34F8F 		DSB
 456              	@ 0 "" 2
 182:../../cpu/arm/mkl25z/./cpu.c **** 	asm("WFI");																		/* Enter sleep/wait. Page 141 to 143. */
 457              		.loc 1 182 0
 458              	@ 182 "../../cpu/arm/mkl25z/./cpu.c" 1
 459 0206 30BF     		WFI
 460              	@ 0 "" 2
 183:../../cpu/arm/mkl25z/./cpu.c **** }
 461              		.loc 1 183 0
 462              		.code	16
 463              		@ sp needed	@
 464 0208 7047     		bx	lr
 465              	.L26:
 466 020a C046     		.align	2
 467              	.L25:
 468 020c 00E000E0 		.word	-536813568
 469              		.cfi_endproc
 470              	.LFE3:
 471              		.size	cpu_wait, .-cpu_wait
 472              		.align	2
 473              		.global	cpu_stop
 474              		.code	16
 475              		.thumb_func
 476              		.type	cpu_stop, %function
 477              	cpu_stop:
 478              	.LFB4:
 184:../../cpu/arm/mkl25z/./cpu.c **** 
 185:../../cpu/arm/mkl25z/./cpu.c **** void cpu_stop(Type_StopMode StopMode)		/* Place core into one of the STOP modes. Similar to ARM Dee
 186:../../cpu/arm/mkl25z/./cpu.c **** {
 479              		.loc 1 186 0
 480              		.cfi_startproc
 481              	.LVL3:
 482 0210 10B5     		push	{r4, lr}	@
 483              	.LCFI2:
 484              		.cfi_def_cfa_offset 8
 485              		.cfi_offset 4, -8
 486              		.cfi_offset 14, -4
 187:../../cpu/arm/mkl25z/./cpu.c **** 	/* Clear Low Leakage Wakeup Unit flags */
 188:../../cpu/arm/mkl25z/./cpu.c **** 	LLWU_F1 = (uint8_t)0xFF;														/* CLear LLWU_F1: Write 1 to all bits. Page 255. */
 487              		.loc 1 188 0
 488 0212 534B     		ldr	r3, .L39	@ tmp160,
 489 0214 FF22     		mov	r2, #255	@ tmp161,
 490 0216 5A71     		strb	r2, [r3, #5]	@ tmp161, MEM[(volatile struct LLWU_MemMap *)1074249728B].F1
 189:../../cpu/arm/mkl25z/./cpu.c **** 	LLWU_F2 = (uint8_t)0xFF;														/* CLear LLWU_F2: Write 1 to all bits. Page 257. */
 491              		.loc 1 189 0
 492 0218 9A71     		strb	r2, [r3, #6]	@ tmp161, MEM[(volatile struct LLWU_MemMap *)1074249728B].F2
 190:../../cpu/arm/mkl25z/./cpu.c **** 	LLWU_F3 = (uint8_t)0xFF;														/* CLear LLWU_F3: Write 1 to all bits. Page 258. */
 493              		.loc 1 190 0
 494 021a DA71     		strb	r2, [r3, #7]	@ tmp161, MEM[(volatile struct LLWU_MemMap *)1074249728B].F3
ARM GAS  /tmp/cc9aNEDf.s 			page 13


 191:../../cpu/arm/mkl25z/./cpu.c **** 	LLWU_FILT1 |= LLWU_FILT1_FILTF_MASK;											/* Clear LLWU_FILT1: Write 1 to FILTF bit. Page 260
 495              		.loc 1 191 0
 496 021c 9968     		ldr	r1, [r3, #8]	@ tmp170,
 497 021e C9B2     		uxtb	r1, r1	@ D.4838, tmp170
 498 0220 8022     		mov	r2, #128	@ tmp370,
 499 0222 5242     		neg	r2, r2	@ tmp172, tmp370
 500 0224 1143     		orr	r1, r2	@ tmp171, tmp172
 501 0226 C9B2     		uxtb	r1, r1	@ D.4838, tmp171
 502 0228 1972     		strb	r1, [r3, #8]	@ D.4838, MEM[(volatile struct LLWU_MemMap *)1074249728B].FILT1
 192:../../cpu/arm/mkl25z/./cpu.c **** 	LLWU_FILT2 |= LLWU_FILT2_FILTF_MASK;											/* Clear LLWU_FILT2: Write 1 to FILTF bit. Page 261
 503              		.loc 1 192 0
 504 022a 9968     		ldr	r1, [r3, #8]	@ tmp176,
 505 022c 0904     		lsl	r1, r1, #16	@ tmp178, tmp176,
 506 022e 090E     		lsr	r1, r1, #24	@ D.4838, tmp178,
 507 0230 0A43     		orr	r2, r1	@ tmp179, D.4838
 508 0232 D2B2     		uxtb	r2, r2	@ D.4838, tmp179
 509 0234 5A72     		strb	r2, [r3, #9]	@ D.4838, MEM[(volatile struct LLWU_MemMap *)1074249728B].FILT2
 193:../../cpu/arm/mkl25z/./cpu.c **** 		
 194:../../cpu/arm/mkl25z/./cpu.c **** 	SCB_SCR |= (uint32_t)(SCB_SCR_SLEEPDEEP_MASK); 									/* Set Sleep Deep mask so that WFI puts CP
 510              		.loc 1 194 0
 511 0236 4B4A     		ldr	r2, .L39+4	@ tmp183,
 512 0238 D123     		mov	r3, #209	@ tmp371,
 513 023a 1B01     		lsl	r3, r3, #4	@ tmp184, tmp371,
 514 023c D458     		ldr	r4, [r2, r3]	@ D.4839, MEM[(volatile struct SCB_MemMap *)3758153728B].SCR
 515 023e 0421     		mov	r1, #4	@ tmp185,
 516 0240 2143     		orr	r1, r4	@ D.4839, D.4839
 517 0242 D150     		str	r1, [r2, r3]	@ D.4839, MEM[(volatile struct SCB_MemMap *)3758153728B].SCR
 195:../../cpu/arm/mkl25z/./cpu.c **** 	
 196:../../cpu/arm/mkl25z/./cpu.c **** 	switch(StopMode) {																/* Set the stop mode */
 518              		.loc 1 196 0
 519 0244 0728     		cmp	r0, #7	@ StopMode,
 520 0246 77D8     		bhi	.L28	@,
 521 0248 8000     		lsl	r0, r0, #2	@ tmp188, StopMode,
 522              	.LVL4:
 523 024a 474B     		ldr	r3, .L39+8	@ tmp190,
 524 024c 1B58     		ldr	r3, [r3, r0]	@ tmp191,
 525 024e 9F46     		mov	pc, r3	@ tmp191
 526              		.section	.rodata
 527              		.align	2
 528              	.L30:
 529 0000 50020000 		.word	.L29
 530 0004 68020000 		.word	.L31
 531 0008 84020000 		.word	.L32
 532 000c B4020000 		.word	.L33
 533 0010 A0020000 		.word	.L34
 534 0014 C8020000 		.word	.L35
 535 0018 F0020000 		.word	.L36
 536 001c 14030000 		.word	.L37
 537              		.text
 538              	.L29:
 197:../../cpu/arm/mkl25z/./cpu.c **** 		case Mode_Stop:	
 198:../../cpu/arm/mkl25z/./cpu.c **** 							SMC_PMCTRL = (uint8_t)((SMC_PMCTRL & ~SMC_PMCTRL_STOPM_MASK) | 0x00);			/* Set SMC_PMCTRL: N
 539              		.loc 1 198 0
 540 0250 464B     		ldr	r3, .L39+12	@ tmp192,
 541 0252 1A68     		ldr	r2, [r3]	@ tmp193,
 542 0254 1204     		lsl	r2, r2, #16	@ tmp195, tmp193,
 543 0256 120E     		lsr	r2, r2, #24	@ D.4838, tmp195,
ARM GAS  /tmp/cc9aNEDf.s 			page 14


 544 0258 0721     		mov	r1, #7	@ tmp197,
 545 025a 8A43     		bic	r2, r1	@ D.4838, tmp197
 546 025c 5A70     		strb	r2, [r3, #1]	@ D.4838, MEM[(volatile struct SMC_MemMap *)1074257920B].PMCTRL
 199:../../cpu/arm/mkl25z/./cpu.c **** 							SMC_STOPCTRL = (uint8_t)((SMC_STOPCTRL & ~SMC_STOPCTRL_PSTOPO_MASK) | 0x00);	/* Set SMC_STOP
 547              		.loc 1 199 0
 548 025e 1A68     		ldr	r2, [r3]	@ tmp201,
 549 0260 9202     		lsl	r2, r2, #10	@ tmp207, tmp201,
 550 0262 920E     		lsr	r2, r2, #26	@ D.4838, tmp207,
 551 0264 9A70     		strb	r2, [r3, #2]	@ D.4838, MEM[(volatile struct SMC_MemMap *)1074257920B].STOPCTRL
 200:../../cpu/arm/mkl25z/./cpu.c **** 							break;
 552              		.loc 1 200 0
 553 0266 6EE0     		b	.L38	@
 554              	.L31:
 201:../../cpu/arm/mkl25z/./cpu.c **** 		
 202:../../cpu/arm/mkl25z/./cpu.c **** 		case Mode_PStop1:	
 203:../../cpu/arm/mkl25z/./cpu.c **** 							SMC_PMCTRL = (uint8_t)((SMC_PMCTRL & ~SMC_PMCTRL_STOPM_MASK) | 0x00);			/* Set SMC_PMCTRL: N
 555              		.loc 1 203 0
 556 0268 404B     		ldr	r3, .L39+12	@ tmp210,
 557 026a 1A68     		ldr	r2, [r3]	@ tmp211,
 558 026c 1204     		lsl	r2, r2, #16	@ tmp213, tmp211,
 559 026e 120E     		lsr	r2, r2, #24	@ D.4838, tmp213,
 560 0270 0721     		mov	r1, #7	@ tmp215,
 561 0272 8A43     		bic	r2, r1	@ D.4838, tmp215
 562 0274 5A70     		strb	r2, [r3, #1]	@ D.4838, MEM[(volatile struct SMC_MemMap *)1074257920B].PMCTRL
 204:../../cpu/arm/mkl25z/./cpu.c **** 							SMC_STOPCTRL = (uint8_t)((SMC_STOPCTRL & ~SMC_STOPCTRL_PSTOPO_MASK) | 0x40);	/* Set SMC_STOP
 563              		.loc 1 204 0
 564 0276 1A68     		ldr	r2, [r3]	@ tmp219,
 565 0278 9202     		lsl	r2, r2, #10	@ tmp225, tmp219,
 566 027a 920E     		lsr	r2, r2, #26	@ tmp224, tmp225,
 567 027c 4021     		mov	r1, #64	@ tmp229,
 568 027e 0A43     		orr	r2, r1	@ D.4838, tmp229
 569 0280 9A70     		strb	r2, [r3, #2]	@ D.4838, MEM[(volatile struct SMC_MemMap *)1074257920B].STOPCTRL
 205:../../cpu/arm/mkl25z/./cpu.c **** 							break;
 570              		.loc 1 205 0
 571 0282 60E0     		b	.L38	@
 572              	.L32:
 206:../../cpu/arm/mkl25z/./cpu.c **** 			
 207:../../cpu/arm/mkl25z/./cpu.c **** 		case Mode_PStop2:	
 208:../../cpu/arm/mkl25z/./cpu.c **** 							SMC_PMCTRL = (uint8_t)((SMC_PMCTRL & ~SMC_PMCTRL_STOPM_MASK) | 0x00);			/* Set SMC_PMCTRL: N
 573              		.loc 1 208 0
 574 0284 394B     		ldr	r3, .L39+12	@ tmp232,
 575 0286 1A68     		ldr	r2, [r3]	@ tmp233,
 576 0288 1204     		lsl	r2, r2, #16	@ tmp235, tmp233,
 577 028a 120E     		lsr	r2, r2, #24	@ D.4838, tmp235,
 578 028c 0721     		mov	r1, #7	@ tmp237,
 579 028e 8A43     		bic	r2, r1	@ D.4838, tmp237
 580 0290 5A70     		strb	r2, [r3, #1]	@ D.4838, MEM[(volatile struct SMC_MemMap *)1074257920B].PMCTRL
 209:../../cpu/arm/mkl25z/./cpu.c **** 							SMC_STOPCTRL = (uint8_t)((SMC_STOPCTRL & ~SMC_STOPCTRL_PSTOPO_MASK) | 0x80);	/* Set SMC_STOP
 581              		.loc 1 209 0
 582 0292 1A68     		ldr	r2, [r3]	@ tmp241,
 583 0294 9202     		lsl	r2, r2, #10	@ tmp247, tmp241,
 584 0296 920E     		lsr	r2, r2, #26	@ tmp246, tmp247,
 585 0298 8021     		mov	r1, #128	@ tmp249,
 586 029a 0A43     		orr	r2, r1	@ D.4838, tmp249
 587 029c 9A70     		strb	r2, [r3, #2]	@ D.4838, MEM[(volatile struct SMC_MemMap *)1074257920B].STOPCTRL
 210:../../cpu/arm/mkl25z/./cpu.c **** 							break;
 588              		.loc 1 210 0
ARM GAS  /tmp/cc9aNEDf.s 			page 15


 589 029e 52E0     		b	.L38	@
 590              	.L34:
 211:../../cpu/arm/mkl25z/./cpu.c **** 			
 212:../../cpu/arm/mkl25z/./cpu.c **** 		case Mode_VLPS:	
 213:../../cpu/arm/mkl25z/./cpu.c **** 							SMC_PMCTRL = (uint8_t)((SMC_PMCTRL & ~SMC_PMCTRL_STOPM_MASK) | 0x02);			/* Set SMC_PMCTRL: V
 591              		.loc 1 213 0
 592 02a0 324B     		ldr	r3, .L39+12	@ tmp253,
 593 02a2 1A68     		ldr	r2, [r3]	@ tmp254,
 594 02a4 1204     		lsl	r2, r2, #16	@ tmp256, tmp254,
 595 02a6 120E     		lsr	r2, r2, #24	@ D.4838, tmp256,
 596 02a8 0721     		mov	r1, #7	@ tmp258,
 597 02aa 8A43     		bic	r2, r1	@ tmp257, tmp258
 598 02ac 0221     		mov	r1, #2	@ tmp262,
 599 02ae 0A43     		orr	r2, r1	@ D.4838, tmp262
 600 02b0 5A70     		strb	r2, [r3, #1]	@ D.4838, MEM[(volatile struct SMC_MemMap *)1074257920B].PMCTRL
 214:../../cpu/arm/mkl25z/./cpu.c **** 							break;
 601              		.loc 1 214 0
 602 02b2 48E0     		b	.L38	@
 603              	.L33:
 215:../../cpu/arm/mkl25z/./cpu.c **** 						
 216:../../cpu/arm/mkl25z/./cpu.c **** 		case Mode_LLS:	
 217:../../cpu/arm/mkl25z/./cpu.c **** 							SMC_PMCTRL = (uint8_t)((SMC_PMCTRL & ~SMC_PMCTRL_STOPM_MASK) | 0x03);			/* Set SMC_PMCTRL: L
 604              		.loc 1 217 0
 605 02b4 2D4B     		ldr	r3, .L39+12	@ tmp265,
 606 02b6 1A68     		ldr	r2, [r3]	@ tmp266,
 607 02b8 1204     		lsl	r2, r2, #16	@ tmp268, tmp266,
 608 02ba 120E     		lsr	r2, r2, #24	@ D.4838, tmp268,
 609 02bc 0721     		mov	r1, #7	@ tmp270,
 610 02be 8A43     		bic	r2, r1	@ tmp269, tmp270
 611 02c0 0321     		mov	r1, #3	@ tmp274,
 612 02c2 0A43     		orr	r2, r1	@ D.4838, tmp274
 613 02c4 5A70     		strb	r2, [r3, #1]	@ D.4838, MEM[(volatile struct SMC_MemMap *)1074257920B].PMCTRL
 218:../../cpu/arm/mkl25z/./cpu.c **** 							break;
 614              		.loc 1 218 0
 615 02c6 3EE0     		b	.L38	@
 616              	.L35:
 219:../../cpu/arm/mkl25z/./cpu.c **** 						
 220:../../cpu/arm/mkl25z/./cpu.c **** 		case Mode_VLLS0:	
 221:../../cpu/arm/mkl25z/./cpu.c **** 							SMC_PMCTRL = (uint8_t)((SMC_PMCTRL & ~SMC_PMCTRL_STOPM_MASK) | 0x04);			/* Set SMC_PMCTRL: V
 617              		.loc 1 221 0
 618 02c8 284B     		ldr	r3, .L39+12	@ tmp277,
 619 02ca 1A68     		ldr	r2, [r3]	@ tmp278,
 620 02cc 1204     		lsl	r2, r2, #16	@ tmp280, tmp278,
 621 02ce 120E     		lsr	r2, r2, #24	@ D.4838, tmp280,
 622 02d0 0721     		mov	r1, #7	@ tmp282,
 623 02d2 8A43     		bic	r2, r1	@ tmp281, tmp282
 624 02d4 0421     		mov	r1, #4	@ tmp286,
 625 02d6 0A43     		orr	r2, r1	@ D.4838, tmp286
 626 02d8 5A70     		strb	r2, [r3, #1]	@ D.4838, MEM[(volatile struct SMC_MemMap *)1074257920B].PMCTRL
 222:../../cpu/arm/mkl25z/./cpu.c **** 							SMC_STOPCTRL = (uint8_t)((SMC_STOPCTRL & ~SMC_STOPCTRL_VLLSM_MASK) | 0x40);		/* Set SMC_STOP
 627              		.loc 1 222 0
 628 02da 1A68     		ldr	r2, [r3]	@ tmp290,
 629 02dc 1202     		lsl	r2, r2, #8	@ tmp292, tmp290,
 630 02de 120E     		lsr	r2, r2, #24	@ D.4838, tmp292,
 631 02e0 4721     		mov	r1, #71	@ tmp294,
 632 02e2 8A43     		bic	r2, r1	@ tmp293, tmp294
 633 02e4 4021     		mov	r1, #64	@ tmp298,
ARM GAS  /tmp/cc9aNEDf.s 			page 16


 634 02e6 0A43     		orr	r2, r1	@ D.4838, tmp298
 635 02e8 9A70     		strb	r2, [r3, #2]	@ D.4838, MEM[(volatile struct SMC_MemMap *)1074257920B].STOPCTRL
 223:../../cpu/arm/mkl25z/./cpu.c **** 							SMC_STOPCTRL = SMC_STOPCTRL_PORPO_MASK;											/* Set SMC_STOPCTRL: Disable POR in VLLS0.
 636              		.loc 1 223 0
 637 02ea 2022     		mov	r2, #32	@ tmp302,
 638 02ec 9A70     		strb	r2, [r3, #2]	@ tmp302, MEM[(volatile struct SMC_MemMap *)1074257920B].STOPCTRL
 224:../../cpu/arm/mkl25z/./cpu.c **** 							break;
 639              		.loc 1 224 0
 640 02ee 2AE0     		b	.L38	@
 641              	.L36:
 225:../../cpu/arm/mkl25z/./cpu.c **** 						
 226:../../cpu/arm/mkl25z/./cpu.c **** 		case Mode_VLLS1:	
 227:../../cpu/arm/mkl25z/./cpu.c **** 							SMC_PMCTRL = (uint8_t)((SMC_PMCTRL & ~SMC_PMCTRL_STOPM_MASK) | 0x04);			/* Set SMC_PMCTRL: V
 642              		.loc 1 227 0
 643 02f0 1E4B     		ldr	r3, .L39+12	@ tmp304,
 644 02f2 1968     		ldr	r1, [r3]	@ tmp305,
 645 02f4 0904     		lsl	r1, r1, #16	@ tmp307, tmp305,
 646 02f6 090E     		lsr	r1, r1, #24	@ D.4838, tmp307,
 647 02f8 0722     		mov	r2, #7	@ tmp309,
 648 02fa 9143     		bic	r1, r2	@ tmp308, tmp309
 649 02fc 0420     		mov	r0, #4	@ tmp313,
 650 02fe 0143     		orr	r1, r0	@ D.4838, tmp313
 651 0300 5970     		strb	r1, [r3, #1]	@ D.4838, MEM[(volatile struct SMC_MemMap *)1074257920B].PMCTRL
 228:../../cpu/arm/mkl25z/./cpu.c **** 							SMC_STOPCTRL = (uint8_t)((SMC_STOPCTRL & ~SMC_STOPCTRL_VLLSM_MASK) | 0x01);		/* Set SMC_STOP
 652              		.loc 1 228 0
 653 0302 1968     		ldr	r1, [r3]	@ tmp317,
 654 0304 0902     		lsl	r1, r1, #8	@ tmp319, tmp317,
 655 0306 090E     		lsr	r1, r1, #24	@ D.4838, tmp319,
 656 0308 9143     		bic	r1, r2	@ D.4838, tmp309
 657 030a 0A1C     		mov	r2, r1	@ tmp320, D.4838
 658 030c 0121     		mov	r1, #1	@ tmp325,
 659 030e 0A43     		orr	r2, r1	@ D.4838, tmp325
 660 0310 9A70     		strb	r2, [r3, #2]	@ D.4838, MEM[(volatile struct SMC_MemMap *)1074257920B].STOPCTRL
 229:../../cpu/arm/mkl25z/./cpu.c **** 							break;
 661              		.loc 1 229 0
 662 0312 18E0     		b	.L38	@
 663              	.L37:
 230:../../cpu/arm/mkl25z/./cpu.c **** 						
 231:../../cpu/arm/mkl25z/./cpu.c **** 		case Mode_VLLS3:	
 232:../../cpu/arm/mkl25z/./cpu.c **** 							SMC_PMCTRL = (uint8_t)((SMC_PMCTRL & ~SMC_PMCTRL_STOPM_MASK) | 0x04);			/* Set SMC_PMCTRL: V
 664              		.loc 1 232 0
 665 0314 154B     		ldr	r3, .L39+12	@ tmp328,
 666 0316 1968     		ldr	r1, [r3]	@ tmp329,
 667 0318 0904     		lsl	r1, r1, #16	@ tmp331, tmp329,
 668 031a 090E     		lsr	r1, r1, #24	@ D.4838, tmp331,
 669 031c 0722     		mov	r2, #7	@ tmp333,
 670 031e 9143     		bic	r1, r2	@ tmp332, tmp333
 671 0320 0420     		mov	r0, #4	@ tmp337,
 672 0322 0143     		orr	r1, r0	@ D.4838, tmp337
 673 0324 5970     		strb	r1, [r3, #1]	@ D.4838, MEM[(volatile struct SMC_MemMap *)1074257920B].PMCTRL
 233:../../cpu/arm/mkl25z/./cpu.c **** 							SMC_STOPCTRL = (uint8_t)((SMC_STOPCTRL & ~SMC_STOPCTRL_VLLSM_MASK) | 0x03);		/* Set SMC_STOP
 674              		.loc 1 233 0
 675 0326 1968     		ldr	r1, [r3]	@ tmp341,
 676 0328 0902     		lsl	r1, r1, #8	@ tmp343, tmp341,
 677 032a 090E     		lsr	r1, r1, #24	@ D.4838, tmp343,
 678 032c 9143     		bic	r1, r2	@ D.4838, tmp333
 679 032e 0A1C     		mov	r2, r1	@ tmp344, D.4838
ARM GAS  /tmp/cc9aNEDf.s 			page 17


 680 0330 0321     		mov	r1, #3	@ tmp349,
 681 0332 0A43     		orr	r2, r1	@ D.4838, tmp349
 682 0334 9A70     		strb	r2, [r3, #2]	@ D.4838, MEM[(volatile struct SMC_MemMap *)1074257920B].STOPCTRL
 234:../../cpu/arm/mkl25z/./cpu.c **** 							break;
 683              		.loc 1 234 0
 684 0336 06E0     		b	.L38	@
 685              	.LVL5:
 686              	.L28:
 235:../../cpu/arm/mkl25z/./cpu.c **** 		
 236:../../cpu/arm/mkl25z/./cpu.c **** 		default:			SMC_PMCTRL = (uint8_t)((SMC_PMCTRL & ~SMC_PMCTRL_STOPM_MASK) | 0x00);			/* Default to 
 687              		.loc 1 236 0
 688 0338 0C4B     		ldr	r3, .L39+12	@ tmp352,
 689 033a 1A68     		ldr	r2, [r3]	@ tmp353,
 690 033c 1204     		lsl	r2, r2, #16	@ tmp355, tmp353,
 691 033e 120E     		lsr	r2, r2, #24	@ D.4838, tmp355,
 692 0340 0721     		mov	r1, #7	@ tmp357,
 693 0342 8A43     		bic	r2, r1	@ D.4838, tmp357
 694 0344 5A70     		strb	r2, [r3, #1]	@ D.4838, MEM[(volatile struct SMC_MemMap *)1074257920B].PMCTRL
 695              	.LVL6:
 696              	.L38:
 237:../../cpu/arm/mkl25z/./cpu.c **** 	}
 238:../../cpu/arm/mkl25z/./cpu.c **** 	
 239:../../cpu/arm/mkl25z/./cpu.c **** 	SCB_SCR &= (uint32_t)~(SCB_SCR_SLEEPONEXIT_MASK);								/* Clear Sleep On Exit mask so that CPU d
 697              		.loc 1 239 0
 698 0346 074A     		ldr	r2, .L39+4	@ tmp360,
 699 0348 D123     		mov	r3, #209	@ tmp369,
 700 034a 1B01     		lsl	r3, r3, #4	@ tmp361, tmp369,
 701 034c D158     		ldr	r1, [r2, r3]	@ D.4839, MEM[(volatile struct SCB_MemMap *)3758153728B].SCR
 702 034e 0220     		mov	r0, #2	@ tmp362,
 703 0350 8143     		bic	r1, r0	@ D.4839, tmp362
 704 0352 D150     		str	r1, [r2, r3]	@ D.4839, MEM[(volatile struct SCB_MemMap *)3758153728B].SCR
 240:../../cpu/arm/mkl25z/./cpu.c **** 	//SCB_SCR |= (uint32_t)SCB_SCR_SLEEPONEXIT_MASK; 									/* Set Sleep On Exit mask so that CPU re
 241:../../cpu/arm/mkl25z/./cpu.c **** 	(void)(SMC_PMCTRL == 0);        												/* Dummy read of SMC_PMCTRL to ensure the register is 
 705              		.loc 1 241 0
 706 0354 054B     		ldr	r3, .L39+12	@ tmp365,
 707 0356 1B68     		ldr	r3, [r3]	@ tmp366,
 242:../../cpu/arm/mkl25z/./cpu.c **** 	asm("DSB");																		/* DSB instruction to ensure effect of of previous writes.  See http:
 708              		.loc 1 242 0
 709              	@ 242 "../../cpu/arm/mkl25z/./cpu.c" 1
 710 0358 BFF34F8F 		DSB
 711              	@ 0 "" 2
 243:../../cpu/arm/mkl25z/./cpu.c **** 	asm("WFI");																		/* Enter sleep/wait. Page 141 to 143. */
 712              		.loc 1 243 0
 713              	@ 243 "../../cpu/arm/mkl25z/./cpu.c" 1
 714 035c 30BF     		WFI
 715              	@ 0 "" 2
 244:../../cpu/arm/mkl25z/./cpu.c **** }
 716              		.loc 1 244 0
 717              		.code	16
 718              		@ sp needed	@
 719 035e 10BD     		pop	{r4, pc}
 720              	.L40:
 721              		.align	2
 722              	.L39:
 723 0360 00C00740 		.word	1074249728
 724 0364 00E000E0 		.word	-536813568
 725 0368 00000000 		.word	.L30
ARM GAS  /tmp/cc9aNEDf.s 			page 18


 726 036c 00E00740 		.word	1074257920
 727              		.cfi_endproc
 728              	.LFE4:
 729              		.size	cpu_stop, .-cpu_stop
 730              		.align	2
 731              		.global	NMI_Handler
 732              		.code	16
 733              		.thumb_func
 734              		.type	NMI_Handler, %function
 735              	NMI_Handler:
 736              	.LFB5:
 245:../../cpu/arm/mkl25z/./cpu.c **** 
 246:../../cpu/arm/mkl25z/./cpu.c **** 
 247:../../cpu/arm/mkl25z/./cpu.c **** void NMI_Handler(void)		/* NMI Interrupt Handler.  Required as NMI fires during init and default ca
 248:../../cpu/arm/mkl25z/./cpu.c **** {
 737              		.loc 1 248 0
 738              		.cfi_startproc
 249:../../cpu/arm/mkl25z/./cpu.c **** 	;
 250:../../cpu/arm/mkl25z/./cpu.c **** }
 739              		.loc 1 250 0
 740              		@ sp needed	@
 741 0370 7047     		bx	lr
 742              		.cfi_endproc
 743              	.LFE5:
 744              		.size	NMI_Handler, .-NMI_Handler
 745              	.Letext0:
 746              		.file 2 "/home/glacsweb/arm-gcc/ARM_GCC_Support/ewl/EWL_C/include/cstdint"
 747              		.file 3 "../../cpu/arm/mkl25z/MKL25Z4.h"
 748              		.file 4 "../../cpu/arm/mkl25z/./cpu.h"