ARM GAS  /tmp/cc9aNEDf.s 			page 1


   1              		.cpu cortex-m0plus
   2              		.fpu softvfp
   3              		.eabi_attribute 20, 1	@ Tag_ABI_FP_denormal
   4              		.eabi_attribute 21, 1	@ Tag_ABI_FP_exceptions
   5              		.eabi_attribute 23, 3	@ Tag_ABI_FP_number_model
   6              		.eabi_attribute 24, 1	@ Tag_ABI_align8_needed
   7              		.eabi_attribute 25, 1	@ Tag_ABI_align8_preserved
   8              		.eabi_attribute 26, 1	@ Tag_ABI_enum_size
   9              		.eabi_attribute 30, 1	@ Tag_ABI_optimization_goals
  10              		.eabi_attribute 34, 0	@ Tag_CPU_unaligned_access
  11              		.eabi_attribute 18, 4	@ Tag_ABI_PCS_wchar_t
  12              		.file	"cpu.c"
  13              	@ GNU C (GNU Tools for ARM Embedded Processors) version 4.8.3 20131129 (release) [ARM/embedded-4_8-
  14              	@	compiled by GNU C version 4.6.3, GMP version 4.3.2, MPFR version 2.4.2, MPC version 0.8.1
  15              	@ GGC heuristics: --param ggc-min-expand=100 --param ggc-min-heapsize=131072
  16              	@ options passed:  -I . -I ../../cpu/arm/mkl25z
  17              	@ -I ../../cpu/arm/mkl25z/loader -I ../../cpu/arm/mkl25z/dbg-io
  18              	@ -I ../../dev -I ../../platform/frdm-kl25z-rf
  19              	@ -I /home/glacsweb/arm-gcc/ARM_GCC_Support/ewl/EWL_C/include
  20              	@ -I /home/glacsweb/arm-gcc/ARM_GCC_Support/ewl/EWL_Runtime/include
  21              	@ -I /home/glacsweb/arm-gcc/lib/gcc/arm-none-eabi/4.8.3/include
  22              	@ -I /home/glacsweb/arm-gcc/lib/gcc/arm-none-eabi/4.8.3/include-fixed
  23              	@ -I /home/glacsweb/arm-gcc/arm-none-eabi/include -I ../../dev/cc1120 -I .
  24              	@ -I ../../platform/frdm-kl25z-rf/. -I ../../platform/frdm-kl25z-rf/dev
  25              	@ -I ../../platform/frdm-kl25z-rf/apps -I ../../platform/frdm-kl25z-rf/net
  26              	@ -I ../../platform/frdm-kl25z-rf/../../dev/cc1120
  27              	@ -I ../../platform/frdm-kl25z-rf/../../core/net -I ../../cpu/arm/mkl25z/.
  28              	@ -I ../../cpu/arm/mkl25z/../common/dbg-io -I ../../cpu/arm/mkl25z/loader
  29              	@ -I ../../core/dev -I ../../core/lib -I ../../core/net
  30              	@ -I ../../core/net/mac -I ../../core/net/rime -I ../../core/net/rpl
  31              	@ -I ../../core/sys -I ../../core/cfs -I ../../core/ctk
  32              	@ -I ../../core/lib/ctk -I ../../core/loader -I ../../core/.
  33              	@ -I ../../platform/frdm-kl25z-rf/ -imultilib armv6-m
  34              	@ -iprefix /home/glacsweb/arm-gcc/bin/../lib/gcc/arm-none-eabi/4.8.3/
  35              	@ -isysroot /home/glacsweb/arm-gcc/bin/../arm-none-eabi -D__USES_INITFINI__
  36              	@ -D CONTIKI=1 -D CONTIKI_TARGET_FRDM_KL25Z_RF=1 -D WITH_UIP=1
  37              	@ -D MCK=48000000 -D AUTOSTART_ENABLE -D CC11xx_CC1120=1 -D RUN_AS_SYSTEM
  38              	@ -D ROM_RUN -D __SDCC
  39              	@ -D CONTIKI_VERSION_STRING="Contiki-KL25Z-Port-18-g5a8e189"
  40              	@ ../../cpu/arm/mkl25z/./cpu.c -mcpu=cortex-m0plus -mthumb
  41              	@ -auxbase-strip obj_frdm-kl25z-rf/cpu.o -gdwarf-2 -g -O -Wall
  42              	@ -Wstrict-prototypes -fomit-frame-pointer -fverbose-asm
  43              	@ options enabled:  -faggressive-loop-optimizations -fauto-inc-dec
  44              	@ -fbranch-count-reg -fcombine-stack-adjustments -fcommon -fcompare-elim
  45              	@ -fcprop-registers -fdefer-pop -fdelete-null-pointer-checks
  46              	@ -fdwarf2-cfi-asm -fearly-inlining -feliminate-unused-debug-types
  47              	@ -fforward-propagate -ffunction-cse -fgcse-lm -fgnu-runtime
  48              	@ -fguess-branch-probability -fident -fif-conversion -fif-conversion2
  49              	@ -finline -finline-atomics -finline-functions-called-once -fipa-profile
  50              	@ -fipa-pure-const -fipa-reference -fira-hoist-pressure
  51              	@ -fira-share-save-slots -fira-share-spill-slots -fivopts
  52              	@ -fkeep-static-consts -fleading-underscore -fmath-errno -fmerge-constants
  53              	@ -fmerge-debug-strings -fmove-loop-invariants -fomit-frame-pointer
  54              	@ -fpeephole -fprefetch-loop-arrays -freg-struct-return
  55              	@ -fsched-critical-path-heuristic -fsched-dep-count-heuristic
  56              	@ -fsched-group-heuristic -fsched-interblock -fsched-last-insn-heuristic
  57              	@ -fsched-pressure -fsched-rank-heuristic -fsched-spec
ARM GAS  /tmp/cc9aNEDf.s 			page 2


  58              	@ -fsched-spec-insn-heuristic -fsched-stalled-insns-dep -fsection-anchors
  59              	@ -fshow-column -fshrink-wrap -fsigned-zeros -fsplit-ivs-in-unroller
  60              	@ -fsplit-wide-types -fstrict-volatile-bitfields -fsync-libcalls
  61              	@ -ftoplevel-reorder -ftrapping-math -ftree-bit-ccp -ftree-ccp -ftree-ch
  62              	@ -ftree-coalesce-vars -ftree-copy-prop -ftree-copyrename -ftree-cselim
  63              	@ -ftree-dce -ftree-dominator-opts -ftree-dse -ftree-forwprop -ftree-fre
  64              	@ -ftree-loop-if-convert -ftree-loop-im -ftree-loop-ivcanon
  65              	@ -ftree-loop-optimize -ftree-parallelize-loops= -ftree-phiprop -ftree-pta
  66              	@ -ftree-reassoc -ftree-scev-cprop -ftree-sink -ftree-slp-vectorize
  67              	@ -ftree-slsr -ftree-sra -ftree-ter -ftree-vect-loop-version
  68              	@ -funit-at-a-time -fvar-tracking -fvar-tracking-assignments -fverbose-asm
  69              	@ -fzero-initialized-in-bss -mlittle-endian -mpic-data-is-text-relative
  70              	@ -msched-prolog -mthumb -mvectorize-with-neon-quad
  71              	
  72              		.text
  73              	.Ltext0:
  74              		.cfi_sections	.debug_frame
  75              		.align	2
  76              		.global	port_enable
  77              		.code	16
  78              		.thumb_func
  79              		.type	port_enable, %function
  80              	port_enable:
  81              	.LFB0:
  82              		.file 1 "../../cpu/arm/mkl25z/./cpu.c"
   1:../../cpu/arm/mkl25z/./cpu.c **** /*-------------------------------------------------------------------------------------------------
   2:../../cpu/arm/mkl25z/./cpu.c **** /*	cpu.c	
   3:../../cpu/arm/mkl25z/./cpu.c ****  *	
   4:../../cpu/arm/mkl25z/./cpu.c ****  *	Initialisation & Interrupt handler for CPU on the Freescale FRDM-KL25z Freedom Board
   5:../../cpu/arm/mkl25z/./cpu.c ****  *	
   6:../../cpu/arm/mkl25z/./cpu.c ****  *	Author: Graeme Bragg    
   7:../../cpu/arm/mkl25z/./cpu.c ****  * 			ARM-ECS / Pervasive Systems Centre
   8:../../cpu/arm/mkl25z/./cpu.c ****  * 			School of Electronics & Computer Science
   9:../../cpu/arm/mkl25z/./cpu.c ****  * 			University of Southampton
  10:../../cpu/arm/mkl25z/./cpu.c ****  * 
  11:../../cpu/arm/mkl25z/./cpu.c ****  * 
  12:../../cpu/arm/mkl25z/./cpu.c ****  *	27/2/2013	Rev.01		Configures CPU for 20.97152MHz Bus, Core and MCG Clock sources from the intern
  13:../../cpu/arm/mkl25z/./cpu.c ****  *							CPU runs in FEI. MGCIRCLK source is set to the slow internal oscillator.
  14:../../cpu/arm/mkl25z/./cpu.c ****  *							VLPM, LLS and VLLS are "allowed". NMI Interrupt is enabled on PTA4, Reset is PTA20.
  15:../../cpu/arm/mkl25z/./cpu.c ****  *	5/3/2013	Rev.02		Functions to enter low power modes.						
  16:../../cpu/arm/mkl25z/./cpu.c ****  *	12/3/2013	Rev.03		Added definitions for clock values.	
  17:../../cpu/arm/mkl25z/./cpu.c ****  *	18/2/2014	Rev.04		Options for 21MHz (from 32k internal) or 48MHz (from 8MHz external) clocks.
  18:../../cpu/arm/mkl25z/./cpu.c ****  *	
  19:../../cpu/arm/mkl25z/./cpu.c ****  *
  20:../../cpu/arm/mkl25z/./cpu.c ****  *	Page references relate to the KL25 Sub-Family Reference Manual, Document No. KL25P80M48SF0RM, Re
  21:../../cpu/arm/mkl25z/./cpu.c ****  *	Available on 25/02/2013 from http://cache.freescale.com/files/32bit/doc/ref_manual/KL25P80M48SF0
  22:../../cpu/arm/mkl25z/./cpu.c ****  *	
  23:../../cpu/arm/mkl25z/./cpu.c ****  *	Page references to "M0 Book" refer to "The Definitive Guide to the ARM Cortex-M0" by Joseph Yiu,
  24:../../cpu/arm/mkl25z/./cpu.c ****  *	
  25:../../cpu/arm/mkl25z/./cpu.c ****  *
  26:../../cpu/arm/mkl25z/./cpu.c ****  *	***NB*** This file is intended for use with a new "Bareboard" project (with no rapid-development
  27:../../cpu/arm/mkl25z/./cpu.c ****  *				If this is not the case, you MUST ensure that an appropriate entry of "NMI_Handler" exists in
  28:../../cpu/arm/mkl25z/./cpu.c ****  *				(address 0x00000008) of the VectorTable.
  29:../../cpu/arm/mkl25z/./cpu.c ****  *
  30:../../cpu/arm/mkl25z/./cpu.c ****  *				Appropriate entries for the interrupt handler exist in the vector table contained in the gene
  31:../../cpu/arm/mkl25z/./cpu.c ****  *				kinetis_sysinit.c file
  32:../../cpu/arm/mkl25z/./cpu.c ****  */				
ARM GAS  /tmp/cc9aNEDf.s 			page 3


  33:../../cpu/arm/mkl25z/./cpu.c **** /*-------------------------------------------------------------------------------------------------
  34:../../cpu/arm/mkl25z/./cpu.c **** 
  35:../../cpu/arm/mkl25z/./cpu.c **** #include <MKL25Z4.h>                   /* I/O map for MKL25Z128VLK4 */
  36:../../cpu/arm/mkl25z/./cpu.c **** #include "cpu.h"
  37:../../cpu/arm/mkl25z/./cpu.c **** 
  38:../../cpu/arm/mkl25z/./cpu.c **** void port_enable(uint8_t PortMask)		/* Enable clock to used ports.  This is required before configu
  39:../../cpu/arm/mkl25z/./cpu.c **** {
  83              		.loc 1 39 0
  84              		.cfi_startproc
  85              	.LVL0:
  86 0000 10B5     		push	{r4, lr}	@
  87              	.LCFI0:
  88              		.cfi_def_cfa_offset 8
  89              		.cfi_offset 4, -8
  90              		.cfi_offset 14, -4
  40:../../cpu/arm/mkl25z/./cpu.c **** 	SIM_SCGC5 |= SIM_SCGC5_PORTA_MASK;			/* Enable clock to PortA as this is ALWAYS required for NMI a
  91              		.loc 1 40 0
  92 0002 154A     		ldr	r2, .L6	@ tmp125,
  93 0004 154B     		ldr	r3, .L6+4	@ tmp126,
  94 0006 D458     		ldr	r4, [r2, r3]	@ D.4828, MEM[(volatile struct SIM_MemMap *)1074032640B].SCGC5
  95 0008 8021     		mov	r1, #128	@ tmp178,
  96 000a 8900     		lsl	r1, r1, #2	@ tmp127, tmp178,
  97 000c 2143     		orr	r1, r4	@ D.4828, D.4828
  98 000e D150     		str	r1, [r2, r3]	@ D.4828, MEM[(volatile struct SIM_MemMap *)1074032640B].SCGC5
  41:../../cpu/arm/mkl25z/./cpu.c **** 	
  42:../../cpu/arm/mkl25z/./cpu.c **** 	if(PortMask & PORTB_EN_MASK)				/* If PortB Enable Mask, */
  99              		.loc 1 42 0
 100 0010 C307     		lsl	r3, r0, #31	@, PortMask,
 101 0012 05D5     		bpl	.L2	@,
  43:../../cpu/arm/mkl25z/./cpu.c **** 	{
  44:../../cpu/arm/mkl25z/./cpu.c **** 		SIM_SCGC5 |= SIM_SCGC5_PORTB_MASK;		/* Enable Clock to PortB. */
 102              		.loc 1 44 0
 103 0014 114B     		ldr	r3, .L6+4	@ tmp137,
 104 0016 D458     		ldr	r4, [r2, r3]	@ D.4828, MEM[(volatile struct SIM_MemMap *)1074032640B].SCGC5
 105 0018 8021     		mov	r1, #128	@ tmp177,
 106 001a C900     		lsl	r1, r1, #3	@ tmp138, tmp177,
 107 001c 2143     		orr	r1, r4	@ D.4828, D.4828
 108 001e D150     		str	r1, [r2, r3]	@ D.4828, MEM[(volatile struct SIM_MemMap *)1074032640B].SCGC5
 109              	.L2:
  45:../../cpu/arm/mkl25z/./cpu.c **** 	}
  46:../../cpu/arm/mkl25z/./cpu.c **** 	if(PortMask & PORTC_EN_MASK)				/* If PortC Enable Mask, */
 110              		.loc 1 46 0
 111 0020 8307     		lsl	r3, r0, #30	@, PortMask,
 112 0022 06D5     		bpl	.L3	@,
  47:../../cpu/arm/mkl25z/./cpu.c **** 	{
  48:../../cpu/arm/mkl25z/./cpu.c **** 		SIM_SCGC5 |= SIM_SCGC5_PORTC_MASK;		/* Enable Clock to PortC. */
 113              		.loc 1 48 0
 114 0024 0C4A     		ldr	r2, .L6	@ tmp147,
 115 0026 0D4B     		ldr	r3, .L6+4	@ tmp148,
 116 0028 D458     		ldr	r4, [r2, r3]	@ D.4828, MEM[(volatile struct SIM_MemMap *)1074032640B].SCGC5
 117 002a 8021     		mov	r1, #128	@ tmp176,
 118 002c 0901     		lsl	r1, r1, #4	@ tmp149, tmp176,
 119 002e 2143     		orr	r1, r4	@ D.4828, D.4828
 120 0030 D150     		str	r1, [r2, r3]	@ D.4828, MEM[(volatile struct SIM_MemMap *)1074032640B].SCGC5
 121              	.L3:
  49:../../cpu/arm/mkl25z/./cpu.c **** 	}
  50:../../cpu/arm/mkl25z/./cpu.c **** 	if(PortMask & PORTD_EN_MASK)				/* If PortD Enable Mask, */
ARM GAS  /tmp/cc9aNEDf.s 			page 4


 122              		.loc 1 50 0
 123 0032 4307     		lsl	r3, r0, #29	@, PortMask,
 124 0034 06D5     		bpl	.L4	@,
  51:../../cpu/arm/mkl25z/./cpu.c **** 	{
  52:../../cpu/arm/mkl25z/./cpu.c **** 		SIM_SCGC5 |= SIM_SCGC5_PORTD_MASK;		/* Enable Clock to PortD. */
 125              		.loc 1 52 0
 126 0036 084A     		ldr	r2, .L6	@ tmp158,
 127 0038 084B     		ldr	r3, .L6+4	@ tmp159,
 128 003a D458     		ldr	r4, [r2, r3]	@ D.4828, MEM[(volatile struct SIM_MemMap *)1074032640B].SCGC5
 129 003c 8021     		mov	r1, #128	@ tmp175,
 130 003e 4901     		lsl	r1, r1, #5	@ tmp160, tmp175,
 131 0040 2143     		orr	r1, r4	@ D.4828, D.4828
 132 0042 D150     		str	r1, [r2, r3]	@ D.4828, MEM[(volatile struct SIM_MemMap *)1074032640B].SCGC5
 133              	.L4:
  53:../../cpu/arm/mkl25z/./cpu.c **** 	}
  54:../../cpu/arm/mkl25z/./cpu.c **** 	if(PortMask & PORTE_EN_MASK)				/* If PortE Enable Mask, */
 134              		.loc 1 54 0
 135 0044 0307     		lsl	r3, r0, #28	@, PortMask,
 136 0046 06D5     		bpl	.L1	@,
  55:../../cpu/arm/mkl25z/./cpu.c **** 	{
  56:../../cpu/arm/mkl25z/./cpu.c **** 		SIM_SCGC5 |= SIM_SCGC5_PORTE_MASK;		/* Enable Clock to PortE. */
 137              		.loc 1 56 0
 138 0048 034A     		ldr	r2, .L6	@ tmp169,
 139 004a 044B     		ldr	r3, .L6+4	@ tmp170,
 140 004c D058     		ldr	r0, [r2, r3]	@ D.4828, MEM[(volatile struct SIM_MemMap *)1074032640B].SCGC5
 141              	.LVL1:
 142 004e 8021     		mov	r1, #128	@ tmp174,
 143 0050 8901     		lsl	r1, r1, #6	@ tmp171, tmp174,
 144 0052 0143     		orr	r1, r0	@ D.4828, D.4828
 145 0054 D150     		str	r1, [r2, r3]	@ D.4828, MEM[(volatile struct SIM_MemMap *)1074032640B].SCGC5
 146              	.L1:
  57:../../cpu/arm/mkl25z/./cpu.c **** 	}
  58:../../cpu/arm/mkl25z/./cpu.c **** }
 147              		.loc 1 58 0
 148              		@ sp needed	@
 149 0056 10BD     		pop	{r4, pc}
 150              	.L7:
 151              		.align	2
 152              	.L6:
 153 0058 00700440 		.word	1074032640
 154 005c 38100000 		.word	4152
 155              		.cfi_endproc
 156              	.LFE0:
 157              		.size	port_enable, .-port_enable
 158              		.align	2
 159              		.global	cpu_init
 160              		.code	16
 161              		.thumb_func
 162              		.type	cpu_init, %function
 163              	cpu_init:
 164              	.LFB1:
  59:../../cpu/arm/mkl25z/./cpu.c **** 
  60:../../cpu/arm/mkl25z/./cpu.c **** void cpu_init(void)
  61:../../cpu/arm/mkl25z/./cpu.c **** {
 165              		.loc 1 61 0
 166              		.cfi_startproc
 167 0060 08B5     		push	{r3, lr}	@
ARM GAS  /tmp/cc9aNEDf.s 			page 5


 168              	.LCFI1:
 169              		.cfi_def_cfa_offset 8
 170              		.cfi_offset 3, -8
 171              		.cfi_offset 14, -4
  62:../../cpu/arm/mkl25z/./cpu.c **** 	/* These two functions happen in startup code so not needed. */
  63:../../cpu/arm/mkl25z/./cpu.c **** 	//SCB_VTOR = (uint32_t)(&__vect_table); 		/* Set the interrupt vector table position */
  64:../../cpu/arm/mkl25z/./cpu.c **** 	//SIM_COPC = 0x00;							/* disable watchdog. */
  65:../../cpu/arm/mkl25z/./cpu.c **** 	
  66:../../cpu/arm/mkl25z/./cpu.c **** 	
  67:../../cpu/arm/mkl25z/./cpu.c **** 	port_enable(0);								/* Enable clocks to Port A. */
 172              		.loc 1 67 0
 173 0062 0020     		mov	r0, #0	@,
 174 0064 FFF7FEFF 		bl	port_enable	@
 175              	.LVL2:
  68:../../cpu/arm/mkl25z/./cpu.c **** 	
  69:../../cpu/arm/mkl25z/./cpu.c **** 
  70:../../cpu/arm/mkl25z/./cpu.c **** 	/* System clock initialisation */
  71:../../cpu/arm/mkl25z/./cpu.c **** #if defined(__21mhzIR)	/* 20.97MHz core and bus speed from internal 32kHz reference oscillator. */
  72:../../cpu/arm/mkl25z/./cpu.c **** 	SIM_CLKDIV1 = (uint32_t)0x0000;      										/* Set System Clock Divider Register to Divide-by-1
  73:../../cpu/arm/mkl25z/./cpu.c **** 	SIM_SOPT2 &= ~(SIM_SOPT2_PLLFLLSEL_MASK | SIM_SOPT2_TPMSRC_MASK); 			/* Set MCGFLLCLK without divi
  74:../../cpu/arm/mkl25z/./cpu.c **** 	SIM_SOPT2 |= SIM_SOPT2_TPMSRC(0x01);										/* Set TPM Clock Source to MCGFLLCLK. Page 195. */
  75:../../cpu/arm/mkl25z/./cpu.c **** 	
  76:../../cpu/arm/mkl25z/./cpu.c **** 	/* Stay in FEI Mode */
  77:../../cpu/arm/mkl25z/./cpu.c **** 	MCG_C1 |= (MCG_C1_IREFSTEN_MASK | MCG_C1_IRCLKEN_MASK | MCG_C1_IREFS_MASK);	/* Set MCG_C1 for Enab
  78:../../cpu/arm/mkl25z/./cpu.c **** 	MCG_C2 = 0x00;    															/* Set MCG_C2: LOCRE0=0,RANGE0=0,HGO0=0,EREFS0=0,LP=0,IRCS=0. Pag
  79:../../cpu/arm/mkl25z/./cpu.c **** 	MCG_C4 &= ~0xE0;		     												/* Set MCG_C4: Set FLL clock speed. DMX32=0,DRST_DRS=0, Interna
  80:../../cpu/arm/mkl25z/./cpu.c **** 	OSC0_CR = 0x00;     														/* Set OSC0_CR: ERCLKEN=0,EREFSTEN=0,SC2P=0,SC4P=0,SC8P=0,SC16P=
  81:../../cpu/arm/mkl25z/./cpu.c **** 	MCG_C5 = 0x00;																/* Set MCG_C5: PLLCLKEN0=0,PLLSTEN0=0,PRDIV0=0. Page 376. */        
  82:../../cpu/arm/mkl25z/./cpu.c **** 	MCG_C6 = 0x00;																/* Set MCG_C6: LOLIE0=0,PLLS=0,CME0=0,VDIV0=0. Page 377. */
  83:../../cpu/arm/mkl25z/./cpu.c **** 	while((MCG_S & MCG_S_IREFST_MASK) == 0x00) {} 								/* Check that the source of the FLL referenc
  84:../../cpu/arm/mkl25z/./cpu.c **** 	while((MCG_S & 0x0C) != 0x00) {}											/* Wait until output of the FLL is selected */
  85:../../cpu/arm/mkl25z/./cpu.c **** 
  86:../../cpu/arm/mkl25z/./cpu.c **** 		
  87:../../cpu/arm/mkl25z/./cpu.c **** #else	/*48 MHz with a 24MHz bus clock generated from an 8MHz crystal. */
  88:../../cpu/arm/mkl25z/./cpu.c **** 	SIM_CLKDIV1 = (SIM_CLKDIV1_OUTDIV1(0x01) | SIM_CLKDIV1_OUTDIV4(0x01));		/* Set OUTDIV1 and OUTDIV4
 176              		.loc 1 88 0
 177 0068 4C4B     		ldr	r3, .L19	@ tmp149,
 178 006a 4D49     		ldr	r1, .L19+4	@ tmp151,
 179 006c 4D4A     		ldr	r2, .L19+8	@ tmp150,
 180 006e 9950     		str	r1, [r3, r2]	@ tmp151, MEM[(volatile struct SIM_MemMap *)1074032640B].CLKDIV1
  89:../../cpu/arm/mkl25z/./cpu.c **** 	SIM_SOPT2 |= SIM_SOPT2_PLLFLLSEL_MASK; 										/* Select PLL as a clock source for various perip
 181              		.loc 1 89 0
 182 0070 4D4A     		ldr	r2, .L19+12	@ tmp153,
 183 0072 9858     		ldr	r0, [r3, r2]	@ D.4831, MEM[(volatile struct SIM_MemMap *)1074032640B].SOPT2
 184 0074 8021     		mov	r1, #128	@ tmp337,
 185 0076 4902     		lsl	r1, r1, #9	@ tmp154, tmp337,
 186 0078 0143     		orr	r1, r0	@ D.4831, D.4831
 187 007a 9950     		str	r1, [r3, r2]	@ D.4831, MEM[(volatile struct SIM_MemMap *)1074032640B].SOPT2
  90:../../cpu/arm/mkl25z/./cpu.c **** 	SIM_SOPT2 &= ~SIM_SOPT2_TPMSRC_MASK; 										/* Clear TPMSRC. Page 195. */
 188              		.loc 1 90 0
 189 007c 9858     		ldr	r0, [r3, r2]	@ D.4831, MEM[(volatile struct SIM_MemMap *)1074032640B].SOPT2
 190 007e 4B49     		ldr	r1, .L19+16	@ tmp159,
 191 0080 0140     		and	r1, r0	@ D.4831, D.4831
 192 0082 9950     		str	r1, [r3, r2]	@ D.4831, MEM[(volatile struct SIM_MemMap *)1074032640B].SOPT2
  91:../../cpu/arm/mkl25z/./cpu.c **** 	SIM_SOPT2 |= SIM_SOPT2_TPMSRC(0x01);    									/* Set TPM Clock Source to MCGFLLCLK. Page 195. *
 193              		.loc 1 91 0
 194 0084 9858     		ldr	r0, [r3, r2]	@ D.4831, MEM[(volatile struct SIM_MemMap *)1074032640B].SOPT2
ARM GAS  /tmp/cc9aNEDf.s 			page 6


 195 0086 8021     		mov	r1, #128	@ tmp338,
 196 0088 4904     		lsl	r1, r1, #17	@ tmp164, tmp338,
 197 008a 0143     		orr	r1, r0	@ D.4831, D.4831
 198 008c 9950     		str	r1, [r3, r2]	@ D.4831, MEM[(volatile struct SIM_MemMap *)1074032640B].SOPT2
  92:../../cpu/arm/mkl25z/./cpu.c **** 	
  93:../../cpu/arm/mkl25z/./cpu.c **** 	PORTA_PCR18 &= ~(PORT_PCR_ISF_MASK | PORT_PCR_MUX_MASK);					/* Set Port A Pin 18 as EXTAL0. */
 199              		.loc 1 93 0
 200 008e 484B     		ldr	r3, .L19+20	@ tmp167,
 201 0090 996C     		ldr	r1, [r3, #72]	@ D.4831, MEM[(volatile struct PORT_MemMap *)1074040832B].PCR
 202 0092 484A     		ldr	r2, .L19+24	@ tmp168,
 203 0094 1140     		and	r1, r2	@ D.4831, tmp168
 204 0096 9964     		str	r1, [r3, #72]	@ D.4831, MEM[(volatile struct PORT_MemMap *)1074040832B].PCR
  94:../../cpu/arm/mkl25z/./cpu.c **** 	PORTA_PCR19 &= ~(PORT_PCR_ISF_MASK | PORT_PCR_MUX_MASK);					/* Set Port A Pin 19 as XTAL0. */
 205              		.loc 1 94 0
 206 0098 D96C     		ldr	r1, [r3, #76]	@ D.4831, MEM[(volatile struct PORT_MemMap *)1074040832B].PCR
 207 009a 0A40     		and	r2, r1	@ D.4831, D.4831
 208 009c DA64     		str	r2, [r3, #76]	@ D.4831, MEM[(volatile struct PORT_MemMap *)1074040832B].PCR
  95:../../cpu/arm/mkl25z/./cpu.c **** 	
  96:../../cpu/arm/mkl25z/./cpu.c **** 	/* Need to go from FEI to FBE to PBE to PEE mode. */
  97:../../cpu/arm/mkl25z/./cpu.c **** 	/* See Page 384 for function diagram and descriptions. */
  98:../../cpu/arm/mkl25z/./cpu.c **** 	
  99:../../cpu/arm/mkl25z/./cpu.c **** 	/* Switch to FBE Mode */
 100:../../cpu/arm/mkl25z/./cpu.c **** 	OSC0_CR = OSC_CR_ERCLKEN_MASK; 												/* Enable External Reference Clock. */
 209              		.loc 1 100 0
 210 009e 8022     		mov	r2, #128	@ tmp174,
 211 00a0 454B     		ldr	r3, .L19+28	@ tmp173,
 212 00a2 1A70     		strb	r2, [r3]	@ tmp174, MEM[(volatile struct OSC_MemMap *)1074155520B].CR
 101:../../cpu/arm/mkl25z/./cpu.c **** 	MCG_C2 = (MCG_C2_RANGE0(0x02) | MCG_C2_EREFS0_MASK);						/* Set Freq range to VHF & enable 8MHz o
 213              		.loc 1 101 0
 214 00a4 454B     		ldr	r3, .L19+32	@ tmp176,
 215 00a6 2422     		mov	r2, #36	@ tmp177,
 216 00a8 5A70     		strb	r2, [r3, #1]	@ tmp177, MEM[(volatile struct MCG_MemMap *)1074151424B].C2
 102:../../cpu/arm/mkl25z/./cpu.c **** 	MCG_C1 = (MCG_C1_CLKS(0x02) | MCG_C1_FRDIV(0x03) | MCG_C1_IRCLKEN_MASK);   	/* Set CLK SRC to exte
 217              		.loc 1 102 0
 218 00aa 9A22     		mov	r2, #154	@ tmp180,
 219 00ac 1A70     		strb	r2, [r3]	@ tmp180, MEM[(volatile struct MCG_MemMap *)1074151424B].C1
 103:../../cpu/arm/mkl25z/./cpu.c **** 	MCG_C4 &= ~(MCG_C4_DMX32_MASK | MCG_C4_DRST_DRS_MASK);
 220              		.loc 1 103 0
 221 00ae 1A68     		ldr	r2, [r3]	@ tmp183,
 222 00b0 D200     		lsl	r2, r2, #3	@ tmp188, tmp183,
 223 00b2 D20E     		lsr	r2, r2, #27	@ D.4832, tmp188,
 224 00b4 DA70     		strb	r2, [r3, #3]	@ D.4832, MEM[(volatile struct MCG_MemMap *)1074151424B].C4
 104:../../cpu/arm/mkl25z/./cpu.c **** 	MCG_C5 = MCG_C5_PRDIV0(0x01);  												/* Set PLL Ext Ref Divider to divide factor of 2. */
 225              		.loc 1 104 0
 226 00b6 0122     		mov	r2, #1	@ tmp192,
 227 00b8 1A71     		strb	r2, [r3, #4]	@ tmp192, MEM[(volatile struct MCG_MemMap *)1074151424B].C5
 105:../../cpu/arm/mkl25z/./cpu.c **** 	MCG_C6 = 0x00;													
 228              		.loc 1 105 0
 229 00ba 0022     		mov	r2, #0	@ tmp195,
 230 00bc 5A71     		strb	r2, [r3, #5]	@ tmp195, MEM[(volatile struct MCG_MemMap *)1074151424B].C6
 106:../../cpu/arm/mkl25z/./cpu.c **** 	
 107:../../cpu/arm/mkl25z/./cpu.c **** 	while((MCG_S & MCG_S_IREFST_MASK) != 0x00) { 								/* Check that the source of the FLL reference
 231              		.loc 1 107 0
 232 00be 191C     		mov	r1, r3	@ tmp333, tmp176
 233 00c0 1022     		mov	r2, #16	@ tmp334,
 234              	.L10:
 235              		.loc 1 107 0 is_stmt 0 discriminator 1
ARM GAS  /tmp/cc9aNEDf.s 			page 7


 236 00c2 4B68     		ldr	r3, [r1, #4]	@ tmp198,
 237 00c4 1B0C     		lsr	r3, r3, #16	@ D.4832, tmp198,
 238 00c6 1342     		tst	r3, r2	@ D.4832, tmp334
 239 00c8 FBD1     		bne	.L10	@,
 108:../../cpu/arm/mkl25z/./cpu.c **** 	}
 109:../../cpu/arm/mkl25z/./cpu.c **** 	while((MCG_S & 0x0C) != 0x08) {    											/* Wait until external reference clock is selected a
 240              		.loc 1 109 0 is_stmt 1
 241 00ca 3C49     		ldr	r1, .L19+32	@ tmp331,
 242 00cc 0C22     		mov	r2, #12	@ tmp332,
 243              	.L12:
 244              		.loc 1 109 0 is_stmt 0 discriminator 1
 245 00ce 4B68     		ldr	r3, [r1, #4]	@ tmp208,
 246 00d0 1B0C     		lsr	r3, r3, #16	@ D.4832, tmp208,
 247 00d2 1340     		and	r3, r2	@ tmp215, tmp332
 248 00d4 082B     		cmp	r3, #8	@ tmp215,
 249 00d6 FAD1     		bne	.L12	@,
 110:../../cpu/arm/mkl25z/./cpu.c **** 	}
 111:../../cpu/arm/mkl25z/./cpu.c **** 	
 112:../../cpu/arm/mkl25z/./cpu.c **** 	/* Switch to PBE Mode */
 113:../../cpu/arm/mkl25z/./cpu.c **** 	OSC0_CR = OSC_CR_ERCLKEN_MASK;  											/* Enable External Reference Clock. */
 250              		.loc 1 113 0 is_stmt 1
 251 00d8 8022     		mov	r2, #128	@ tmp217,
 252 00da 374B     		ldr	r3, .L19+28	@ tmp216,
 253 00dc 1A70     		strb	r2, [r3]	@ tmp217, MEM[(volatile struct OSC_MemMap *)1074155520B].CR
 114:../../cpu/arm/mkl25z/./cpu.c **** 	MCG_C1 = (MCG_C1_CLKS(0x02) | MCG_C1_FRDIV(0x03) | MCG_C1_IRCLKEN_MASK); 	/* Select external Ref C
 254              		.loc 1 114 0
 255 00de 374B     		ldr	r3, .L19+32	@ tmp219,
 256 00e0 9A22     		mov	r2, #154	@ tmp220,
 257 00e2 1A70     		strb	r2, [r3]	@ tmp220, MEM[(volatile struct MCG_MemMap *)1074151424B].C1
 115:../../cpu/arm/mkl25z/./cpu.c **** 	MCG_C2 = (MCG_C2_RANGE0(0x02) | MCG_C2_EREFS0_MASK);						/* Set Freq range to VHF & enable 8MHz o
 258              		.loc 1 115 0
 259 00e4 2422     		mov	r2, #36	@ tmp223,
 260 00e6 5A70     		strb	r2, [r3, #1]	@ tmp223, MEM[(volatile struct MCG_MemMap *)1074151424B].C2
 116:../../cpu/arm/mkl25z/./cpu.c **** 	MCG_C5 = MCG_C5_PRDIV0(0x01);  												/* Set PLL Ext Ref Divider to divide factor of 2. */
 261              		.loc 1 116 0
 262 00e8 0122     		mov	r2, #1	@ tmp226,
 263 00ea 1A71     		strb	r2, [r3, #4]	@ tmp226, MEM[(volatile struct MCG_MemMap *)1074151424B].C5
 117:../../cpu/arm/mkl25z/./cpu.c **** 	MCG_C6 = MCG_C6_PLLS_MASK;													/* Select PLL. */
 264              		.loc 1 117 0
 265 00ec 4022     		mov	r2, #64	@ tmp229,
 266 00ee 5A71     		strb	r2, [r3, #5]	@ tmp229, MEM[(volatile struct MCG_MemMap *)1074151424B].C6
 118:../../cpu/arm/mkl25z/./cpu.c **** 	
 119:../../cpu/arm/mkl25z/./cpu.c **** 	while((MCG_S & 0x0CU) != 0x08U) {    										/* Wait until external reference clock is selected 
 267              		.loc 1 119 0
 268 00f0 191C     		mov	r1, r3	@ tmp329, tmp219
 269 00f2 0C22     		mov	r2, #12	@ tmp330,
 270              	.L14:
 271              		.loc 1 119 0 is_stmt 0 discriminator 1
 272 00f4 4B68     		ldr	r3, [r1, #4]	@ tmp232,
 273 00f6 1B0C     		lsr	r3, r3, #16	@ D.4832, tmp232,
 274 00f8 1340     		and	r3, r2	@ tmp239, tmp330
 275 00fa 082B     		cmp	r3, #8	@ tmp239,
 276 00fc FAD1     		bne	.L14	@,
 120:../../cpu/arm/mkl25z/./cpu.c **** 	}
 121:../../cpu/arm/mkl25z/./cpu.c **** 	while((MCG_S & MCG_S_LOCK0_MASK) == 0x00U) { 								/* Wait until locked */
 277              		.loc 1 121 0 is_stmt 1
 278 00fe 2F49     		ldr	r1, .L19+32	@ tmp327,
ARM GAS  /tmp/cc9aNEDf.s 			page 8


 279 0100 4022     		mov	r2, #64	@ tmp328,
 280              	.L16:
 281              		.loc 1 121 0 is_stmt 0 discriminator 1
 282 0102 4B68     		ldr	r3, [r1, #4]	@ tmp241,
 283 0104 1B0C     		lsr	r3, r3, #16	@ D.4832, tmp241,
 284 0106 1342     		tst	r3, r2	@ D.4832, tmp328
 285 0108 FBD0     		beq	.L16	@,
 122:../../cpu/arm/mkl25z/./cpu.c **** 	}
 123:../../cpu/arm/mkl25z/./cpu.c **** 	
 124:../../cpu/arm/mkl25z/./cpu.c **** 	/* Switch to PEE Mode */
 125:../../cpu/arm/mkl25z/./cpu.c **** 	OSC0_CR = OSC_CR_ERCLKEN_MASK; 												/* Enable External Reference Clock. */
 286              		.loc 1 125 0 is_stmt 1
 287 010a 8022     		mov	r2, #128	@ tmp251,
 288 010c 2A4B     		ldr	r3, .L19+28	@ tmp250,
 289 010e 1A70     		strb	r2, [r3]	@ tmp251, MEM[(volatile struct OSC_MemMap *)1074155520B].CR
 126:../../cpu/arm/mkl25z/./cpu.c **** 	
 127:../../cpu/arm/mkl25z/./cpu.c **** 	MCG_C1 = (MCG_C1_FRDIV(0x03) | MCG_C1_IRCLKEN_MASK); 						/* Select PLL as Clock Source, Divide F
 290              		.loc 1 127 0
 291 0110 2A4B     		ldr	r3, .L19+32	@ tmp253,
 292 0112 1A22     		mov	r2, #26	@ tmp254,
 293 0114 1A70     		strb	r2, [r3]	@ tmp254, MEM[(volatile struct MCG_MemMap *)1074151424B].C1
 128:../../cpu/arm/mkl25z/./cpu.c **** 	MCG_C2 = (MCG_C2_RANGE0(0x02) | MCG_C2_EREFS0_MASK);						/* Set Freq range to VHF & enable 8MHz o
 294              		.loc 1 128 0
 295 0116 2422     		mov	r2, #36	@ tmp257,
 296 0118 5A70     		strb	r2, [r3, #1]	@ tmp257, MEM[(volatile struct MCG_MemMap *)1074151424B].C2
 129:../../cpu/arm/mkl25z/./cpu.c **** 	MCG_C5 = MCG_C5_PRDIV0(0x01);  												/* Set PLL Ext Ref Divider to divide factor of 2. */
 297              		.loc 1 129 0
 298 011a 0122     		mov	r2, #1	@ tmp260,
 299 011c 1A71     		strb	r2, [r3, #4]	@ tmp260, MEM[(volatile struct MCG_MemMap *)1074151424B].C5
 130:../../cpu/arm/mkl25z/./cpu.c **** 	MCG_C6 = MCG_C6_PLLS_MASK;													/* Select PLL. */
 300              		.loc 1 130 0
 301 011e 4022     		mov	r2, #64	@ tmp263,
 302 0120 5A71     		strb	r2, [r3, #5]	@ tmp263, MEM[(volatile struct MCG_MemMap *)1074151424B].C6
 131:../../cpu/arm/mkl25z/./cpu.c **** 	while((MCG_S & 0x0CU) != 0x0CU) {   										/* Wait until output of the PLL is selected */
 303              		.loc 1 131 0
 304 0122 191C     		mov	r1, r3	@ tmp325, tmp253
 305 0124 0C22     		mov	r2, #12	@ tmp326,
 306              	.L18:
 307              		.loc 1 131 0 is_stmt 0 discriminator 1
 308 0126 4B68     		ldr	r3, [r1, #4]	@ tmp266,
 309 0128 1B0C     		lsr	r3, r3, #16	@ D.4832, tmp266,
 310 012a 1340     		and	r3, r2	@ tmp273, tmp326
 311 012c 0C2B     		cmp	r3, #12	@ tmp273,
 312 012e FAD1     		bne	.L18	@,
 132:../../cpu/arm/mkl25z/./cpu.c **** 	}
 133:../../cpu/arm/mkl25z/./cpu.c **** #endif
 134:../../cpu/arm/mkl25z/./cpu.c **** 
 135:../../cpu/arm/mkl25z/./cpu.c **** 	/* Setup the internal oscillator for MCGIRCLK. */
 136:../../cpu/arm/mkl25z/./cpu.c **** #if defined(OSCK32KSEL_RTCIN)	/* 32kHz internal "slow" oscillator with a link to RTC IN, or a 32K s
 137:../../cpu/arm/mkl25z/./cpu.c **** 	port_enable(PORTC_EN_MASK);									/* Enable Port C clock. */			
 138:../../cpu/arm/mkl25z/./cpu.c **** 	SIM_SOPT1 &= ~SIM_SOPT1_OSC32KSEL_MASK;						/* Clear RTC Clock Source. */
 139:../../cpu/arm/mkl25z/./cpu.c **** 	SIM_SOPT1 |= 0x00080000;									/* Set ERCLK32K source to RTC_CLKIN. Page 193. */
 140:../../cpu/arm/mkl25z/./cpu.c **** 	SIM_SOPT2 = (SIM_SOPT2 & ~SIM_SOPT2_CLKOUTSEL_MASK) | 0x80;	/* Set CLKOUTSEL to MCGIRCLK (32k inte
 141:../../cpu/arm/mkl25z/./cpu.c **** 	
 142:../../cpu/arm/mkl25z/./cpu.c **** 	PORTC_PCR1 = ((PORTC_PCR1 & ~0x01000600) | 0x0100);			/* Set PORTC_PCR1 as RTC_CLKIN, ISF=0,MUX=1.
 143:../../cpu/arm/mkl25z/./cpu.c **** 	PORTC_PCR3 = ((PORTC_PCR3 & ~0x01000200) | 0x0500);			/* Set PORTC_PCR3 as CLKOUT. ISF=0,MUX=5. */
 144:../../cpu/arm/mkl25z/./cpu.c **** 
ARM GAS  /tmp/cc9aNEDf.s 			page 9


 145:../../cpu/arm/mkl25z/./cpu.c **** #else	/* 1kHz internal low power oscillator. */
 146:../../cpu/arm/mkl25z/./cpu.c **** 	SIM_SOPT1 &= ~SIM_SOPT1_OSC32KSEL_MASK;						/* Set OSC32KSEL to LPO 1KHz so that LPTMR will work.
 313              		.loc 1 146 0 is_stmt 1
 314 0130 1A4B     		ldr	r3, .L19	@ tmp274,
 315 0132 1968     		ldr	r1, [r3]	@ D.4831, MEM[(volatile struct SIM_MemMap *)1074032640B].SOPT1
 316 0134 224A     		ldr	r2, .L19+36	@ tmp275,
 317 0136 0A40     		and	r2, r1	@ D.4831, D.4831
 318 0138 1A60     		str	r2, [r3]	@ D.4831, MEM[(volatile struct SIM_MemMap *)1074032640B].SOPT1
 147:../../cpu/arm/mkl25z/./cpu.c **** 	SIM_SOPT2 = (SIM_SOPT2 & ~SIM_SOPT2_CLKOUTSEL_MASK) | 0x70;	/* Set CLKOUTSEL to LPO Clock. */
 319              		.loc 1 147 0
 320 013a 1B4A     		ldr	r2, .L19+12	@ tmp278,
 321 013c 9958     		ldr	r1, [r3, r2]	@ D.4831, MEM[(volatile struct SIM_MemMap *)1074032640B].SOPT2
 322 013e F020     		mov	r0, #240	@ tmp280,
 323 0140 8143     		bic	r1, r0	@ D.4831, tmp280
 324 0142 7020     		mov	r0, #112	@ tmp281,
 325 0144 0143     		orr	r1, r0	@ D.4831, tmp281
 326 0146 9950     		str	r1, [r3, r2]	@ D.4831, MEM[(volatile struct SIM_MemMap *)1074032640B].SOPT2
 148:../../cpu/arm/mkl25z/./cpu.c **** #endif 
 149:../../cpu/arm/mkl25z/./cpu.c **** 	
 150:../../cpu/arm/mkl25z/./cpu.c **** 	/* Initialization of the RCM module */
 151:../../cpu/arm/mkl25z/./cpu.c **** 	RCM_RPFW &= ~0x1F;																	/* Set RCM_RPFW: Reset Pin Filter Width register. RSTFLTSEL=0. 
 327              		.loc 1 151 0
 328 0148 1E4B     		ldr	r3, .L19+40	@ tmp284,
 329 014a 5A68     		ldr	r2, [r3, #4]	@ tmp285,
 330 014c 1204     		lsl	r2, r2, #16	@ tmp287, tmp285,
 331 014e 120E     		lsr	r2, r2, #24	@ D.4832, tmp287,
 332 0150 1F21     		mov	r1, #31	@ tmp289,
 333 0152 8A43     		bic	r2, r1	@ D.4832, tmp289
 334 0154 5A71     		strb	r2, [r3, #5]	@ D.4832, MEM[(volatile struct RCM_MemMap *)1074262016B].RPFW
 152:../../cpu/arm/mkl25z/./cpu.c **** 	RCM_RPFC &= ~0x07;   																/* Set RCM_RPFC: Reset Pin Filter Control register. RSTFLTSS=
 335              		.loc 1 152 0
 336 0156 5968     		ldr	r1, [r3, #4]	@ tmp293,
 337 0158 F822     		mov	r2, #248	@ tmp295,
 338 015a 0A40     		and	r2, r1	@ D.4832, tmp293
 339 015c 1A71     		strb	r2, [r3, #4]	@ D.4832, MEM[(volatile struct RCM_MemMap *)1074262016B].RPFC
 153:../../cpu/arm/mkl25z/./cpu.c **** 	
 154:../../cpu/arm/mkl25z/./cpu.c **** 	/* Initialization of the PMC module */
 155:../../cpu/arm/mkl25z/./cpu.c **** 	PMC_LVDSC1 = (PMC_LVDSC1_LVDACK_MASK | PMC_LVDSC1_LVDRE_MASK);								/* Set PMC_LVDSC1: Clear LVD
 340              		.loc 1 155 0
 341 015e 1A4B     		ldr	r3, .L19+44	@ tmp298,
 342 0160 5022     		mov	r2, #80	@ tmp299,
 343 0162 1A70     		strb	r2, [r3]	@ tmp299, MEM[(volatile struct PMC_MemMap *)1074253824B].LVDSC1
 156:../../cpu/arm/mkl25z/./cpu.c **** 	PMC_LVDSC2 = (PMC_LVDSC2_LVWACK_MASK);														/* Set PMC_LVDSC2: Clear LVD warning flag. LVW
 344              		.loc 1 156 0
 345 0164 4022     		mov	r2, #64	@ tmp302,
 346 0166 5A70     		strb	r2, [r3, #1]	@ tmp302, MEM[(volatile struct PMC_MemMap *)1074253824B].LVDSC2
 157:../../cpu/arm/mkl25z/./cpu.c **** 	PMC_REGSC = (uint8_t)~(PMC_REGSC_BGEN_MASK | PMC_REGSC_ACKISO_MASK | PMC_REGSC_BGBE_MASK);	/* Set 
 347              		.loc 1 157 0
 348 0168 E622     		mov	r2, #230	@ tmp305,
 349 016a 9A70     		strb	r2, [r3, #2]	@ tmp305, MEM[(volatile struct PMC_MemMap *)1074253824B].REGSC
 158:../../cpu/arm/mkl25z/./cpu.c **** 	SMC_PMPROT = (uint8_t)(SMC_PMPROT_AVLLS_MASK | SMC_PMPROT_ALLS_MASK | SMC_PMPROT_AVLP_MASK);/* Set
 350              		.loc 1 158 0
 351 016c 2A22     		mov	r2, #42	@ tmp308,
 352 016e 174B     		ldr	r3, .L19+48	@ tmp307,
 353 0170 1A70     		strb	r2, [r3]	@ tmp308, MEM[(volatile struct SMC_MemMap *)1074257920B].PMPROT
 159:../../cpu/arm/mkl25z/./cpu.c **** 	
 160:../../cpu/arm/mkl25z/./cpu.c **** 	/* CPU Pin Allocations */
ARM GAS  /tmp/cc9aNEDf.s 			page 10


 161:../../cpu/arm/mkl25z/./cpu.c **** 	PORTA_PCR20 = (uint32_t)((PORTA_PCR20 & ~0x01000000) | 0x0700);								/* Set PORTA_PCR20 as Reset
 354              		.loc 1 161 0
 355 0172 0F4B     		ldr	r3, .L19+20	@ tmp310,
 356 0174 186D     		ldr	r0, [r3, #80]	@ D.4831, MEM[(volatile struct PORT_MemMap *)1074040832B].PCR
 357 0176 0F49     		ldr	r1, .L19+24	@ tmp312,
 358 0178 0840     		and	r0, r1	@ D.4831, tmp312
 359 017a E022     		mov	r2, #224	@ tmp335,
 360 017c D200     		lsl	r2, r2, #3	@ tmp313, tmp335,
 361 017e 1043     		orr	r0, r2	@ D.4831, tmp313
 362 0180 1865     		str	r0, [r3, #80]	@ D.4831, MEM[(volatile struct PORT_MemMap *)1074040832B].PCR
 162:../../cpu/arm/mkl25z/./cpu.c **** 	PORTA_PCR4 = (uint32_t)((PORTA_PCR4 & ~0x01000000) | 0x0700);								/* Set PORTA_PCR4 as NMI, ISF
 363              		.loc 1 162 0
 364 0182 1869     		ldr	r0, [r3, #16]	@ D.4831, MEM[(volatile struct PORT_MemMap *)1074040832B].PCR
 365 0184 0140     		and	r1, r0	@ D.4831, D.4831
 366 0186 0A43     		orr	r2, r1	@ D.4831, D.4831
 367 0188 1A61     		str	r2, [r3, #16]	@ D.4831, MEM[(volatile struct PORT_MemMap *)1074040832B].PCR
 163:../../cpu/arm/mkl25z/./cpu.c **** 	
 164:../../cpu/arm/mkl25z/./cpu.c **** 	NVIC_IPR1 &= (uint32_t)~0x00FF0000;          												/* Set NVIC_IPR1: Irq 4 to 7 Priority Reg
 368              		.loc 1 164 0
 369 018a 114A     		ldr	r2, .L19+52	@ tmp320,
 370 018c C123     		mov	r3, #193	@ tmp336,
 371 018e 9B00     		lsl	r3, r3, #2	@ tmp321, tmp336,
 372 0190 D058     		ldr	r0, [r2, r3]	@ D.4831, MEM[(volatile struct NVIC_MemMap *)3758153984B].IP
 373 0192 1049     		ldr	r1, .L19+56	@ tmp322,
 374 0194 0140     		and	r1, r0	@ D.4831, D.4831
 375 0196 D150     		str	r1, [r2, r3]	@ D.4831, MEM[(volatile struct NVIC_MemMap *)3758153984B].IP
 165:../../cpu/arm/mkl25z/./cpu.c ****             
 166:../../cpu/arm/mkl25z/./cpu.c **** 	/*lint -save  -e950 Disable MISRA rule (1.1) checking. */\
 167:../../cpu/arm/mkl25z/./cpu.c **** 		asm("CPSIE i");\
 376              		.loc 1 167 0
 377              	@ 167 "../../cpu/arm/mkl25z/./cpu.c" 1
 378 0198 62B6     		CPSIE i
 379              	@ 0 "" 2
 380              		.code	16
 381              		@ sp needed	@
 382 019a 08BD     		pop	{r3, pc}
 383              	.L20:
 384              		.align	2
 385              	.L19:
 386 019c 00700440 		.word	1074032640
 387 01a0 00000110 		.word	268500992
 388 01a4 44100000 		.word	4164
 389 01a8 04100000 		.word	4100
 390 01ac FFFFFFFC 		.word	-50331649
 391 01b0 00900440 		.word	1074040832
 392 01b4 FFF8FFFE 		.word	-16779009
 393 01b8 00500640 		.word	1074155520
 394 01bc 00400640 		.word	1074151424
 395 01c0 FFFFF3FF 		.word	-786433
 396 01c4 00F00740 		.word	1074262016
 397 01c8 00D00740 		.word	1074253824
 398 01cc 00E00740 		.word	1074257920
 399 01d0 00E100E0 		.word	-536813312
 400 01d4 FFFF00FF 		.word	-16711681
 401              		.cfi_endproc
 402              	.LFE1:
 403              		.size	cpu_init, .-cpu_init
ARM GAS  /tmp/cc9aNEDf.s 			page 11


 404              		.align	2
 405              		.global	cpu_run
 406              		.code	16
 407              		.thumb_func
 408              		.type	cpu_run, %function
 409              	cpu_run:
 410              	.LFB2:
 168:../../cpu/arm/mkl25z/./cpu.c **** 	/*lint -restore Enable MISRA rule (1.1) checking. */\
 169:../../cpu/arm/mkl25z/./cpu.c **** }
 170:../../cpu/arm/mkl25z/./cpu.c **** 
 171:../../cpu/arm/mkl25z/./cpu.c **** 
 172:../../cpu/arm/mkl25z/./cpu.c **** void cpu_run(void)							/* Place core into RUN mode. */
 173:../../cpu/arm/mkl25z/./cpu.c **** {
 411              		.loc 1 173 0
 412              		.cfi_startproc
 174:../../cpu/arm/mkl25z/./cpu.c **** 	SCB_SCR &= (uint32_t)~(SCB_SCR_SLEEPDEEP_MASK | SCB_SCR_SLEEPONEXIT_MASK);		/* Clear Sleep Deep ma
 413              		.loc 1 174 0
 414 01d8 034A     		ldr	r2, .L22	@ tmp112,
 415 01da D123     		mov	r3, #209	@ tmp117,
 416 01dc 1B01     		lsl	r3, r3, #4	@ tmp113, tmp117,
 417 01de D158     		ldr	r1, [r2, r3]	@ D.4834, MEM[(volatile struct SCB_MemMap *)3758153728B].SCR
 418 01e0 0620     		mov	r0, #6	@ tmp114,
 419 01e2 8143     		bic	r1, r0	@ D.4834, tmp114
 420 01e4 D150     		str	r1, [r2, r3]	@ D.4834, MEM[(volatile struct SCB_MemMap *)3758153728B].SCR
 175:../../cpu/arm/mkl25z/./cpu.c **** }
 421              		.loc 1 175 0
 422              		@ sp needed	@
 423 01e6 7047     		bx	lr
 424              	.L23:
 425              		.align	2
 426              	.L22:
 427 01e8 00E000E0 		.word	-536813568
 428              		.cfi_endproc
 429              	.LFE2:
 430              		.size	cpu_run, .-cpu_run
 431              		.align	2
 432              		.global	cpu_wait
 433              		.code	16
 434              		.thumb_func
 435              		.type	cpu_wait, %function
 436              	cpu_wait:
 437              	.LFB3:
 176:../../cpu/arm/mkl25z/./cpu.c **** 
 177:../../cpu/arm/mkl25z/./cpu.c **** void cpu_wait(void)							/* Place Core into WAIT mode (or VLPW if in VLPR). */
 178:../../cpu/arm/mkl25z/./cpu.c **** {
 438              		.loc 1 178 0
 439              		.cfi_startproc
 179:../../cpu/arm/mkl25z/./cpu.c **** 	SCB_SCR &= (uint32_t)~(SCB_SCR_SLEEPDEEP_MASK); 								/* Clear Sleep Deep mask so that WFI puts 
 440              		.loc 1 179 0
 441 01ec 074A     		ldr	r2, .L25	@ tmp114,
 442 01ee D123     		mov	r3, #209	@ tmp124,
 443 01f0 1B01     		lsl	r3, r3, #4	@ tmp115, tmp124,
 444 01f2 D158     		ldr	r1, [r2, r3]	@ D.4836, MEM[(volatile struct SCB_MemMap *)3758153728B].SCR
 445 01f4 0420     		mov	r0, #4	@ tmp116,
 446 01f6 8143     		bic	r1, r0	@ D.4836, tmp116
 447 01f8 D150     		str	r1, [r2, r3]	@ D.4836, MEM[(volatile struct SCB_MemMap *)3758153728B].SCR
 180:../../cpu/arm/mkl25z/./cpu.c **** 	SCB_SCR |= (uint32_t)SCB_SCR_SLEEPONEXIT_MASK; 									/* Set Sleep On Exit mask so that CPU retu
ARM GAS  /tmp/cc9aNEDf.s 			page 12


 448              		.loc 1 180 0
 449 01fa D058     		ldr	r0, [r2, r3]	@ D.4836, MEM[(volatile struct SCB_MemMap *)3758153728B].SCR
 450 01fc 0221     		mov	r1, #2	@ tmp121,
 451 01fe 0143     		orr	r1, r0	@ D.4836, D.4836
 452 0200 D150     		str	r1, [r2, r3]	@ D.4836, MEM[(volatile struct SCB_MemMap *)3758153728B].SCR
 181:../../cpu/arm/mkl25z/./cpu.c **** 	asm("DSB");																		/* DSB instruction to ensure effect of of previous writes.  See http:
 453              		.loc 1 181 0
 454              	@ 181 "../../cpu/arm/mkl25z/./cpu.c" 1
 455 0202 BFF34F8F 		DSB
 456              	@ 0 "" 2
 182:../../cpu/arm/mkl25z/./cpu.c **** 	asm("WFI");																		/* Enter sleep/wait. Page 141 to 143. */
 457              		.loc 1 182 0
 458              	@ 182 "../../cpu/arm/mkl25z/./cpu.c" 1
 459 0206 30BF     		WFI
 460              	@ 0 "" 2
 183:../../cpu/arm/mkl25z/./cpu.c **** }
 461              		.loc 1 183 0
 462              		.code	16
 463              		@ sp needed	@
 464 0208 7047     		bx	lr
 465              	.L26:
 466 020a C046     		.align	2
 467              	.L25:
 468 020c 00E000E0 		.word	-536813568
 469              		.cfi_endproc
 470              	.LFE3:
 471              		.size	cpu_wait, .-cpu_wait
 472              		.align	2
 473              		.global	cpu_stop
 474              		.code	16
 475              		.thumb_func
 476              		.type	cpu_stop, %function
 477              	cpu_stop:
 478              	.LFB4:
 184:../../cpu/arm/mkl25z/./cpu.c **** 
 185:../../cpu/arm/mkl25z/./cpu.c **** void cpu_stop(Type_StopMode StopMode)		/* Place core into one of the STOP modes. Similar to ARM Dee
 186:../../cpu/arm/mkl25z/./cpu.c **** {
 479              		.loc 1 186 0
 480              		.cfi_startproc
 481              	.LVL3:
 482 0210 10B5     		push	{r4, lr}	@
 483              	.LCFI2:
 484              		.cfi_def_cfa_offset 8
 485              		.cfi_offset 4, -8
 486              		.cfi_offset 14, -4
 187:../../cpu/arm/mkl25z/./cpu.c **** 	/* Clear Low Leakage Wakeup Unit flags */
 188:../../cpu/arm/mkl25z/./cpu.c **** 	LLWU_F1 = (uint8_t)0xFF;														/* CLear LLWU_F1: Write 1 to all bits. Page 255. */
 487              		.loc 1 188 0
 488 0212 534B     		ldr	r3, .L39	@ tmp160,
 489 0214 FF22     		mov	r2, #255	@ tmp161,
 490 0216 5A71     		strb	r2, [r3, #5]	@ tmp161, MEM[(volatile struct LLWU_MemMap *)1074249728B].F1
 189:../../cpu/arm/mkl25z/./cpu.c **** 	LLWU_F2 = (uint8_t)0xFF;														/* CLear LLWU_F2: Write 1 to all bits. Page 257. */
 491              		.loc 1 189 0
 492 0218 9A71     		strb	r2, [r3, #6]	@ tmp161, MEM[(volatile struct LLWU_MemMap *)1074249728B].F2
 190:../../cpu/arm/mkl25z/./cpu.c **** 	LLWU_F3 = (uint8_t)0xFF;														/* CLear LLWU_F3: Write 1 to all bits. Page 258. */
 493              		.loc 1 190 0
 494 021a DA71     		strb	r2, [r3, #7]	@ tmp161, MEM[(volatile struct LLWU_MemMap *)1074249728B].F3
ARM GAS  /tmp/cc9aNEDf.s 			page 13


 191:../../cpu/arm/mkl25z/./cpu.c **** 	LLWU_FILT1 |= LLWU_FILT1_FILTF_MASK;											/* Clear LLWU_FILT1: Write 1 to FILTF bit. Page 260
 495              		.loc 1 191 0
 496 021c 9968     		ldr	r1, [r3, #8]	@ tmp170,
 497 021e C9B2     		uxtb	r1, r1	@ D.4838, tmp170
 498 0220 8022     		mov	r2, #128	@ tmp370,
 499 0222 5242     		neg	r2, r2	@ tmp172, tmp370
 500 0224 1143     		orr	r1, r2	@ tmp171, tmp172
 501 0226 C9B2     		uxtb	r1, r1	@ D.4838, tmp171
 502 0228 1972     		strb	r1, [r3, #8]	@ D.4838, MEM[(volatile struct LLWU_MemMap *)1074249728B].FILT1
 192:../../cpu/arm/mkl25z/./cpu.c **** 	LLWU_FILT2 |= LLWU_FILT2_FILTF_MASK;											/* Clear LLWU_FILT2: Write 1 to FILTF bit. Page 261
 503              		.loc 1 192 0
 504 022a 9968     		ldr	r1, [r3, #8]	@ tmp176,
 505 022c 0904     		lsl	r1, r1, #16	@ tmp178, tmp176,
 506 022e 090E     		lsr	r1, r1, #24	@ D.4838, tmp178,
 507 0230 0A43     		orr	r2, r1	@ tmp179, D.4838
 508 0232 D2B2     		uxtb	r2, r2	@ D.4838, tmp179
 509 0234 5A72     		strb	r2, [r3, #9]	@ D.4838, MEM[(volatile struct LLWU_MemMap *)1074249728B].FILT2
 193:../../cpu/arm/mkl25z/./cpu.c **** 		
 194:../../cpu/arm/mkl25z/./cpu.c **** 	SCB_SCR |= (uint32_t)(SCB_SCR_SLEEPDEEP_MASK); 									/* Set Sleep Deep mask so that WFI puts CP
 510              		.loc 1 194 0
 511 0236 4B4A     		ldr	r2, .L39+4	@ tmp183,
 512 0238 D123     		mov	r3, #209	@ tmp371,
 513 023a 1B01     		lsl	r3, r3, #4	@ tmp184, tmp371,
 514 023c D458     		ldr	r4, [r2, r3]	@ D.4839, MEM[(volatile struct SCB_MemMap *)3758153728B].SCR
 515 023e 0421     		mov	r1, #4	@ tmp185,
 516 0240 2143     		orr	r1, r4	@ D.4839, D.4839
 517 0242 D150     		str	r1, [r2, r3]	@ D.4839, MEM[(volatile struct SCB_MemMap *)3758153728B].SCR
 195:../../cpu/arm/mkl25z/./cpu.c **** 	
 196:../../cpu/arm/mkl25z/./cpu.c **** 	switch(StopMode) {																/* Set the stop mode */
 518              		.loc 1 196 0
 519 0244 0728     		cmp	r0, #7	@ StopMode,
 520 0246 77D8     		bhi	.L28	@,
 521 0248 8000     		lsl	r0, r0, #2	@ tmp188, StopMode,
 522              	.LVL4:
 523 024a 474B     		ldr	r3, .L39+8	@ tmp190,
 524 024c 1B58     		ldr	r3, [r3, r0]	@ tmp191,
 525 024e 9F46     		mov	pc, r3	@ tmp191
 526              		.section	.rodata
 527              		.align	2
 528              	.L30:
 529 0000 50020000 		.word	.L29
 530 0004 68020000 		.word	.L31
 531 0008 84020000 		.word	.L32
 532 000c B4020000 		.word	.L33
 533 0010 A0020000 		.word	.L34
 534 0014 C8020000 		.word	.L35
 535 0018 F0020000 		.word	.L36
 536 001c 14030000 		.word	.L37
 537              		.text
 538              	.L29:
 197:../../cpu/arm/mkl25z/./cpu.c **** 		case Mode_Stop:	
 198:../../cpu/arm/mkl25z/./cpu.c **** 							SMC_PMCTRL = (uint8_t)((SMC_PMCTRL & ~SMC_PMCTRL_STOPM_MASK) | 0x00);			/* Set SMC_PMCTRL: N
 539              		.loc 1 198 0
 540 0250 464B     		ldr	r3, .L39+12	@ tmp192,
 541 0252 1A68     		ldr	r2, [r3]	@ tmp193,
 542 0254 1204     		lsl	r2, r2, #16	@ tmp195, tmp193,
 543 0256 120E     		lsr	r2, r2, #24	@ D.4838, tmp195,
ARM GAS  /tmp/cc9aNEDf.s 			page 14


 544 0258 0721     		mov	r1, #7	@ tmp197,
 545 025a 8A43     		bic	r2, r1	@ D.4838, tmp197
 546 025c 5A70     		strb	r2, [r3, #1]	@ D.4838, MEM[(volatile struct SMC_MemMap *)1074257920B].PMCTRL
 199:../../cpu/arm/mkl25z/./cpu.c **** 							SMC_STOPCTRL = (uint8_t)((SMC_STOPCTRL & ~SMC_STOPCTRL_PSTOPO_MASK) | 0x00);	/* Set SMC_STOP
 547              		.loc 1 199 0
 548 025e 1A68     		ldr	r2, [r3]	@ tmp201,
 549 0260 9202     		lsl	r2, r2, #10	@ tmp207, tmp201,
 550 0262 920E     		lsr	r2, r2, #26	@ D.4838, tmp207,
 551 0264 9A70     		strb	r2, [r3, #2]	@ D.4838, MEM[(volatile struct SMC_MemMap *)1074257920B].STOPCTRL
 200:../../cpu/arm/mkl25z/./cpu.c **** 							break;
 552              		.loc 1 200 0
 553 0266 6EE0     		b	.L38	@
 554              	.L31:
 201:../../cpu/arm/mkl25z/./cpu.c **** 		
 202:../../cpu/arm/mkl25z/./cpu.c **** 		case Mode_PStop1:	
 203:../../cpu/arm/mkl25z/./cpu.c **** 							SMC_PMCTRL = (uint8_t)((SMC_PMCTRL & ~SMC_PMCTRL_STOPM_MASK) | 0x00);			/* Set SMC_PMCTRL: N
 555              		.loc 1 203 0
 556 0268 404B     		ldr	r3, .L39+12	@ tmp210,
 557 026a 1A68     		ldr	r2, [r3]	@ tmp211,
 558 026c 1204     		lsl	r2, r2, #16	@ tmp213, tmp211,
 559 026e 120E     		lsr	r2, r2, #24	@ D.4838, tmp213,
 560 0270 0721     		mov	r1, #7	@ tmp215,
 561 0272 8A43     		bic	r2, r1	@ D.4838, tmp215
 562 0274 5A70     		strb	r2, [r3, #1]	@ D.4838, MEM[(volatile struct SMC_MemMap *)1074257920B].PMCTRL
 204:../../cpu/arm/mkl25z/./cpu.c **** 							SMC_STOPCTRL = (uint8_t)((SMC_STOPCTRL & ~SMC_STOPCTRL_PSTOPO_MASK) | 0x40);	/* Set SMC_STOP
 563              		.loc 1 204 0
 564 0276 1A68     		ldr	r2, [r3]	@ tmp219,
 565 0278 9202     		lsl	r2, r2, #10	@ tmp225, tmp219,
 566 027a 920E     		lsr	r2, r2, #26	@ tmp224, tmp225,
 567 027c 4021     		mov	r1, #64	@ tmp229,
 568 027e 0A43     		orr	r2, r1	@ D.4838, tmp229
 569 0280 9A70     		strb	r2, [r3, #2]	@ D.4838, MEM[(volatile struct SMC_MemMap *)1074257920B].STOPCTRL
 205:../../cpu/arm/mkl25z/./cpu.c **** 							break;
 570              		.loc 1 205 0
 571 0282 60E0     		b	.L38	@
 572              	.L32:
 206:../../cpu/arm/mkl25z/./cpu.c **** 			
 207:../../cpu/arm/mkl25z/./cpu.c **** 		case Mode_PStop2:	
 208:../../cpu/arm/mkl25z/./cpu.c **** 							SMC_PMCTRL = (uint8_t)((SMC_PMCTRL & ~SMC_PMCTRL_STOPM_MASK) | 0x00);			/* Set SMC_PMCTRL: N
 573              		.loc 1 208 0
 574 0284 394B     		ldr	r3, .L39+12	@ tmp232,
 575 0286 1A68     		ldr	r2, [r3]	@ tmp233,
 576 0288 1204     		lsl	r2, r2, #16	@ tmp235, tmp233,
 577 028a 120E     		lsr	r2, r2, #24	@ D.4838, tmp235,
 578 028c 0721     		mov	r1, #7	@ tmp237,
 579 028e 8A43     		bic	r2, r1	@ D.4838, tmp237
 580 0290 5A70     		strb	r2, [r3, #1]	@ D.4838, MEM[(volatile struct SMC_MemMap *)1074257920B].PMCTRL
 209:../../cpu/arm/mkl25z/./cpu.c **** 							SMC_STOPCTRL = (uint8_t)((SMC_STOPCTRL & ~SMC_STOPCTRL_PSTOPO_MASK) | 0x80);	/* Set SMC_STOP
 581              		.loc 1 209 0
 582 0292 1A68     		ldr	r2, [r3]	@ tmp241,
 583 0294 9202     		lsl	r2, r2, #10	@ tmp247, tmp241,
 584 0296 920E     		lsr	r2, r2, #26	@ tmp246, tmp247,
 585 0298 8021     		mov	r1, #128	@ tmp249,
 586 029a 0A43     		orr	r2, r1	@ D.4838, tmp249
 587 029c 9A70     		strb	r2, [r3, #2]	@ D.4838, MEM[(volatile struct SMC_MemMap *)1074257920B].STOPCTRL
 210:../../cpu/arm/mkl25z/./cpu.c **** 							break;
 588              		.loc 1 210 0
ARM GAS  /tmp/cc9aNEDf.s 			page 15


 589 029e 52E0     		b	.L38	@
 590              	.L34:
 211:../../cpu/arm/mkl25z/./cpu.c **** 			
 212:../../cpu/arm/mkl25z/./cpu.c **** 		case Mode_VLPS:	
 213:../../cpu/arm/mkl25z/./cpu.c **** 							SMC_PMCTRL = (uint8_t)((SMC_PMCTRL & ~SMC_PMCTRL_STOPM_MASK) | 0x02);			/* Set SMC_PMCTRL: V
 591              		.loc 1 213 0
 592 02a0 324B     		ldr	r3, .L39+12	@ tmp253,
 593 02a2 1A68     		ldr	r2, [r3]	@ tmp254,
 594 02a4 1204     		lsl	r2, r2, #16	@ tmp256, tmp254,
 595 02a6 120E     		lsr	r2, r2, #24	@ D.4838, tmp256,
 596 02a8 0721     		mov	r1, #7	@ tmp258,
 597 02aa 8A43     		bic	r2, r1	@ tmp257, tmp258
 598 02ac 0221     		mov	r1, #2	@ tmp262,
 599 02ae 0A43     		orr	r2, r1	@ D.4838, tmp262
 600 02b0 5A70     		strb	r2, [r3, #1]	@ D.4838, MEM[(volatile struct SMC_MemMap *)1074257920B].PMCTRL
 214:../../cpu/arm/mkl25z/./cpu.c **** 							break;
 601              		.loc 1 214 0
 602 02b2 48E0     		b	.L38	@
 603              	.L33:
 215:../../cpu/arm/mkl25z/./cpu.c **** 						
 216:../../cpu/arm/mkl25z/./cpu.c **** 		case Mode_LLS:	
 217:../../cpu/arm/mkl25z/./cpu.c **** 							SMC_PMCTRL = (uint8_t)((SMC_PMCTRL & ~SMC_PMCTRL_STOPM_MASK) | 0x03);			/* Set SMC_PMCTRL: L
 604              		.loc 1 217 0
 605 02b4 2D4B     		ldr	r3, .L39+12	@ tmp265,
 606 02b6 1A68     		ldr	r2, [r3]	@ tmp266,
 607 02b8 1204     		lsl	r2, r2, #16	@ tmp268, tmp266,
 608 02ba 120E     		lsr	r2, r2, #24	@ D.4838, tmp268,
 609 02bc 0721     		mov	r1, #7	@ tmp270,
 610 02be 8A43     		bic	r2, r1	@ tmp269, tmp270
 611 02c0 0321     		mov	r1, #3	@ tmp274,
 612 02c2 0A43     		orr	r2, r1	@ D.4838, tmp274
 613 02c4 5A70     		strb	r2, [r3, #1]	@ D.4838, MEM[(volatile struct SMC_MemMap *)1074257920B].PMCTRL
 218:../../cpu/arm/mkl25z/./cpu.c **** 							break;
 614              		.loc 1 218 0
 615 02c6 3EE0     		b	.L38	@
 616              	.L35:
 219:../../cpu/arm/mkl25z/./cpu.c **** 						
 220:../../cpu/arm/mkl25z/./cpu.c **** 		case Mode_VLLS0:	
 221:../../cpu/arm/mkl25z/./cpu.c **** 							SMC_PMCTRL = (uint8_t)((SMC_PMCTRL & ~SMC_PMCTRL_STOPM_MASK) | 0x04);			/* Set SMC_PMCTRL: V
 617              		.loc 1 221 0
 618 02c8 284B     		ldr	r3, .L39+12	@ tmp277,
 619 02ca 1A68     		ldr	r2, [r3]	@ tmp278,
 620 02cc 1204     		lsl	r2, r2, #16	@ tmp280, tmp278,
 621 02ce 120E     		lsr	r2, r2, #24	@ D.4838, tmp280,
 622 02d0 0721     		mov	r1, #7	@ tmp282,
 623 02d2 8A43     		bic	r2, r1	@ tmp281, tmp282
 624 02d4 0421     		mov	r1, #4	@ tmp286,
 625 02d6 0A43     		orr	r2, r1	@ D.4838, tmp286
 626 02d8 5A70     		strb	r2, [r3, #1]	@ D.4838, MEM[(volatile struct SMC_MemMap *)1074257920B].PMCTRL
 222:../../cpu/arm/mkl25z/./cpu.c **** 							SMC_STOPCTRL = (uint8_t)((SMC_STOPCTRL & ~SMC_STOPCTRL_VLLSM_MASK) | 0x40);		/* Set SMC_STOP
 627              		.loc 1 222 0
 628 02da 1A68     		ldr	r2, [r3]	@ tmp290,
 629 02dc 1202     		lsl	r2, r2, #8	@ tmp292, tmp290,
 630 02de 120E     		lsr	r2, r2, #24	@ D.4838, tmp292,
 631 02e0 4721     		mov	r1, #71	@ tmp294,
 632 02e2 8A43     		bic	r2, r1	@ tmp293, tmp294
 633 02e4 4021     		mov	r1, #64	@ tmp298,
ARM GAS  /tmp/cc9aNEDf.s 			page 16


 634 02e6 0A43     		orr	r2, r1	@ D.4838, tmp298
 635 02e8 9A70     		strb	r2, [r3, #2]	@ D.4838, MEM[(volatile struct SMC_MemMap *)1074257920B].STOPCTRL
 223:../../cpu/arm/mkl25z/./cpu.c **** 							SMC_STOPCTRL = SMC_STOPCTRL_PORPO_MASK;											/* Set SMC_STOPCTRL: Disable POR in VLLS0.
 636              		.loc 1 223 0
 637 02ea 2022     		mov	r2, #32	@ tmp302,
 638 02ec 9A70     		strb	r2, [r3, #2]	@ tmp302, MEM[(volatile struct SMC_MemMap *)1074257920B].STOPCTRL
 224:../../cpu/arm/mkl25z/./cpu.c **** 							break;
 639              		.loc 1 224 0
 640 02ee 2AE0     		b	.L38	@
 641              	.L36:
 225:../../cpu/arm/mkl25z/./cpu.c **** 						
 226:../../cpu/arm/mkl25z/./cpu.c **** 		case Mode_VLLS1:	
 227:../../cpu/arm/mkl25z/./cpu.c **** 							SMC_PMCTRL = (uint8_t)((SMC_PMCTRL & ~SMC_PMCTRL_STOPM_MASK) | 0x04);			/* Set SMC_PMCTRL: V
 642              		.loc 1 227 0
 643 02f0 1E4B     		ldr	r3, .L39+12	@ tmp304,
 644 02f2 1968     		ldr	r1, [r3]	@ tmp305,
 645 02f4 0904     		lsl	r1, r1, #16	@ tmp307, tmp305,
 646 02f6 090E     		lsr	r1, r1, #24	@ D.4838, tmp307,
 647 02f8 0722     		mov	r2, #7	@ tmp309,
 648 02fa 9143     		bic	r1, r2	@ tmp308, tmp309
 649 02fc 0420     		mov	r0, #4	@ tmp313,
 650 02fe 0143     		orr	r1, r0	@ D.4838, tmp313
 651 0300 5970     		strb	r1, [r3, #1]	@ D.4838, MEM[(volatile struct SMC_MemMap *)1074257920B].PMCTRL
 228:../../cpu/arm/mkl25z/./cpu.c **** 							SMC_STOPCTRL = (uint8_t)((SMC_STOPCTRL & ~SMC_STOPCTRL_VLLSM_MASK) | 0x01);		/* Set SMC_STOP
 652              		.loc 1 228 0
 653 0302 1968     		ldr	r1, [r3]	@ tmp317,
 654 0304 0902     		lsl	r1, r1, #8	@ tmp319, tmp317,
 655 0306 090E     		lsr	r1, r1, #24	@ D.4838, tmp319,
 656 0308 9143     		bic	r1, r2	@ D.4838, tmp309
 657 030a 0A1C     		mov	r2, r1	@ tmp320, D.4838
 658 030c 0121     		mov	r1, #1	@ tmp325,
 659 030e 0A43     		orr	r2, r1	@ D.4838, tmp325
 660 0310 9A70     		strb	r2, [r3, #2]	@ D.4838, MEM[(volatile struct SMC_MemMap *)1074257920B].STOPCTRL
 229:../../cpu/arm/mkl25z/./cpu.c **** 							break;
 661              		.loc 1 229 0
 662 0312 18E0     		b	.L38	@
 663              	.L37:
 230:../../cpu/arm/mkl25z/./cpu.c **** 						
 231:../../cpu/arm/mkl25z/./cpu.c **** 		case Mode_VLLS3:	
 232:../../cpu/arm/mkl25z/./cpu.c **** 							SMC_PMCTRL = (uint8_t)((SMC_PMCTRL & ~SMC_PMCTRL_STOPM_MASK) | 0x04);			/* Set SMC_PMCTRL: V
 664              		.loc 1 232 0
 665 0314 154B     		ldr	r3, .L39+12	@ tmp328,
 666 0316 1968     		ldr	r1, [r3]	@ tmp329,
 667 0318 0904     		lsl	r1, r1, #16	@ tmp331, tmp329,
 668 031a 090E     		lsr	r1, r1, #24	@ D.4838, tmp331,
 669 031c 0722     		mov	r2, #7	@ tmp333,
 670 031e 9143     		bic	r1, r2	@ tmp332, tmp333
 671 0320 0420     		mov	r0, #4	@ tmp337,
 672 0322 0143     		orr	r1, r0	@ D.4838, tmp337
 673 0324 5970     		strb	r1, [r3, #1]	@ D.4838, MEM[(volatile struct SMC_MemMap *)1074257920B].PMCTRL
 233:../../cpu/arm/mkl25z/./cpu.c **** 							SMC_STOPCTRL = (uint8_t)((SMC_STOPCTRL & ~SMC_STOPCTRL_VLLSM_MASK) | 0x03);		/* Set SMC_STOP
 674              		.loc 1 233 0
 675 0326 1968     		ldr	r1, [r3]	@ tmp341,
 676 0328 0902     		lsl	r1, r1, #8	@ tmp343, tmp341,
 677 032a 090E     		lsr	r1, r1, #24	@ D.4838, tmp343,
 678 032c 9143     		bic	r1, r2	@ D.4838, tmp333
 679 032e 0A1C     		mov	r2, r1	@ tmp344, D.4838
ARM GAS  /tmp/cc9aNEDf.s 			page 17


 680 0330 0321     		mov	r1, #3	@ tmp349,
 681 0332 0A43     		orr	r2, r1	@ D.4838, tmp349
 682 0334 9A70     		strb	r2, [r3, #2]	@ D.4838, MEM[(volatile struct SMC_MemMap *)1074257920B].STOPCTRL
 234:../../cpu/arm/mkl25z/./cpu.c **** 							break;
 683              		.loc 1 234 0
 684 0336 06E0     		b	.L38	@
 685              	.LVL5:
 686              	.L28:
 235:../../cpu/arm/mkl25z/./cpu.c **** 		
 236:../../cpu/arm/mkl25z/./cpu.c **** 		default:			SMC_PMCTRL = (uint8_t)((SMC_PMCTRL & ~SMC_PMCTRL_STOPM_MASK) | 0x00);			/* Default to 
 687              		.loc 1 236 0
 688 0338 0C4B     		ldr	r3, .L39+12	@ tmp352,
 689 033a 1A68     		ldr	r2, [r3]	@ tmp353,
 690 033c 1204     		lsl	r2, r2, #16	@ tmp355, tmp353,
 691 033e 120E     		lsr	r2, r2, #24	@ D.4838, tmp355,
 692 0340 0721     		mov	r1, #7	@ tmp357,
 693 0342 8A43     		bic	r2, r1	@ D.4838, tmp357
 694 0344 5A70     		strb	r2, [r3, #1]	@ D.4838, MEM[(volatile struct SMC_MemMap *)1074257920B].PMCTRL
 695              	.LVL6:
 696              	.L38:
 237:../../cpu/arm/mkl25z/./cpu.c **** 	}
 238:../../cpu/arm/mkl25z/./cpu.c **** 	
 239:../../cpu/arm/mkl25z/./cpu.c **** 	SCB_SCR &= (uint32_t)~(SCB_SCR_SLEEPONEXIT_MASK);								/* Clear Sleep On Exit mask so that CPU d
 697              		.loc 1 239 0
 698 0346 074A     		ldr	r2, .L39+4	@ tmp360,
 699 0348 D123     		mov	r3, #209	@ tmp369,
 700 034a 1B01     		lsl	r3, r3, #4	@ tmp361, tmp369,
 701 034c D158     		ldr	r1, [r2, r3]	@ D.4839, MEM[(volatile struct SCB_MemMap *)3758153728B].SCR
 702 034e 0220     		mov	r0, #2	@ tmp362,
 703 0350 8143     		bic	r1, r0	@ D.4839, tmp362
 704 0352 D150     		str	r1, [r2, r3]	@ D.4839, MEM[(volatile struct SCB_MemMap *)3758153728B].SCR
 240:../../cpu/arm/mkl25z/./cpu.c **** 	//SCB_SCR |= (uint32_t)SCB_SCR_SLEEPONEXIT_MASK; 									/* Set Sleep On Exit mask so that CPU re
 241:../../cpu/arm/mkl25z/./cpu.c **** 	(void)(SMC_PMCTRL == 0);        												/* Dummy read of SMC_PMCTRL to ensure the register is 
 705              		.loc 1 241 0
 706 0354 054B     		ldr	r3, .L39+12	@ tmp365,
 707 0356 1B68     		ldr	r3, [r3]	@ tmp366,
 242:../../cpu/arm/mkl25z/./cpu.c **** 	asm("DSB");																		/* DSB instruction to ensure effect of of previous writes.  See http:
 708              		.loc 1 242 0
 709              	@ 242 "../../cpu/arm/mkl25z/./cpu.c" 1
 710 0358 BFF34F8F 		DSB
 711              	@ 0 "" 2
 243:../../cpu/arm/mkl25z/./cpu.c **** 	asm("WFI");																		/* Enter sleep/wait. Page 141 to 143. */
 712              		.loc 1 243 0
 713              	@ 243 "../../cpu/arm/mkl25z/./cpu.c" 1
 714 035c 30BF     		WFI
 715              	@ 0 "" 2
 244:../../cpu/arm/mkl25z/./cpu.c **** }
 716              		.loc 1 244 0
 717              		.code	16
 718              		@ sp needed	@
 719 035e 10BD     		pop	{r4, pc}
 720              	.L40:
 721              		.align	2
 722              	.L39:
 723 0360 00C00740 		.word	1074249728
 724 0364 00E000E0 		.word	-536813568
 725 0368 00000000 		.word	.L30
ARM GAS  /tmp/cc9aNEDf.s 			page 18


 726 036c 00E00740 		.word	1074257920
 727              		.cfi_endproc
 728              	.LFE4:
 729              		.size	cpu_stop, .-cpu_stop
 730              		.align	2
 731              		.global	NMI_Handler
 732              		.code	16
 733              		.thumb_func
 734              		.type	NMI_Handler, %function
 735              	NMI_Handler:
 736              	.LFB5:
 245:../../cpu/arm/mkl25z/./cpu.c **** 
 246:../../cpu/arm/mkl25z/./cpu.c **** 
 247:../../cpu/arm/mkl25z/./cpu.c **** void NMI_Handler(void)		/* NMI Interrupt Handler.  Required as NMI fires during init and default ca
 248:../../cpu/arm/mkl25z/./cpu.c **** {
 737              		.loc 1 248 0
 738              		.cfi_startproc
 249:../../cpu/arm/mkl25z/./cpu.c **** 	;
 250:../../cpu/arm/mkl25z/./cpu.c **** }
 739              		.loc 1 250 0
 740              		@ sp needed	@
 741 0370 7047     		bx	lr
 742              		.cfi_endproc
 743              	.LFE5:
 744              		.size	NMI_Handler, .-NMI_Handler
 745              	.Letext0:
 746              		.file 2 "/home/glacsweb/arm-gcc/ARM_GCC_Support/ewl/EWL_C/include/cstdint"
 747              		.file 3 "../../cpu/arm/mkl25z/MKL25Z4.h"
 748              		.file 4 "../../cpu/arm/mkl25z/./cpu.h"
 749 0372 C046     		.section	.debug_info,"",%progbits
 750              	.Ldebug_info0:
 751 0000 75090000 		.4byte	0x975
 752 0004 0200     		.2byte	0x2
 753 0006 00000000 		.4byte	.Ldebug_abbrev0
 754 000a 04       		.byte	0x4
 755 000b 01       		.uleb128 0x1
 756 000c 21010000 		.4byte	.LASF106
 757 0010 01       		.byte	0x1
 758 0011 62020000 		.4byte	.LASF107
 759 0015 DE020000 		.4byte	.LASF108
 760 0019 00000000 		.4byte	.Ltext0
 761 001d 72030000 		.4byte	.Letext0
 762 0021 00000000 		.4byte	.Ldebug_line0
 763 0025 02       		.uleb128 0x2
 764 0026 04       		.byte	0x4
 765 0027 05       		.byte	0x5
 766 0028 696E7400 		.ascii	"int\000"
 767 002c 03       		.uleb128 0x3
 768 002d 01       		.byte	0x1
 769 002e 06       		.byte	0x6
 770 002f 68040000 		.4byte	.LASF0
 771 0033 03       		.uleb128 0x3
 772 0034 02       		.byte	0x2
 773 0035 05       		.byte	0x5
 774 0036 25030000 		.4byte	.LASF1
 775 003a 03       		.uleb128 0x3
 776 003b 04       		.byte	0x4
ARM GAS  /tmp/cc9aNEDf.s 			page 19


 777 003c 05       		.byte	0x5
 778 003d 2F030000 		.4byte	.LASF2
 779 0041 03       		.uleb128 0x3
 780 0042 08       		.byte	0x8
 781 0043 05       		.byte	0x5
 782 0044 46020000 		.4byte	.LASF3
 783 0048 04       		.uleb128 0x4
 784 0049 1B020000 		.4byte	.LASF6
 785 004d 02       		.byte	0x2
 786 004e 2A       		.byte	0x2a
 787 004f 53000000 		.4byte	0x53
 788 0053 03       		.uleb128 0x3
 789 0054 01       		.byte	0x1
 790 0055 08       		.byte	0x8
 791 0056 A6030000 		.4byte	.LASF4
 792 005a 03       		.uleb128 0x3
 793 005b 02       		.byte	0x2
 794 005c 07       		.byte	0x7
 795 005d 74040000 		.4byte	.LASF5
 796 0061 04       		.uleb128 0x4
 797 0062 A9000000 		.4byte	.LASF7
 798 0066 02       		.byte	0x2
 799 0067 2C       		.byte	0x2c
 800 0068 6C000000 		.4byte	0x6c
 801 006c 03       		.uleb128 0x3
 802 006d 04       		.byte	0x4
 803 006e 07       		.byte	0x7
 804 006f 8B030000 		.4byte	.LASF8
 805 0073 03       		.uleb128 0x3
 806 0074 08       		.byte	0x8
 807 0075 07       		.byte	0x7
 808 0076 C2000000 		.4byte	.LASF9
 809 007a 03       		.uleb128 0x3
 810 007b 04       		.byte	0x4
 811 007c 07       		.byte	0x7
 812 007d 7D030000 		.4byte	.LASF10
 813 0081 05       		.uleb128 0x5
 814 0082 48000000 		.4byte	0x48
 815 0086 91000000 		.4byte	0x91
 816 008a 06       		.uleb128 0x6
 817 008b 7A000000 		.4byte	0x7a
 818 008f 03       		.byte	0x3
 819 0090 00       		.byte	0
 820 0091 05       		.uleb128 0x5
 821 0092 48000000 		.4byte	0x48
 822 0096 A1000000 		.4byte	0xa1
 823 009a 06       		.uleb128 0x6
 824 009b 7A000000 		.4byte	0x7a
 825 009f 17       		.byte	0x17
 826 00a0 00       		.byte	0
 827 00a1 07       		.uleb128 0x7
 828 00a2 3E040000 		.4byte	.LASF14
 829 00a6 0A       		.byte	0xa
 830 00a7 03       		.byte	0x3
 831 00a8 4F08     		.2byte	0x84f
 832 00aa 41010000 		.4byte	0x141
 833 00ae 08       		.uleb128 0x8
ARM GAS  /tmp/cc9aNEDf.s 			page 20


 834 00af 50453100 		.ascii	"PE1\000"
 835 00b3 03       		.byte	0x3
 836 00b4 5008     		.2byte	0x850
 837 00b6 48000000 		.4byte	0x48
 838 00ba 02       		.byte	0x2
 839 00bb 23       		.byte	0x23
 840 00bc 00       		.uleb128 0
 841 00bd 08       		.uleb128 0x8
 842 00be 50453200 		.ascii	"PE2\000"
 843 00c2 03       		.byte	0x3
 844 00c3 5108     		.2byte	0x851
 845 00c5 48000000 		.4byte	0x48
 846 00c9 02       		.byte	0x2
 847 00ca 23       		.byte	0x23
 848 00cb 01       		.uleb128 0x1
 849 00cc 08       		.uleb128 0x8
 850 00cd 50453300 		.ascii	"PE3\000"
 851 00d1 03       		.byte	0x3
 852 00d2 5208     		.2byte	0x852
 853 00d4 48000000 		.4byte	0x48
 854 00d8 02       		.byte	0x2
 855 00d9 23       		.byte	0x23
 856 00da 02       		.uleb128 0x2
 857 00db 08       		.uleb128 0x8
 858 00dc 50453400 		.ascii	"PE4\000"
 859 00e0 03       		.byte	0x3
 860 00e1 5308     		.2byte	0x853
 861 00e3 48000000 		.4byte	0x48
 862 00e7 02       		.byte	0x2
 863 00e8 23       		.byte	0x23
 864 00e9 03       		.uleb128 0x3
 865 00ea 08       		.uleb128 0x8
 866 00eb 4D4500   		.ascii	"ME\000"
 867 00ee 03       		.byte	0x3
 868 00ef 5408     		.2byte	0x854
 869 00f1 48000000 		.4byte	0x48
 870 00f5 02       		.byte	0x2
 871 00f6 23       		.byte	0x23
 872 00f7 04       		.uleb128 0x4
 873 00f8 08       		.uleb128 0x8
 874 00f9 463100   		.ascii	"F1\000"
 875 00fc 03       		.byte	0x3
 876 00fd 5508     		.2byte	0x855
 877 00ff 48000000 		.4byte	0x48
 878 0103 02       		.byte	0x2
 879 0104 23       		.byte	0x23
 880 0105 05       		.uleb128 0x5
 881 0106 08       		.uleb128 0x8
 882 0107 463200   		.ascii	"F2\000"
 883 010a 03       		.byte	0x3
 884 010b 5608     		.2byte	0x856
 885 010d 48000000 		.4byte	0x48
 886 0111 02       		.byte	0x2
 887 0112 23       		.byte	0x23
 888 0113 06       		.uleb128 0x6
 889 0114 08       		.uleb128 0x8
 890 0115 463300   		.ascii	"F3\000"
ARM GAS  /tmp/cc9aNEDf.s 			page 21


 891 0118 03       		.byte	0x3
 892 0119 5708     		.2byte	0x857
 893 011b 48000000 		.4byte	0x48
 894 011f 02       		.byte	0x2
 895 0120 23       		.byte	0x23
 896 0121 07       		.uleb128 0x7
 897 0122 09       		.uleb128 0x9
 898 0123 F5010000 		.4byte	.LASF11
 899 0127 03       		.byte	0x3
 900 0128 5808     		.2byte	0x858
 901 012a 48000000 		.4byte	0x48
 902 012e 02       		.byte	0x2
 903 012f 23       		.byte	0x23
 904 0130 08       		.uleb128 0x8
 905 0131 09       		.uleb128 0x9
 906 0132 FB010000 		.4byte	.LASF12
 907 0136 03       		.byte	0x3
 908 0137 5908     		.2byte	0x859
 909 0139 48000000 		.4byte	0x48
 910 013d 02       		.byte	0x2
 911 013e 23       		.byte	0x23
 912 013f 09       		.uleb128 0x9
 913 0140 00       		.byte	0
 914 0141 0A       		.uleb128 0xa
 915 0142 B7010000 		.4byte	.LASF13
 916 0146 03       		.byte	0x3
 917 0147 5A08     		.2byte	0x85a
 918 0149 4D010000 		.4byte	0x14d
 919 014d 0B       		.uleb128 0xb
 920 014e 04       		.byte	0x4
 921 014f 53010000 		.4byte	0x153
 922 0153 0C       		.uleb128 0xc
 923 0154 A1000000 		.4byte	0xa1
 924 0158 07       		.uleb128 0x7
 925 0159 B4030000 		.4byte	.LASF15
 926 015d 10       		.byte	0x10
 927 015e 03       		.byte	0x3
 928 015f B809     		.2byte	0x9b8
 929 0161 4A020000 		.4byte	0x24a
 930 0165 08       		.uleb128 0x8
 931 0166 433100   		.ascii	"C1\000"
 932 0169 03       		.byte	0x3
 933 016a B909     		.2byte	0x9b9
 934 016c 48000000 		.4byte	0x48
 935 0170 02       		.byte	0x2
 936 0171 23       		.byte	0x23
 937 0172 00       		.uleb128 0
 938 0173 08       		.uleb128 0x8
 939 0174 433200   		.ascii	"C2\000"
 940 0177 03       		.byte	0x3
 941 0178 BA09     		.2byte	0x9ba
 942 017a 48000000 		.4byte	0x48
 943 017e 02       		.byte	0x2
 944 017f 23       		.byte	0x23
 945 0180 01       		.uleb128 0x1
 946 0181 08       		.uleb128 0x8
 947 0182 433300   		.ascii	"C3\000"
ARM GAS  /tmp/cc9aNEDf.s 			page 22


 948 0185 03       		.byte	0x3
 949 0186 BB09     		.2byte	0x9bb
 950 0188 48000000 		.4byte	0x48
 951 018c 02       		.byte	0x2
 952 018d 23       		.byte	0x23
 953 018e 02       		.uleb128 0x2
 954 018f 08       		.uleb128 0x8
 955 0190 433400   		.ascii	"C4\000"
 956 0193 03       		.byte	0x3
 957 0194 BC09     		.2byte	0x9bc
 958 0196 48000000 		.4byte	0x48
 959 019a 02       		.byte	0x2
 960 019b 23       		.byte	0x23
 961 019c 03       		.uleb128 0x3
 962 019d 08       		.uleb128 0x8
 963 019e 433500   		.ascii	"C5\000"
 964 01a1 03       		.byte	0x3
 965 01a2 BD09     		.2byte	0x9bd
 966 01a4 48000000 		.4byte	0x48
 967 01a8 02       		.byte	0x2
 968 01a9 23       		.byte	0x23
 969 01aa 04       		.uleb128 0x4
 970 01ab 08       		.uleb128 0x8
 971 01ac 433600   		.ascii	"C6\000"
 972 01af 03       		.byte	0x3
 973 01b0 BE09     		.2byte	0x9be
 974 01b2 48000000 		.4byte	0x48
 975 01b6 02       		.byte	0x2
 976 01b7 23       		.byte	0x23
 977 01b8 05       		.uleb128 0x5
 978 01b9 08       		.uleb128 0x8
 979 01ba 5300     		.ascii	"S\000"
 980 01bc 03       		.byte	0x3
 981 01bd BF09     		.2byte	0x9bf
 982 01bf 48000000 		.4byte	0x48
 983 01c3 02       		.byte	0x2
 984 01c4 23       		.byte	0x23
 985 01c5 06       		.uleb128 0x6
 986 01c6 09       		.uleb128 0x9
 987 01c7 E6030000 		.4byte	.LASF16
 988 01cb 03       		.byte	0x3
 989 01cc C009     		.2byte	0x9c0
 990 01ce 4A020000 		.4byte	0x24a
 991 01d2 02       		.byte	0x2
 992 01d3 23       		.byte	0x23
 993 01d4 07       		.uleb128 0x7
 994 01d5 08       		.uleb128 0x8
 995 01d6 534300   		.ascii	"SC\000"
 996 01d9 03       		.byte	0x3
 997 01da C109     		.2byte	0x9c1
 998 01dc 48000000 		.4byte	0x48
 999 01e0 02       		.byte	0x2
 1000 01e1 23       		.byte	0x23
 1001 01e2 08       		.uleb128 0x8
 1002 01e3 09       		.uleb128 0x9
 1003 01e4 F1030000 		.4byte	.LASF17
 1004 01e8 03       		.byte	0x3
ARM GAS  /tmp/cc9aNEDf.s 			page 23


 1005 01e9 C209     		.2byte	0x9c2
 1006 01eb 4A020000 		.4byte	0x24a
 1007 01ef 02       		.byte	0x2
 1008 01f0 23       		.byte	0x23
 1009 01f1 09       		.uleb128 0x9
 1010 01f2 09       		.uleb128 0x9
 1011 01f3 18000000 		.4byte	.LASF18
 1012 01f7 03       		.byte	0x3
 1013 01f8 C309     		.2byte	0x9c3
 1014 01fa 48000000 		.4byte	0x48
 1015 01fe 02       		.byte	0x2
 1016 01ff 23       		.byte	0x23
 1017 0200 0A       		.uleb128 0xa
 1018 0201 09       		.uleb128 0x9
 1019 0202 1E000000 		.4byte	.LASF19
 1020 0206 03       		.byte	0x3
 1021 0207 C409     		.2byte	0x9c4
 1022 0209 48000000 		.4byte	0x48
 1023 020d 02       		.byte	0x2
 1024 020e 23       		.byte	0x23
 1025 020f 0B       		.uleb128 0xb
 1026 0210 08       		.uleb128 0x8
 1027 0211 433700   		.ascii	"C7\000"
 1028 0214 03       		.byte	0x3
 1029 0215 C509     		.2byte	0x9c5
 1030 0217 48000000 		.4byte	0x48
 1031 021b 02       		.byte	0x2
 1032 021c 23       		.byte	0x23
 1033 021d 0C       		.uleb128 0xc
 1034 021e 08       		.uleb128 0x8
 1035 021f 433800   		.ascii	"C8\000"
 1036 0222 03       		.byte	0x3
 1037 0223 C609     		.2byte	0x9c6
 1038 0225 48000000 		.4byte	0x48
 1039 0229 02       		.byte	0x2
 1040 022a 23       		.byte	0x23
 1041 022b 0D       		.uleb128 0xd
 1042 022c 08       		.uleb128 0x8
 1043 022d 433900   		.ascii	"C9\000"
 1044 0230 03       		.byte	0x3
 1045 0231 C709     		.2byte	0x9c7
 1046 0233 48000000 		.4byte	0x48
 1047 0237 02       		.byte	0x2
 1048 0238 23       		.byte	0x23
 1049 0239 0E       		.uleb128 0xe
 1050 023a 08       		.uleb128 0x8
 1051 023b 43313000 		.ascii	"C10\000"
 1052 023f 03       		.byte	0x3
 1053 0240 C809     		.2byte	0x9c8
 1054 0242 48000000 		.4byte	0x48
 1055 0246 02       		.byte	0x2
 1056 0247 23       		.byte	0x23
 1057 0248 0F       		.uleb128 0xf
 1058 0249 00       		.byte	0
 1059 024a 05       		.uleb128 0x5
 1060 024b 48000000 		.4byte	0x48
 1061 024f 5A020000 		.4byte	0x25a
ARM GAS  /tmp/cc9aNEDf.s 			page 24


 1062 0253 06       		.uleb128 0x6
 1063 0254 7A000000 		.4byte	0x7a
 1064 0258 00       		.byte	0
 1065 0259 00       		.byte	0
 1066 025a 0A       		.uleb128 0xa
 1067 025b C9020000 		.4byte	.LASF20
 1068 025f 03       		.byte	0x3
 1069 0260 C909     		.2byte	0x9c9
 1070 0262 66020000 		.4byte	0x266
 1071 0266 0B       		.uleb128 0xb
 1072 0267 04       		.byte	0x4
 1073 0268 6C020000 		.4byte	0x26c
 1074 026c 0C       		.uleb128 0xc
 1075 026d 58010000 		.4byte	0x158
 1076 0271 05       		.uleb128 0x5
 1077 0272 48000000 		.4byte	0x48
 1078 0276 81020000 		.4byte	0x281
 1079 027a 06       		.uleb128 0x6
 1080 027b 7A000000 		.4byte	0x7a
 1081 027f 07       		.byte	0x7
 1082 0280 00       		.byte	0
 1083 0281 05       		.uleb128 0x5
 1084 0282 48000000 		.4byte	0x48
 1085 0286 91020000 		.4byte	0x291
 1086 028a 06       		.uleb128 0x6
 1087 028b 7A000000 		.4byte	0x7a
 1088 028f 9B       		.byte	0x9b
 1089 0290 00       		.byte	0
 1090 0291 05       		.uleb128 0x5
 1091 0292 61000000 		.4byte	0x61
 1092 0296 A1020000 		.4byte	0x2a1
 1093 029a 06       		.uleb128 0x6
 1094 029b 7A000000 		.4byte	0x7a
 1095 029f 07       		.byte	0x7
 1096 02a0 00       		.byte	0
 1097 02a1 0D       		.uleb128 0xd
 1098 02a2 AB010000 		.4byte	.LASF21
 1099 02a6 2003     		.2byte	0x320
 1100 02a8 03       		.byte	0x3
 1101 02a9 570D     		.2byte	0xd57
 1102 02ab 3D030000 		.4byte	0x33d
 1103 02af 09       		.uleb128 0x9
 1104 02b0 B2000000 		.4byte	.LASF22
 1105 02b4 03       		.byte	0x3
 1106 02b5 580D     		.2byte	0xd58
 1107 02b7 61000000 		.4byte	0x61
 1108 02bb 02       		.byte	0x2
 1109 02bc 23       		.byte	0x23
 1110 02bd 00       		.uleb128 0
 1111 02be 09       		.uleb128 0x9
 1112 02bf E6030000 		.4byte	.LASF16
 1113 02c3 03       		.byte	0x3
 1114 02c4 590D     		.2byte	0xd59
 1115 02c6 3D030000 		.4byte	0x33d
 1116 02ca 02       		.byte	0x2
 1117 02cb 23       		.byte	0x23
 1118 02cc 04       		.uleb128 0x4
ARM GAS  /tmp/cc9aNEDf.s 			page 25


 1119 02cd 09       		.uleb128 0x9
 1120 02ce D3030000 		.4byte	.LASF23
 1121 02d2 03       		.byte	0x3
 1122 02d3 5A0D     		.2byte	0xd5a
 1123 02d5 61000000 		.4byte	0x61
 1124 02d9 03       		.byte	0x3
 1125 02da 23       		.byte	0x23
 1126 02db 8001     		.uleb128 0x80
 1127 02dd 09       		.uleb128 0x9
 1128 02de F1030000 		.4byte	.LASF17
 1129 02e2 03       		.byte	0x3
 1130 02e3 5B0D     		.2byte	0xd5b
 1131 02e5 3D030000 		.4byte	0x33d
 1132 02e9 03       		.byte	0x3
 1133 02ea 23       		.byte	0x23
 1134 02eb 8401     		.uleb128 0x84
 1135 02ed 09       		.uleb128 0x9
 1136 02ee 95040000 		.4byte	.LASF24
 1137 02f2 03       		.byte	0x3
 1138 02f3 5C0D     		.2byte	0xd5c
 1139 02f5 61000000 		.4byte	0x61
 1140 02f9 03       		.byte	0x3
 1141 02fa 23       		.byte	0x23
 1142 02fb 8002     		.uleb128 0x100
 1143 02fd 09       		.uleb128 0x9
 1144 02fe FC030000 		.4byte	.LASF25
 1145 0302 03       		.byte	0x3
 1146 0303 5D0D     		.2byte	0xd5d
 1147 0305 3D030000 		.4byte	0x33d
 1148 0309 03       		.byte	0x3
 1149 030a 23       		.byte	0x23
 1150 030b 8402     		.uleb128 0x104
 1151 030d 09       		.uleb128 0x9
 1152 030e BC020000 		.4byte	.LASF26
 1153 0312 03       		.byte	0x3
 1154 0313 5E0D     		.2byte	0xd5e
 1155 0315 61000000 		.4byte	0x61
 1156 0319 03       		.byte	0x3
 1157 031a 23       		.byte	0x23
 1158 031b 8003     		.uleb128 0x180
 1159 031d 09       		.uleb128 0x9
 1160 031e 07040000 		.4byte	.LASF27
 1161 0322 03       		.byte	0x3
 1162 0323 5F0D     		.2byte	0xd5f
 1163 0325 4D030000 		.4byte	0x34d
 1164 0329 03       		.byte	0x3
 1165 032a 23       		.byte	0x23
 1166 032b 8403     		.uleb128 0x184
 1167 032d 08       		.uleb128 0x8
 1168 032e 495000   		.ascii	"IP\000"
 1169 0331 03       		.byte	0x3
 1170 0332 600D     		.2byte	0xd60
 1171 0334 91020000 		.4byte	0x291
 1172 0338 03       		.byte	0x3
 1173 0339 23       		.byte	0x23
 1174 033a 8006     		.uleb128 0x300
 1175 033c 00       		.byte	0
ARM GAS  /tmp/cc9aNEDf.s 			page 26


 1176 033d 05       		.uleb128 0x5
 1177 033e 48000000 		.4byte	0x48
 1178 0342 4D030000 		.4byte	0x34d
 1179 0346 06       		.uleb128 0x6
 1180 0347 7A000000 		.4byte	0x7a
 1181 034b 7B       		.byte	0x7b
 1182 034c 00       		.byte	0
 1183 034d 05       		.uleb128 0x5
 1184 034e 48000000 		.4byte	0x48
 1185 0352 5E030000 		.4byte	0x35e
 1186 0356 0E       		.uleb128 0xe
 1187 0357 7A000000 		.4byte	0x7a
 1188 035b 7B01     		.2byte	0x17b
 1189 035d 00       		.byte	0
 1190 035e 0A       		.uleb128 0xa
 1191 035f 37020000 		.4byte	.LASF28
 1192 0363 03       		.byte	0x3
 1193 0364 610D     		.2byte	0xd61
 1194 0366 6A030000 		.4byte	0x36a
 1195 036a 0B       		.uleb128 0xb
 1196 036b 04       		.byte	0x4
 1197 036c 70030000 		.4byte	0x370
 1198 0370 0C       		.uleb128 0xc
 1199 0371 A1020000 		.4byte	0x2a1
 1200 0375 07       		.uleb128 0x7
 1201 0376 7F020000 		.4byte	.LASF29
 1202 037a 01       		.byte	0x1
 1203 037b 03       		.byte	0x3
 1204 037c 2F0E     		.2byte	0xe2f
 1205 037e 91030000 		.4byte	0x391
 1206 0382 08       		.uleb128 0x8
 1207 0383 435200   		.ascii	"CR\000"
 1208 0386 03       		.byte	0x3
 1209 0387 300E     		.2byte	0xe30
 1210 0389 48000000 		.4byte	0x48
 1211 038d 02       		.byte	0x2
 1212 038e 23       		.byte	0x23
 1213 038f 00       		.uleb128 0
 1214 0390 00       		.byte	0
 1215 0391 0A       		.uleb128 0xa
 1216 0392 87040000 		.4byte	.LASF30
 1217 0396 03       		.byte	0x3
 1218 0397 310E     		.2byte	0xe31
 1219 0399 9D030000 		.4byte	0x39d
 1220 039d 0B       		.uleb128 0xb
 1221 039e 04       		.byte	0x4
 1222 039f A3030000 		.4byte	0x3a3
 1223 03a3 0C       		.uleb128 0xc
 1224 03a4 75030000 		.4byte	0x375
 1225 03a8 07       		.uleb128 0x7
 1226 03a9 06000000 		.4byte	.LASF31
 1227 03ad 03       		.byte	0x3
 1228 03ae 03       		.byte	0x3
 1229 03af 150F     		.2byte	0xf15
 1230 03b1 E3030000 		.4byte	0x3e3
 1231 03b5 09       		.uleb128 0x9
 1232 03b6 75000000 		.4byte	.LASF32
ARM GAS  /tmp/cc9aNEDf.s 			page 27


 1233 03ba 03       		.byte	0x3
 1234 03bb 160F     		.2byte	0xf16
 1235 03bd 48000000 		.4byte	0x48
 1236 03c1 02       		.byte	0x2
 1237 03c2 23       		.byte	0x23
 1238 03c3 00       		.uleb128 0
 1239 03c4 09       		.uleb128 0x9
 1240 03c5 7C000000 		.4byte	.LASF33
 1241 03c9 03       		.byte	0x3
 1242 03ca 170F     		.2byte	0xf17
 1243 03cc 48000000 		.4byte	0x48
 1244 03d0 02       		.byte	0x2
 1245 03d1 23       		.byte	0x23
 1246 03d2 01       		.uleb128 0x1
 1247 03d3 09       		.uleb128 0x9
 1248 03d4 BF030000 		.4byte	.LASF34
 1249 03d8 03       		.byte	0x3
 1250 03d9 180F     		.2byte	0xf18
 1251 03db 48000000 		.4byte	0x48
 1252 03df 02       		.byte	0x2
 1253 03e0 23       		.byte	0x23
 1254 03e1 02       		.uleb128 0x2
 1255 03e2 00       		.byte	0
 1256 03e3 0A       		.uleb128 0xa
 1257 03e4 E7010000 		.4byte	.LASF35
 1258 03e8 03       		.byte	0x3
 1259 03e9 190F     		.2byte	0xf19
 1260 03eb EF030000 		.4byte	0x3ef
 1261 03ef 0B       		.uleb128 0xb
 1262 03f0 04       		.byte	0x4
 1263 03f1 F5030000 		.4byte	0x3f5
 1264 03f5 0C       		.uleb128 0xc
 1265 03f6 A8030000 		.4byte	0x3a8
 1266 03fa 07       		.uleb128 0x7
 1267 03fb 35000000 		.4byte	.LASF36
 1268 03ff A4       		.byte	0xa4
 1269 0400 03       		.byte	0x3
 1270 0401 870F     		.2byte	0xf87
 1271 0403 57040000 		.4byte	0x457
 1272 0407 08       		.uleb128 0x8
 1273 0408 50435200 		.ascii	"PCR\000"
 1274 040c 03       		.byte	0x3
 1275 040d 880F     		.2byte	0xf88
 1276 040f 57040000 		.4byte	0x457
 1277 0413 02       		.byte	0x2
 1278 0414 23       		.byte	0x23
 1279 0415 00       		.uleb128 0
 1280 0416 09       		.uleb128 0x9
 1281 0417 00000000 		.4byte	.LASF37
 1282 041b 03       		.byte	0x3
 1283 041c 890F     		.2byte	0xf89
 1284 041e 61000000 		.4byte	0x61
 1285 0422 03       		.byte	0x3
 1286 0423 23       		.byte	0x23
 1287 0424 8001     		.uleb128 0x80
 1288 0426 09       		.uleb128 0x9
 1289 0427 72030000 		.4byte	.LASF38
ARM GAS  /tmp/cc9aNEDf.s 			page 28


 1290 042b 03       		.byte	0x3
 1291 042c 8A0F     		.2byte	0xf8a
 1292 042e 61000000 		.4byte	0x61
 1293 0432 03       		.byte	0x3
 1294 0433 23       		.byte	0x23
 1295 0434 8401     		.uleb128 0x84
 1296 0436 09       		.uleb128 0x9
 1297 0437 E6030000 		.4byte	.LASF16
 1298 043b 03       		.byte	0x3
 1299 043c 8B0F     		.2byte	0xf8b
 1300 043e 91000000 		.4byte	0x91
 1301 0442 03       		.byte	0x3
 1302 0443 23       		.byte	0x23
 1303 0444 8801     		.uleb128 0x88
 1304 0446 09       		.uleb128 0x9
 1305 0447 E7000000 		.4byte	.LASF39
 1306 044b 03       		.byte	0x3
 1307 044c 8C0F     		.2byte	0xf8c
 1308 044e 61000000 		.4byte	0x61
 1309 0452 03       		.byte	0x3
 1310 0453 23       		.byte	0x23
 1311 0454 A001     		.uleb128 0xa0
 1312 0456 00       		.byte	0
 1313 0457 05       		.uleb128 0x5
 1314 0458 61000000 		.4byte	0x61
 1315 045c 67040000 		.4byte	0x467
 1316 0460 06       		.uleb128 0x6
 1317 0461 7A000000 		.4byte	0x7a
 1318 0465 1F       		.byte	0x1f
 1319 0466 00       		.byte	0
 1320 0467 0A       		.uleb128 0xa
 1321 0468 83000000 		.4byte	.LASF40
 1322 046c 03       		.byte	0x3
 1323 046d 8D0F     		.2byte	0xf8d
 1324 046f 73040000 		.4byte	0x473
 1325 0473 0B       		.uleb128 0xb
 1326 0474 04       		.byte	0x4
 1327 0475 79040000 		.4byte	0x479
 1328 0479 0C       		.uleb128 0xc
 1329 047a FA030000 		.4byte	0x3fa
 1330 047e 07       		.uleb128 0x7
 1331 047f B7000000 		.4byte	.LASF41
 1332 0483 06       		.byte	0x6
 1333 0484 03       		.byte	0x3
 1334 0485 C110     		.2byte	0x10c1
 1335 0487 D7040000 		.4byte	0x4d7
 1336 048b 09       		.uleb128 0x9
 1337 048c 23020000 		.4byte	.LASF42
 1338 0490 03       		.byte	0x3
 1339 0491 C210     		.2byte	0x10c2
 1340 0493 48000000 		.4byte	0x48
 1341 0497 02       		.byte	0x2
 1342 0498 23       		.byte	0x23
 1343 0499 00       		.uleb128 0
 1344 049a 09       		.uleb128 0x9
 1345 049b 28020000 		.4byte	.LASF43
 1346 049f 03       		.byte	0x3
ARM GAS  /tmp/cc9aNEDf.s 			page 29


 1347 04a0 C310     		.2byte	0x10c3
 1348 04a2 48000000 		.4byte	0x48
 1349 04a6 02       		.byte	0x2
 1350 04a7 23       		.byte	0x23
 1351 04a8 01       		.uleb128 0x1
 1352 04a9 09       		.uleb128 0x9
 1353 04aa E6030000 		.4byte	.LASF16
 1354 04ae 03       		.byte	0x3
 1355 04af C410     		.2byte	0x10c4
 1356 04b1 D7040000 		.4byte	0x4d7
 1357 04b5 02       		.byte	0x2
 1358 04b6 23       		.byte	0x23
 1359 04b7 02       		.uleb128 0x2
 1360 04b8 09       		.uleb128 0x9
 1361 04b9 E2000000 		.4byte	.LASF44
 1362 04bd 03       		.byte	0x3
 1363 04be C510     		.2byte	0x10c5
 1364 04c0 48000000 		.4byte	0x48
 1365 04c4 02       		.byte	0x2
 1366 04c5 23       		.byte	0x23
 1367 04c6 04       		.uleb128 0x4
 1368 04c7 09       		.uleb128 0x9
 1369 04c8 FB000000 		.4byte	.LASF45
 1370 04cc 03       		.byte	0x3
 1371 04cd C610     		.2byte	0x10c6
 1372 04cf 48000000 		.4byte	0x48
 1373 04d3 02       		.byte	0x2
 1374 04d4 23       		.byte	0x23
 1375 04d5 05       		.uleb128 0x5
 1376 04d6 00       		.byte	0
 1377 04d7 05       		.uleb128 0x5
 1378 04d8 48000000 		.4byte	0x48
 1379 04dc E7040000 		.4byte	0x4e7
 1380 04e0 06       		.uleb128 0x6
 1381 04e1 7A000000 		.4byte	0x7a
 1382 04e5 01       		.byte	0x1
 1383 04e6 00       		.byte	0
 1384 04e7 0A       		.uleb128 0xa
 1385 04e8 46000000 		.4byte	.LASF46
 1386 04ec 03       		.byte	0x3
 1387 04ed C710     		.2byte	0x10c7
 1388 04ef F3040000 		.4byte	0x4f3
 1389 04f3 0B       		.uleb128 0xb
 1390 04f4 04       		.byte	0x4
 1391 04f5 F9040000 		.4byte	0x4f9
 1392 04f9 0C       		.uleb128 0xc
 1393 04fa 7E040000 		.4byte	0x47e
 1394 04fe 0D       		.uleb128 0xd
 1395 04ff 10020000 		.4byte	.LASF47
 1396 0503 340D     		.2byte	0xd34
 1397 0505 03       		.byte	0x3
 1398 0506 8F12     		.2byte	0x128f
 1399 0508 FA050000 		.4byte	0x5fa
 1400 050c 09       		.uleb128 0x9
 1401 050d E6030000 		.4byte	.LASF16
 1402 0511 03       		.byte	0x3
 1403 0512 9012     		.2byte	0x1290
ARM GAS  /tmp/cc9aNEDf.s 			page 30


 1404 0514 71020000 		.4byte	0x271
 1405 0518 02       		.byte	0x2
 1406 0519 23       		.byte	0x23
 1407 051a 00       		.uleb128 0
 1408 051b 09       		.uleb128 0x9
 1409 051c D8010000 		.4byte	.LASF48
 1410 0520 03       		.byte	0x3
 1411 0521 9112     		.2byte	0x1291
 1412 0523 61000000 		.4byte	0x61
 1413 0527 02       		.byte	0x2
 1414 0528 23       		.byte	0x23
 1415 0529 08       		.uleb128 0x8
 1416 052a 09       		.uleb128 0x9
 1417 052b F1030000 		.4byte	.LASF17
 1418 052f 03       		.byte	0x3
 1419 0530 9212     		.2byte	0x1292
 1420 0532 FA050000 		.4byte	0x5fa
 1421 0536 02       		.byte	0x2
 1422 0537 23       		.byte	0x23
 1423 0538 0C       		.uleb128 0xc
 1424 0539 09       		.uleb128 0x9
 1425 053a C6010000 		.4byte	.LASF49
 1426 053e 03       		.byte	0x3
 1427 053f 9312     		.2byte	0x1293
 1428 0541 61000000 		.4byte	0x61
 1429 0545 03       		.byte	0x3
 1430 0546 23       		.byte	0x23
 1431 0547 801A     		.uleb128 0xd00
 1432 0549 09       		.uleb128 0x9
 1433 054a 86030000 		.4byte	.LASF50
 1434 054e 03       		.byte	0x3
 1435 054f 9412     		.2byte	0x1294
 1436 0551 61000000 		.4byte	0x61
 1437 0555 03       		.byte	0x3
 1438 0556 23       		.byte	0x23
 1439 0557 841A     		.uleb128 0xd04
 1440 0559 09       		.uleb128 0x9
 1441 055a 78030000 		.4byte	.LASF51
 1442 055e 03       		.byte	0x3
 1443 055f 9512     		.2byte	0x1295
 1444 0561 61000000 		.4byte	0x61
 1445 0565 03       		.byte	0x3
 1446 0566 23       		.byte	0x23
 1447 0567 881A     		.uleb128 0xd08
 1448 0569 09       		.uleb128 0x9
 1449 056a 0A020000 		.4byte	.LASF52
 1450 056e 03       		.byte	0x3
 1451 056f 9612     		.2byte	0x1296
 1452 0571 61000000 		.4byte	0x61
 1453 0575 03       		.byte	0x3
 1454 0576 23       		.byte	0x23
 1455 0577 8C1A     		.uleb128 0xd0c
 1456 0579 08       		.uleb128 0x8
 1457 057a 53435200 		.ascii	"SCR\000"
 1458 057e 03       		.byte	0x3
 1459 057f 9712     		.2byte	0x1297
 1460 0581 61000000 		.4byte	0x61
ARM GAS  /tmp/cc9aNEDf.s 			page 31


 1461 0585 03       		.byte	0x3
 1462 0586 23       		.byte	0x23
 1463 0587 901A     		.uleb128 0xd10
 1464 0589 08       		.uleb128 0x8
 1465 058a 43435200 		.ascii	"CCR\000"
 1466 058e 03       		.byte	0x3
 1467 058f 9812     		.2byte	0x1298
 1468 0591 61000000 		.4byte	0x61
 1469 0595 03       		.byte	0x3
 1470 0596 23       		.byte	0x23
 1471 0597 941A     		.uleb128 0xd14
 1472 0599 09       		.uleb128 0x9
 1473 059a FC030000 		.4byte	.LASF25
 1474 059e 03       		.byte	0x3
 1475 059f 9912     		.2byte	0x1299
 1476 05a1 81000000 		.4byte	0x81
 1477 05a5 03       		.byte	0x3
 1478 05a6 23       		.byte	0x23
 1479 05a7 981A     		.uleb128 0xd18
 1480 05a9 09       		.uleb128 0x9
 1481 05aa 66030000 		.4byte	.LASF53
 1482 05ae 03       		.byte	0x3
 1483 05af 9A12     		.2byte	0x129a
 1484 05b1 61000000 		.4byte	0x61
 1485 05b5 03       		.byte	0x3
 1486 05b6 23       		.byte	0x23
 1487 05b7 9C1A     		.uleb128 0xd1c
 1488 05b9 09       		.uleb128 0x9
 1489 05ba 6C030000 		.4byte	.LASF54
 1490 05be 03       		.byte	0x3
 1491 05bf 9B12     		.2byte	0x129b
 1492 05c1 61000000 		.4byte	0x61
 1493 05c5 03       		.byte	0x3
 1494 05c6 23       		.byte	0x23
 1495 05c7 A01A     		.uleb128 0xd20
 1496 05c9 09       		.uleb128 0x9
 1497 05ca 1F030000 		.4byte	.LASF55
 1498 05ce 03       		.byte	0x3
 1499 05cf 9C12     		.2byte	0x129c
 1500 05d1 61000000 		.4byte	0x61
 1501 05d5 03       		.byte	0x3
 1502 05d6 23       		.byte	0x23
 1503 05d7 A41A     		.uleb128 0xd24
 1504 05d9 09       		.uleb128 0x9
 1505 05da 07040000 		.4byte	.LASF27
 1506 05de 03       		.byte	0x3
 1507 05df 9D12     		.2byte	0x129d
 1508 05e1 71020000 		.4byte	0x271
 1509 05e5 03       		.byte	0x3
 1510 05e6 23       		.byte	0x23
 1511 05e7 A81A     		.uleb128 0xd28
 1512 05e9 09       		.uleb128 0x9
 1513 05ea 30000000 		.4byte	.LASF56
 1514 05ee 03       		.byte	0x3
 1515 05ef 9E12     		.2byte	0x129e
 1516 05f1 61000000 		.4byte	0x61
 1517 05f5 03       		.byte	0x3
ARM GAS  /tmp/cc9aNEDf.s 			page 32


 1518 05f6 23       		.byte	0x23
 1519 05f7 B01A     		.uleb128 0xd30
 1520 05f9 00       		.byte	0
 1521 05fa 05       		.uleb128 0x5
 1522 05fb 48000000 		.4byte	0x48
 1523 05ff 0B060000 		.4byte	0x60b
 1524 0603 0E       		.uleb128 0xe
 1525 0604 7A000000 		.4byte	0x7a
 1526 0608 F30C     		.2byte	0xcf3
 1527 060a 00       		.byte	0
 1528 060b 0A       		.uleb128 0xa
 1529 060c 54020000 		.4byte	.LASF57
 1530 0610 03       		.byte	0x3
 1531 0611 9F12     		.2byte	0x129f
 1532 0613 17060000 		.4byte	0x617
 1533 0617 0B       		.uleb128 0xb
 1534 0618 04       		.byte	0x4
 1535 0619 1D060000 		.4byte	0x61d
 1536 061d 0C       		.uleb128 0xc
 1537 061e FE040000 		.4byte	0x4fe
 1538 0622 0D       		.uleb128 0xd
 1539 0623 92000000 		.4byte	.LASF58
 1540 0627 0811     		.2byte	0x1108
 1541 0629 03       		.byte	0x3
 1542 062a 5113     		.2byte	0x1351
 1543 062c DE070000 		.4byte	0x7de
 1544 0630 09       		.uleb128 0x9
 1545 0631 4A040000 		.4byte	.LASF59
 1546 0635 03       		.byte	0x3
 1547 0636 5213     		.2byte	0x1352
 1548 0638 61000000 		.4byte	0x61
 1549 063c 02       		.byte	0x2
 1550 063d 23       		.byte	0x23
 1551 063e 00       		.uleb128 0
 1552 063f 09       		.uleb128 0x9
 1553 0640 DE010000 		.4byte	.LASF60
 1554 0644 03       		.byte	0x3
 1555 0645 5313     		.2byte	0x1353
 1556 0647 61000000 		.4byte	0x61
 1557 064b 02       		.byte	0x2
 1558 064c 23       		.byte	0x23
 1559 064d 04       		.uleb128 0x4
 1560 064e 09       		.uleb128 0x9
 1561 064f E6030000 		.4byte	.LASF16
 1562 0653 03       		.byte	0x3
 1563 0654 5413     		.2byte	0x1354
 1564 0656 DE070000 		.4byte	0x7de
 1565 065a 02       		.byte	0x2
 1566 065b 23       		.byte	0x23
 1567 065c 08       		.uleb128 0x8
 1568 065d 09       		.uleb128 0x9
 1569 065e 50040000 		.4byte	.LASF61
 1570 0662 03       		.byte	0x3
 1571 0663 5513     		.2byte	0x1355
 1572 0665 61000000 		.4byte	0x61
 1573 0669 03       		.byte	0x3
 1574 066a 23       		.byte	0x23
ARM GAS  /tmp/cc9aNEDf.s 			page 33


 1575 066b 8420     		.uleb128 0x1004
 1576 066d 09       		.uleb128 0x9
 1577 066e F1030000 		.4byte	.LASF17
 1578 0672 03       		.byte	0x3
 1579 0673 5613     		.2byte	0x1356
 1580 0675 81000000 		.4byte	0x81
 1581 0679 03       		.byte	0x3
 1582 067a 23       		.byte	0x23
 1583 067b 8820     		.uleb128 0x1008
 1584 067d 09       		.uleb128 0x9
 1585 067e 56040000 		.4byte	.LASF62
 1586 0682 03       		.byte	0x3
 1587 0683 5713     		.2byte	0x1357
 1588 0685 61000000 		.4byte	0x61
 1589 0689 03       		.byte	0x3
 1590 068a 23       		.byte	0x23
 1591 068b 8C20     		.uleb128 0x100c
 1592 068d 09       		.uleb128 0x9
 1593 068e 5C040000 		.4byte	.LASF63
 1594 0692 03       		.byte	0x3
 1595 0693 5813     		.2byte	0x1358
 1596 0695 61000000 		.4byte	0x61
 1597 0699 03       		.byte	0x3
 1598 069a 23       		.byte	0x23
 1599 069b 9020     		.uleb128 0x1010
 1600 069d 09       		.uleb128 0x9
 1601 069e FC030000 		.4byte	.LASF25
 1602 06a2 03       		.byte	0x3
 1603 06a3 5913     		.2byte	0x1359
 1604 06a5 81000000 		.4byte	0x81
 1605 06a9 03       		.byte	0x3
 1606 06aa 23       		.byte	0x23
 1607 06ab 9420     		.uleb128 0x1014
 1608 06ad 09       		.uleb128 0x9
 1609 06ae 62040000 		.4byte	.LASF64
 1610 06b2 03       		.byte	0x3
 1611 06b3 5A13     		.2byte	0x135a
 1612 06b5 61000000 		.4byte	0x61
 1613 06b9 03       		.byte	0x3
 1614 06ba 23       		.byte	0x23
 1615 06bb 9820     		.uleb128 0x1018
 1616 06bd 09       		.uleb128 0x9
 1617 06be 07040000 		.4byte	.LASF27
 1618 06c2 03       		.byte	0x3
 1619 06c3 5B13     		.2byte	0x135b
 1620 06c5 71020000 		.4byte	0x271
 1621 06c9 03       		.byte	0x3
 1622 06ca 23       		.byte	0x23
 1623 06cb 9C20     		.uleb128 0x101c
 1624 06cd 09       		.uleb128 0x9
 1625 06ce F6000000 		.4byte	.LASF65
 1626 06d2 03       		.byte	0x3
 1627 06d3 5C13     		.2byte	0x135c
 1628 06d5 61000000 		.4byte	0x61
 1629 06d9 03       		.byte	0x3
 1630 06da 23       		.byte	0x23
 1631 06db A420     		.uleb128 0x1024
ARM GAS  /tmp/cc9aNEDf.s 			page 34


 1632 06dd 09       		.uleb128 0x9
 1633 06de 12040000 		.4byte	.LASF66
 1634 06e2 03       		.byte	0x3
 1635 06e3 5D13     		.2byte	0x135d
 1636 06e5 EF070000 		.4byte	0x7ef
 1637 06e9 03       		.byte	0x3
 1638 06ea 23       		.byte	0x23
 1639 06eb A820     		.uleb128 0x1028
 1640 06ed 09       		.uleb128 0x9
 1641 06ee 00010000 		.4byte	.LASF67
 1642 06f2 03       		.byte	0x3
 1643 06f3 5E13     		.2byte	0x135e
 1644 06f5 61000000 		.4byte	0x61
 1645 06f9 03       		.byte	0x3
 1646 06fa 23       		.byte	0x23
 1647 06fb B420     		.uleb128 0x1034
 1648 06fd 09       		.uleb128 0x9
 1649 06fe 06010000 		.4byte	.LASF68
 1650 0702 03       		.byte	0x3
 1651 0703 5F13     		.2byte	0x135f
 1652 0705 61000000 		.4byte	0x61
 1653 0709 03       		.byte	0x3
 1654 070a 23       		.byte	0x23
 1655 070b B820     		.uleb128 0x1038
 1656 070d 09       		.uleb128 0x9
 1657 070e 0C010000 		.4byte	.LASF69
 1658 0712 03       		.byte	0x3
 1659 0713 6013     		.2byte	0x1360
 1660 0715 61000000 		.4byte	0x61
 1661 0719 03       		.byte	0x3
 1662 071a 23       		.byte	0x23
 1663 071b BC20     		.uleb128 0x103c
 1664 071d 09       		.uleb128 0x9
 1665 071e 12010000 		.4byte	.LASF70
 1666 0722 03       		.byte	0x3
 1667 0723 6113     		.2byte	0x1361
 1668 0725 61000000 		.4byte	0x61
 1669 0729 03       		.byte	0x3
 1670 072a 23       		.byte	0x23
 1671 072b C020     		.uleb128 0x1040
 1672 072d 09       		.uleb128 0x9
 1673 072e C1020000 		.4byte	.LASF71
 1674 0732 03       		.byte	0x3
 1675 0733 6213     		.2byte	0x1362
 1676 0735 61000000 		.4byte	0x61
 1677 0739 03       		.byte	0x3
 1678 073a 23       		.byte	0x23
 1679 073b C420     		.uleb128 0x1044
 1680 073d 09       		.uleb128 0x9
 1681 073e 1D040000 		.4byte	.LASF72
 1682 0742 03       		.byte	0x3
 1683 0743 6313     		.2byte	0x1363
 1684 0745 81000000 		.4byte	0x81
 1685 0749 03       		.byte	0x3
 1686 074a 23       		.byte	0x23
 1687 074b C820     		.uleb128 0x1048
 1688 074d 09       		.uleb128 0x9
ARM GAS  /tmp/cc9aNEDf.s 			page 35


 1689 074e 38030000 		.4byte	.LASF73
 1690 0752 03       		.byte	0x3
 1691 0753 6413     		.2byte	0x1364
 1692 0755 61000000 		.4byte	0x61
 1693 0759 03       		.byte	0x3
 1694 075a 23       		.byte	0x23
 1695 075b CC20     		.uleb128 0x104c
 1696 075d 09       		.uleb128 0x9
 1697 075e 3E030000 		.4byte	.LASF74
 1698 0762 03       		.byte	0x3
 1699 0763 6513     		.2byte	0x1365
 1700 0765 61000000 		.4byte	0x61
 1701 0769 03       		.byte	0x3
 1702 076a 23       		.byte	0x23
 1703 076b D020     		.uleb128 0x1050
 1704 076d 09       		.uleb128 0x9
 1705 076e 28040000 		.4byte	.LASF75
 1706 0772 03       		.byte	0x3
 1707 0773 6613     		.2byte	0x1366
 1708 0775 81000000 		.4byte	0x81
 1709 0779 03       		.byte	0x3
 1710 077a 23       		.byte	0x23
 1711 077b D420     		.uleb128 0x1054
 1712 077d 09       		.uleb128 0x9
 1713 077e A8020000 		.4byte	.LASF76
 1714 0782 03       		.byte	0x3
 1715 0783 6713     		.2byte	0x1367
 1716 0785 61000000 		.4byte	0x61
 1717 0789 03       		.byte	0x3
 1718 078a 23       		.byte	0x23
 1719 078b D820     		.uleb128 0x1058
 1720 078d 09       		.uleb128 0x9
 1721 078e AE020000 		.4byte	.LASF77
 1722 0792 03       		.byte	0x3
 1723 0793 6813     		.2byte	0x1368
 1724 0795 61000000 		.4byte	0x61
 1725 0799 03       		.byte	0x3
 1726 079a 23       		.byte	0x23
 1727 079b DC20     		.uleb128 0x105c
 1728 079d 09       		.uleb128 0x9
 1729 079e 41000000 		.4byte	.LASF78
 1730 07a2 03       		.byte	0x3
 1731 07a3 6913     		.2byte	0x1369
 1732 07a5 61000000 		.4byte	0x61
 1733 07a9 03       		.byte	0x3
 1734 07aa 23       		.byte	0x23
 1735 07ab E020     		.uleb128 0x1060
 1736 07ad 09       		.uleb128 0x9
 1737 07ae 33040000 		.4byte	.LASF79
 1738 07b2 03       		.byte	0x3
 1739 07b3 6A13     		.2byte	0x136a
 1740 07b5 81020000 		.4byte	0x281
 1741 07b9 03       		.byte	0x3
 1742 07ba 23       		.byte	0x23
 1743 07bb E420     		.uleb128 0x1064
 1744 07bd 09       		.uleb128 0x9
 1745 07be E1030000 		.4byte	.LASF80
ARM GAS  /tmp/cc9aNEDf.s 			page 36


 1746 07c2 03       		.byte	0x3
 1747 07c3 6B13     		.2byte	0x136b
 1748 07c5 61000000 		.4byte	0x61
 1749 07c9 03       		.byte	0x3
 1750 07ca 23       		.byte	0x23
 1751 07cb 8022     		.uleb128 0x1100
 1752 07cd 09       		.uleb128 0x9
 1753 07ce D7020000 		.4byte	.LASF81
 1754 07d2 03       		.byte	0x3
 1755 07d3 6C13     		.2byte	0x136c
 1756 07d5 61000000 		.4byte	0x61
 1757 07d9 03       		.byte	0x3
 1758 07da 23       		.byte	0x23
 1759 07db 8422     		.uleb128 0x1104
 1760 07dd 00       		.byte	0
 1761 07de 05       		.uleb128 0x5
 1762 07df 48000000 		.4byte	0x48
 1763 07e3 EF070000 		.4byte	0x7ef
 1764 07e7 0E       		.uleb128 0xe
 1765 07e8 7A000000 		.4byte	0x7a
 1766 07ec FB0F     		.2byte	0xffb
 1767 07ee 00       		.byte	0
 1768 07ef 05       		.uleb128 0x5
 1769 07f0 48000000 		.4byte	0x48
 1770 07f4 FF070000 		.4byte	0x7ff
 1771 07f8 06       		.uleb128 0x6
 1772 07f9 7A000000 		.4byte	0x7a
 1773 07fd 0B       		.byte	0xb
 1774 07fe 00       		.byte	0
 1775 07ff 0A       		.uleb128 0xa
 1776 0800 4F030000 		.4byte	.LASF82
 1777 0804 03       		.byte	0x3
 1778 0805 6D13     		.2byte	0x136d
 1779 0807 0B080000 		.4byte	0x80b
 1780 080b 0B       		.uleb128 0xb
 1781 080c 04       		.byte	0x4
 1782 080d 11080000 		.4byte	0x811
 1783 0811 0C       		.uleb128 0xc
 1784 0812 22060000 		.4byte	0x622
 1785 0816 07       		.uleb128 0x7
 1786 0817 44030000 		.4byte	.LASF83
 1787 081b 04       		.byte	0x4
 1788 081c 03       		.byte	0x3
 1789 081d 9A14     		.2byte	0x149a
 1790 081f 60080000 		.4byte	0x860
 1791 0823 09       		.uleb128 0x9
 1792 0824 11000000 		.4byte	.LASF84
 1793 0828 03       		.byte	0x3
 1794 0829 9B14     		.2byte	0x149b
 1795 082b 48000000 		.4byte	0x48
 1796 082f 02       		.byte	0x2
 1797 0830 23       		.byte	0x23
 1798 0831 00       		.uleb128 0
 1799 0832 09       		.uleb128 0x9
 1800 0833 A1020000 		.4byte	.LASF85
 1801 0837 03       		.byte	0x3
 1802 0838 9C14     		.2byte	0x149c
ARM GAS  /tmp/cc9aNEDf.s 			page 37


 1803 083a 48000000 		.4byte	0x48
 1804 083e 02       		.byte	0x2
 1805 083f 23       		.byte	0x23
 1806 0840 01       		.uleb128 0x1
 1807 0841 09       		.uleb128 0x9
 1808 0842 D8030000 		.4byte	.LASF86
 1809 0846 03       		.byte	0x3
 1810 0847 9D14     		.2byte	0x149d
 1811 0849 48000000 		.4byte	0x48
 1812 084d 02       		.byte	0x2
 1813 084e 23       		.byte	0x23
 1814 084f 02       		.uleb128 0x2
 1815 0850 09       		.uleb128 0x9
 1816 0851 0C030000 		.4byte	.LASF87
 1817 0855 03       		.byte	0x3
 1818 0856 9E14     		.2byte	0x149e
 1819 0858 48000000 		.4byte	0x48
 1820 085c 02       		.byte	0x2
 1821 085d 23       		.byte	0x23
 1822 085e 03       		.uleb128 0x3
 1823 085f 00       		.byte	0
 1824 0860 0A       		.uleb128 0xa
 1825 0861 C5030000 		.4byte	.LASF88
 1826 0865 03       		.byte	0x3
 1827 0866 9F14     		.2byte	0x149f
 1828 0868 6C080000 		.4byte	0x86c
 1829 086c 0B       		.uleb128 0xb
 1830 086d 04       		.byte	0x4
 1831 086e 72080000 		.4byte	0x872
 1832 0872 0C       		.uleb128 0xc
 1833 0873 16080000 		.4byte	0x816
 1834 0877 0F       		.uleb128 0xf
 1835 0878 01       		.byte	0x1
 1836 0879 04       		.byte	0x4
 1837 087a 36       		.byte	0x36
 1838 087b B0080000 		.4byte	0x8b0
 1839 087f 10       		.uleb128 0x10
 1840 0880 2D020000 		.4byte	.LASF89
 1841 0884 00       		.sleb128 0
 1842 0885 10       		.uleb128 0x10
 1843 0886 13030000 		.4byte	.LASF90
 1844 088a 01       		.sleb128 1
 1845 088b 10       		.uleb128 0x10
 1846 088c 24000000 		.4byte	.LASF91
 1847 0890 02       		.sleb128 2
 1848 0891 10       		.uleb128 0x10
 1849 0892 18010000 		.4byte	.LASF92
 1850 0896 03       		.sleb128 3
 1851 0897 10       		.uleb128 0x10
 1852 0898 EC000000 		.4byte	.LASF93
 1853 089c 04       		.sleb128 4
 1854 089d 10       		.uleb128 0x10
 1855 089e 54000000 		.4byte	.LASF94
 1856 08a2 05       		.sleb128 5
 1857 08a3 10       		.uleb128 0x10
 1858 08a4 5F000000 		.4byte	.LASF95
 1859 08a8 06       		.sleb128 6
ARM GAS  /tmp/cc9aNEDf.s 			page 38


 1860 08a9 10       		.uleb128 0x10
 1861 08aa 6A000000 		.4byte	.LASF96
 1862 08ae 07       		.sleb128 7
 1863 08af 00       		.byte	0
 1864 08b0 04       		.uleb128 0x4
 1865 08b1 8A020000 		.4byte	.LASF97
 1866 08b5 04       		.byte	0x4
 1867 08b6 3F       		.byte	0x3f
 1868 08b7 77080000 		.4byte	0x877
 1869 08bb 11       		.uleb128 0x11
 1870 08bc 01       		.byte	0x1
 1871 08bd CC010000 		.4byte	.LASF98
 1872 08c1 01       		.byte	0x1
 1873 08c2 26       		.byte	0x26
 1874 08c3 01       		.byte	0x1
 1875 08c4 00000000 		.4byte	.LFB0
 1876 08c8 60000000 		.4byte	.LFE0
 1877 08cc 00000000 		.4byte	.LLST0
 1878 08d0 01       		.byte	0x1
 1879 08d1 E5080000 		.4byte	0x8e5
 1880 08d5 12       		.uleb128 0x12
 1881 08d6 98020000 		.4byte	.LASF103
 1882 08da 01       		.byte	0x1
 1883 08db 26       		.byte	0x26
 1884 08dc 48000000 		.4byte	0x48
 1885 08e0 20000000 		.4byte	.LLST1
 1886 08e4 00       		.byte	0
 1887 08e5 11       		.uleb128 0x11
 1888 08e6 01       		.byte	0x1
 1889 08e7 9D030000 		.4byte	.LASF99
 1890 08eb 01       		.byte	0x1
 1891 08ec 3C       		.byte	0x3c
 1892 08ed 01       		.byte	0x1
 1893 08ee 60000000 		.4byte	.LFB1
 1894 08f2 D8010000 		.4byte	.LFE1
 1895 08f6 41000000 		.4byte	.LLST2
 1896 08fa 01       		.byte	0x1
 1897 08fb 0F090000 		.4byte	0x90f
 1898 08ff 13       		.uleb128 0x13
 1899 0900 68000000 		.4byte	.LVL2
 1900 0904 BB080000 		.4byte	0x8bb
 1901 0908 14       		.uleb128 0x14
 1902 0909 01       		.byte	0x1
 1903 090a 50       		.byte	0x50
 1904 090b 01       		.byte	0x1
 1905 090c 30       		.byte	0x30
 1906 090d 00       		.byte	0
 1907 090e 00       		.byte	0
 1908 090f 15       		.uleb128 0x15
 1909 0910 01       		.byte	0x1
 1910 0911 B4020000 		.4byte	.LASF100
 1911 0915 01       		.byte	0x1
 1912 0916 AC       		.byte	0xac
 1913 0917 01       		.byte	0x1
 1914 0918 D8010000 		.4byte	.LFB2
 1915 091c EC010000 		.4byte	.LFE2
 1916 0920 02       		.byte	0x2
ARM GAS  /tmp/cc9aNEDf.s 			page 39


 1917 0921 7D       		.byte	0x7d
 1918 0922 00       		.sleb128 0
 1919 0923 01       		.byte	0x1
 1920 0924 15       		.uleb128 0x15
 1921 0925 01       		.byte	0x1
 1922 0926 5D030000 		.4byte	.LASF101
 1923 092a 01       		.byte	0x1
 1924 092b B1       		.byte	0xb1
 1925 092c 01       		.byte	0x1
 1926 092d EC010000 		.4byte	.LFB3
 1927 0931 10020000 		.4byte	.LFE3
 1928 0935 02       		.byte	0x2
 1929 0936 7D       		.byte	0x7d
 1930 0937 00       		.sleb128 0
 1931 0938 01       		.byte	0x1
 1932 0939 11       		.uleb128 0x11
 1933 093a 01       		.byte	0x1
 1934 093b 01020000 		.4byte	.LASF102
 1935 093f 01       		.byte	0x1
 1936 0940 B9       		.byte	0xb9
 1937 0941 01       		.byte	0x1
 1938 0942 10020000 		.4byte	.LFB4
 1939 0946 70030000 		.4byte	.LFE4
 1940 094a 61000000 		.4byte	.LLST3
 1941 094e 01       		.byte	0x1
 1942 094f 63090000 		.4byte	0x963
 1943 0953 12       		.uleb128 0x12
 1944 0954 D9000000 		.4byte	.LASF104
 1945 0958 01       		.byte	0x1
 1946 0959 B9       		.byte	0xb9
 1947 095a B0080000 		.4byte	0x8b0
 1948 095e 81000000 		.4byte	.LLST4
 1949 0962 00       		.byte	0
 1950 0963 15       		.uleb128 0x15
 1951 0964 01       		.byte	0x1
 1952 0965 9D000000 		.4byte	.LASF105
 1953 0969 01       		.byte	0x1
 1954 096a F7       		.byte	0xf7
 1955 096b 01       		.byte	0x1
 1956 096c 70030000 		.4byte	.LFB5
 1957 0970 72030000 		.4byte	.LFE5
 1958 0974 02       		.byte	0x2
 1959 0975 7D       		.byte	0x7d
 1960 0976 00       		.sleb128 0
 1961 0977 01       		.byte	0x1
 1962 0978 00       		.byte	0
 1963              		.section	.debug_abbrev,"",%progbits
 1964              	.Ldebug_abbrev0:
 1965 0000 01       		.uleb128 0x1
 1966 0001 11       		.uleb128 0x11
 1967 0002 01       		.byte	0x1
 1968 0003 25       		.uleb128 0x25
 1969 0004 0E       		.uleb128 0xe
 1970 0005 13       		.uleb128 0x13
 1971 0006 0B       		.uleb128 0xb
 1972 0007 03       		.uleb128 0x3
 1973 0008 0E       		.uleb128 0xe
ARM GAS  /tmp/cc9aNEDf.s 			page 40


 1974 0009 1B       		.uleb128 0x1b
 1975 000a 0E       		.uleb128 0xe
 1976 000b 11       		.uleb128 0x11
 1977 000c 01       		.uleb128 0x1
 1978 000d 12       		.uleb128 0x12
 1979 000e 01       		.uleb128 0x1
 1980 000f 10       		.uleb128 0x10
 1981 0010 06       		.uleb128 0x6
 1982 0011 00       		.byte	0
 1983 0012 00       		.byte	0
 1984 0013 02       		.uleb128 0x2
 1985 0014 24       		.uleb128 0x24
 1986 0015 00       		.byte	0
 1987 0016 0B       		.uleb128 0xb
 1988 0017 0B       		.uleb128 0xb
 1989 0018 3E       		.uleb128 0x3e
 1990 0019 0B       		.uleb128 0xb
 1991 001a 03       		.uleb128 0x3
 1992 001b 08       		.uleb128 0x8
 1993 001c 00       		.byte	0
 1994 001d 00       		.byte	0
 1995 001e 03       		.uleb128 0x3
 1996 001f 24       		.uleb128 0x24
 1997 0020 00       		.byte	0
 1998 0021 0B       		.uleb128 0xb
 1999 0022 0B       		.uleb128 0xb
 2000 0023 3E       		.uleb128 0x3e
 2001 0024 0B       		.uleb128 0xb
 2002 0025 03       		.uleb128 0x3
 2003 0026 0E       		.uleb128 0xe
 2004 0027 00       		.byte	0
 2005 0028 00       		.byte	0
 2006 0029 04       		.uleb128 0x4
 2007 002a 16       		.uleb128 0x16
 2008 002b 00       		.byte	0
 2009 002c 03       		.uleb128 0x3
 2010 002d 0E       		.uleb128 0xe
 2011 002e 3A       		.uleb128 0x3a
 2012 002f 0B       		.uleb128 0xb
 2013 0030 3B       		.uleb128 0x3b
 2014 0031 0B       		.uleb128 0xb
 2015 0032 49       		.uleb128 0x49
 2016 0033 13       		.uleb128 0x13
 2017 0034 00       		.byte	0
 2018 0035 00       		.byte	0
 2019 0036 05       		.uleb128 0x5
 2020 0037 01       		.uleb128 0x1
 2021 0038 01       		.byte	0x1
 2022 0039 49       		.uleb128 0x49
 2023 003a 13       		.uleb128 0x13
 2024 003b 01       		.uleb128 0x1
 2025 003c 13       		.uleb128 0x13
 2026 003d 00       		.byte	0
 2027 003e 00       		.byte	0
 2028 003f 06       		.uleb128 0x6
 2029 0040 21       		.uleb128 0x21
 2030 0041 00       		.byte	0
ARM GAS  /tmp/cc9aNEDf.s 			page 41


 2031 0042 49       		.uleb128 0x49
 2032 0043 13       		.uleb128 0x13
 2033 0044 2F       		.uleb128 0x2f
 2034 0045 0B       		.uleb128 0xb
 2035 0046 00       		.byte	0
 2036 0047 00       		.byte	0
 2037 0048 07       		.uleb128 0x7
 2038 0049 13       		.uleb128 0x13
 2039 004a 01       		.byte	0x1
 2040 004b 03       		.uleb128 0x3
 2041 004c 0E       		.uleb128 0xe
 2042 004d 0B       		.uleb128 0xb
 2043 004e 0B       		.uleb128 0xb
 2044 004f 3A       		.uleb128 0x3a
 2045 0050 0B       		.uleb128 0xb
 2046 0051 3B       		.uleb128 0x3b
 2047 0052 05       		.uleb128 0x5
 2048 0053 01       		.uleb128 0x1
 2049 0054 13       		.uleb128 0x13
 2050 0055 00       		.byte	0
 2051 0056 00       		.byte	0
 2052 0057 08       		.uleb128 0x8
 2053 0058 0D       		.uleb128 0xd
 2054 0059 00       		.byte	0
 2055 005a 03       		.uleb128 0x3
 2056 005b 08       		.uleb128 0x8
 2057 005c 3A       		.uleb128 0x3a
 2058 005d 0B       		.uleb128 0xb
 2059 005e 3B       		.uleb128 0x3b
 2060 005f 05       		.uleb128 0x5
 2061 0060 49       		.uleb128 0x49
 2062 0061 13       		.uleb128 0x13
 2063 0062 38       		.uleb128 0x38
 2064 0063 0A       		.uleb128 0xa
 2065 0064 00       		.byte	0
 2066 0065 00       		.byte	0
 2067 0066 09       		.uleb128 0x9
 2068 0067 0D       		.uleb128 0xd
 2069 0068 00       		.byte	0
 2070 0069 03       		.uleb128 0x3
 2071 006a 0E       		.uleb128 0xe
 2072 006b 3A       		.uleb128 0x3a
 2073 006c 0B       		.uleb128 0xb
 2074 006d 3B       		.uleb128 0x3b
 2075 006e 05       		.uleb128 0x5
 2076 006f 49       		.uleb128 0x49
 2077 0070 13       		.uleb128 0x13
 2078 0071 38       		.uleb128 0x38
 2079 0072 0A       		.uleb128 0xa
 2080 0073 00       		.byte	0
 2081 0074 00       		.byte	0
 2082 0075 0A       		.uleb128 0xa
 2083 0076 16       		.uleb128 0x16
 2084 0077 00       		.byte	0
 2085 0078 03       		.uleb128 0x3
 2086 0079 0E       		.uleb128 0xe
 2087 007a 3A       		.uleb128 0x3a
ARM GAS  /tmp/cc9aNEDf.s 			page 42


 2088 007b 0B       		.uleb128 0xb
 2089 007c 3B       		.uleb128 0x3b
 2090 007d 05       		.uleb128 0x5
 2091 007e 49       		.uleb128 0x49
 2092 007f 13       		.uleb128 0x13
 2093 0080 00       		.byte	0
 2094 0081 00       		.byte	0
 2095 0082 0B       		.uleb128 0xb
 2096 0083 0F       		.uleb128 0xf
 2097 0084 00       		.byte	0
 2098 0085 0B       		.uleb128 0xb
 2099 0086 0B       		.uleb128 0xb
 2100 0087 49       		.uleb128 0x49
 2101 0088 13       		.uleb128 0x13
 2102 0089 00       		.byte	0
 2103 008a 00       		.byte	0
 2104 008b 0C       		.uleb128 0xc
 2105 008c 35       		.uleb128 0x35
 2106 008d 00       		.byte	0
 2107 008e 49       		.uleb128 0x49
 2108 008f 13       		.uleb128 0x13
 2109 0090 00       		.byte	0
 2110 0091 00       		.byte	0
 2111 0092 0D       		.uleb128 0xd
 2112 0093 13       		.uleb128 0x13
 2113 0094 01       		.byte	0x1
 2114 0095 03       		.uleb128 0x3
 2115 0096 0E       		.uleb128 0xe
 2116 0097 0B       		.uleb128 0xb
 2117 0098 05       		.uleb128 0x5
 2118 0099 3A       		.uleb128 0x3a
 2119 009a 0B       		.uleb128 0xb
 2120 009b 3B       		.uleb128 0x3b
 2121 009c 05       		.uleb128 0x5
 2122 009d 01       		.uleb128 0x1
 2123 009e 13       		.uleb128 0x13
 2124 009f 00       		.byte	0
 2125 00a0 00       		.byte	0
 2126 00a1 0E       		.uleb128 0xe
 2127 00a2 21       		.uleb128 0x21
 2128 00a3 00       		.byte	0
 2129 00a4 49       		.uleb128 0x49
 2130 00a5 13       		.uleb128 0x13
 2131 00a6 2F       		.uleb128 0x2f
 2132 00a7 05       		.uleb128 0x5
 2133 00a8 00       		.byte	0
 2134 00a9 00       		.byte	0
 2135 00aa 0F       		.uleb128 0xf
 2136 00ab 04       		.uleb128 0x4
 2137 00ac 01       		.byte	0x1
 2138 00ad 0B       		.uleb128 0xb
 2139 00ae 0B       		.uleb128 0xb
 2140 00af 3A       		.uleb128 0x3a
 2141 00b0 0B       		.uleb128 0xb
 2142 00b1 3B       		.uleb128 0x3b
 2143 00b2 0B       		.uleb128 0xb
 2144 00b3 01       		.uleb128 0x1
ARM GAS  /tmp/cc9aNEDf.s 			page 43


 2145 00b4 13       		.uleb128 0x13
 2146 00b5 00       		.byte	0
 2147 00b6 00       		.byte	0
 2148 00b7 10       		.uleb128 0x10
 2149 00b8 28       		.uleb128 0x28
 2150 00b9 00       		.byte	0
 2151 00ba 03       		.uleb128 0x3
 2152 00bb 0E       		.uleb128 0xe
 2153 00bc 1C       		.uleb128 0x1c
 2154 00bd 0D       		.uleb128 0xd
 2155 00be 00       		.byte	0
 2156 00bf 00       		.byte	0
 2157 00c0 11       		.uleb128 0x11
 2158 00c1 2E       		.uleb128 0x2e
 2159 00c2 01       		.byte	0x1
 2160 00c3 3F       		.uleb128 0x3f
 2161 00c4 0C       		.uleb128 0xc
 2162 00c5 03       		.uleb128 0x3
 2163 00c6 0E       		.uleb128 0xe
 2164 00c7 3A       		.uleb128 0x3a
 2165 00c8 0B       		.uleb128 0xb
 2166 00c9 3B       		.uleb128 0x3b
 2167 00ca 0B       		.uleb128 0xb
 2168 00cb 27       		.uleb128 0x27
 2169 00cc 0C       		.uleb128 0xc
 2170 00cd 11       		.uleb128 0x11
 2171 00ce 01       		.uleb128 0x1
 2172 00cf 12       		.uleb128 0x12
 2173 00d0 01       		.uleb128 0x1
 2174 00d1 40       		.uleb128 0x40
 2175 00d2 06       		.uleb128 0x6
 2176 00d3 9742     		.uleb128 0x2117
 2177 00d5 0C       		.uleb128 0xc
 2178 00d6 01       		.uleb128 0x1
 2179 00d7 13       		.uleb128 0x13
 2180 00d8 00       		.byte	0
 2181 00d9 00       		.byte	0
 2182 00da 12       		.uleb128 0x12
 2183 00db 05       		.uleb128 0x5
 2184 00dc 00       		.byte	0
 2185 00dd 03       		.uleb128 0x3
 2186 00de 0E       		.uleb128 0xe
 2187 00df 3A       		.uleb128 0x3a
 2188 00e0 0B       		.uleb128 0xb
 2189 00e1 3B       		.uleb128 0x3b
 2190 00e2 0B       		.uleb128 0xb
 2191 00e3 49       		.uleb128 0x49
 2192 00e4 13       		.uleb128 0x13
 2193 00e5 02       		.uleb128 0x2
 2194 00e6 06       		.uleb128 0x6
 2195 00e7 00       		.byte	0
 2196 00e8 00       		.byte	0
 2197 00e9 13       		.uleb128 0x13
 2198 00ea 898201   		.uleb128 0x4109
 2199 00ed 01       		.byte	0x1
 2200 00ee 11       		.uleb128 0x11
 2201 00ef 01       		.uleb128 0x1
ARM GAS  /tmp/cc9aNEDf.s 			page 44


 2202 00f0 31       		.uleb128 0x31
 2203 00f1 13       		.uleb128 0x13
 2204 00f2 00       		.byte	0
 2205 00f3 00       		.byte	0
 2206 00f4 14       		.uleb128 0x14
 2207 00f5 8A8201   		.uleb128 0x410a
 2208 00f8 00       		.byte	0
 2209 00f9 02       		.uleb128 0x2
 2210 00fa 0A       		.uleb128 0xa
 2211 00fb 9142     		.uleb128 0x2111
 2212 00fd 0A       		.uleb128 0xa
 2213 00fe 00       		.byte	0
 2214 00ff 00       		.byte	0
 2215 0100 15       		.uleb128 0x15
 2216 0101 2E       		.uleb128 0x2e
 2217 0102 00       		.byte	0
 2218 0103 3F       		.uleb128 0x3f
 2219 0104 0C       		.uleb128 0xc
 2220 0105 03       		.uleb128 0x3
 2221 0106 0E       		.uleb128 0xe
 2222 0107 3A       		.uleb128 0x3a
 2223 0108 0B       		.uleb128 0xb
 2224 0109 3B       		.uleb128 0x3b
 2225 010a 0B       		.uleb128 0xb
 2226 010b 27       		.uleb128 0x27
 2227 010c 0C       		.uleb128 0xc
 2228 010d 11       		.uleb128 0x11
 2229 010e 01       		.uleb128 0x1
 2230 010f 12       		.uleb128 0x12
 2231 0110 01       		.uleb128 0x1
 2232 0111 40       		.uleb128 0x40
 2233 0112 0A       		.uleb128 0xa
 2234 0113 9742     		.uleb128 0x2117
 2235 0115 0C       		.uleb128 0xc
 2236 0116 00       		.byte	0
 2237 0117 00       		.byte	0
 2238 0118 00       		.byte	0
 2239              		.section	.debug_loc,"",%progbits
 2240              	.Ldebug_loc0:
 2241              	.LLST0:
 2242 0000 00000000 		.4byte	.LFB0-.Ltext0
 2243 0004 02000000 		.4byte	.LCFI0-.Ltext0
 2244 0008 0200     		.2byte	0x2
 2245 000a 7D       		.byte	0x7d
 2246 000b 00       		.sleb128 0
 2247 000c 02000000 		.4byte	.LCFI0-.Ltext0
 2248 0010 60000000 		.4byte	.LFE0-.Ltext0
 2249 0014 0200     		.2byte	0x2
 2250 0016 7D       		.byte	0x7d
 2251 0017 08       		.sleb128 8
 2252 0018 00000000 		.4byte	0
 2253 001c 00000000 		.4byte	0
 2254              	.LLST1:
 2255 0020 00000000 		.4byte	.LVL0-.Ltext0
 2256 0024 4E000000 		.4byte	.LVL1-.Ltext0
 2257 0028 0100     		.2byte	0x1
 2258 002a 50       		.byte	0x50
ARM GAS  /tmp/cc9aNEDf.s 			page 45


 2259 002b 4E000000 		.4byte	.LVL1-.Ltext0
 2260 002f 60000000 		.4byte	.LFE0-.Ltext0
 2261 0033 0400     		.2byte	0x4
 2262 0035 F3       		.byte	0xf3
 2263 0036 01       		.uleb128 0x1
 2264 0037 50       		.byte	0x50
 2265 0038 9F       		.byte	0x9f
 2266 0039 00000000 		.4byte	0
 2267 003d 00000000 		.4byte	0
 2268              	.LLST2:
 2269 0041 60000000 		.4byte	.LFB1-.Ltext0
 2270 0045 62000000 		.4byte	.LCFI1-.Ltext0
 2271 0049 0200     		.2byte	0x2
 2272 004b 7D       		.byte	0x7d
 2273 004c 00       		.sleb128 0
 2274 004d 62000000 		.4byte	.LCFI1-.Ltext0
 2275 0051 D8010000 		.4byte	.LFE1-.Ltext0
 2276 0055 0200     		.2byte	0x2
 2277 0057 7D       		.byte	0x7d
 2278 0058 08       		.sleb128 8
 2279 0059 00000000 		.4byte	0
 2280 005d 00000000 		.4byte	0
 2281              	.LLST3:
 2282 0061 10020000 		.4byte	.LFB4-.Ltext0
 2283 0065 12020000 		.4byte	.LCFI2-.Ltext0
 2284 0069 0200     		.2byte	0x2
 2285 006b 7D       		.byte	0x7d
 2286 006c 00       		.sleb128 0
 2287 006d 12020000 		.4byte	.LCFI2-.Ltext0
 2288 0071 70030000 		.4byte	.LFE4-.Ltext0
 2289 0075 0200     		.2byte	0x2
 2290 0077 7D       		.byte	0x7d
 2291 0078 08       		.sleb128 8
 2292 0079 00000000 		.4byte	0
 2293 007d 00000000 		.4byte	0
 2294              	.LLST4:
 2295 0081 10020000 		.4byte	.LVL3-.Ltext0
 2296 0085 4A020000 		.4byte	.LVL4-.Ltext0
 2297 0089 0100     		.2byte	0x1
 2298 008b 50       		.byte	0x50
 2299 008c 4A020000 		.4byte	.LVL4-.Ltext0
 2300 0090 38030000 		.4byte	.LVL5-.Ltext0
 2301 0094 0400     		.2byte	0x4
 2302 0096 F3       		.byte	0xf3
 2303 0097 01       		.uleb128 0x1
 2304 0098 50       		.byte	0x50
 2305 0099 9F       		.byte	0x9f
 2306 009a 38030000 		.4byte	.LVL5-.Ltext0
 2307 009e 46030000 		.4byte	.LVL6-.Ltext0
 2308 00a2 0100     		.2byte	0x1
 2309 00a4 50       		.byte	0x50
 2310 00a5 46030000 		.4byte	.LVL6-.Ltext0
 2311 00a9 70030000 		.4byte	.LFE4-.Ltext0
 2312 00ad 0400     		.2byte	0x4
 2313 00af F3       		.byte	0xf3
 2314 00b0 01       		.uleb128 0x1
 2315 00b1 50       		.byte	0x50
ARM GAS  /tmp/cc9aNEDf.s 			page 46


 2316 00b2 9F       		.byte	0x9f
 2317 00b3 00000000 		.4byte	0
 2318 00b7 00000000 		.4byte	0
 2319              		.section	.debug_aranges,"",%progbits
 2320 0000 1C000000 		.4byte	0x1c
 2321 0004 0200     		.2byte	0x2
 2322 0006 00000000 		.4byte	.Ldebug_info0
 2323 000a 04       		.byte	0x4
 2324 000b 00       		.byte	0
 2325 000c 0000     		.2byte	0
 2326 000e 0000     		.2byte	0
 2327 0010 00000000 		.4byte	.Ltext0
 2328 0014 72030000 		.4byte	.Letext0-.Ltext0
 2329 0018 00000000 		.4byte	0
 2330 001c 00000000 		.4byte	0
 2331              		.section	.debug_line,"",%progbits
 2332              	.Ldebug_line0:
 2333 0000 42010000 		.section	.debug_str,"MS",%progbits,1
 2333      0200A200 
 2333      00000201 
 2333      FB0E0D00 
 2333      01010101 
 2334              	.LASF37:
 2335 0000 4750434C 		.ascii	"GPCLR\000"
 2335      5200
 2336              	.LASF31:
 2337 0006 504D435F 		.ascii	"PMC_MemMap\000"
 2337      4D656D4D 
 2337      617000
 2338              	.LASF84:
 2339 0011 504D5052 		.ascii	"PMPROT\000"
 2339      4F5400
 2340              	.LASF18:
 2341 0018 41544356 		.ascii	"ATCVH\000"
 2341      4800
 2342              	.LASF19:
 2343 001e 41544356 		.ascii	"ATCVL\000"
 2343      4C00
 2344              	.LASF91:
 2345 0024 4D6F6465 		.ascii	"Mode_PStop2\000"
 2345      5F505374 
 2345      6F703200 
 2346              	.LASF56:
 2347 0030 44465352 		.ascii	"DFSR\000"
 2347      00
 2348              	.LASF36:
 2349 0035 504F5254 		.ascii	"PORT_MemMap\000"
 2349      5F4D656D 
 2349      4D617000 
 2350              	.LASF78:
 2351 0041 5549444C 		.ascii	"UIDL\000"
 2351      00
 2352              	.LASF46:
 2353 0046 52434D5F 		.ascii	"RCM_MemMapPtr\000"
 2353      4D656D4D 
 2353      61705074 
 2353      7200
ARM GAS  /tmp/cc9aNEDf.s 			page 47


 2354              	.LASF94:
 2355 0054 4D6F6465 		.ascii	"Mode_VLLS0\000"
 2355      5F564C4C 
 2355      533000
 2356              	.LASF95:
 2357 005f 4D6F6465 		.ascii	"Mode_VLLS1\000"
 2357      5F564C4C 
 2357      533100
 2358              	.LASF96:
 2359 006a 4D6F6465 		.ascii	"Mode_VLLS3\000"
 2359      5F564C4C 
 2359      533300
 2360              	.LASF32:
 2361 0075 4C564453 		.ascii	"LVDSC1\000"
 2361      433100
 2362              	.LASF33:
 2363 007c 4C564453 		.ascii	"LVDSC2\000"
 2363      433200
 2364              	.LASF40:
 2365 0083 504F5254 		.ascii	"PORT_MemMapPtr\000"
 2365      5F4D656D 
 2365      4D617050 
 2365      747200
 2366              	.LASF58:
 2367 0092 53494D5F 		.ascii	"SIM_MemMap\000"
 2367      4D656D4D 
 2367      617000
 2368              	.LASF105:
 2369 009d 4E4D495F 		.ascii	"NMI_Handler\000"
 2369      48616E64 
 2369      6C657200 
 2370              	.LASF7:
 2371 00a9 75696E74 		.ascii	"uint32_t\000"
 2371      33325F74 
 2371      00
 2372              	.LASF22:
 2373 00b2 49534552 		.ascii	"ISER\000"
 2373      00
 2374              	.LASF41:
 2375 00b7 52434D5F 		.ascii	"RCM_MemMap\000"
 2375      4D656D4D 
 2375      617000
 2376              	.LASF9:
 2377 00c2 6C6F6E67 		.ascii	"long long unsigned int\000"
 2377      206C6F6E 
 2377      6720756E 
 2377      7369676E 
 2377      65642069 
 2378              	.LASF104:
 2379 00d9 53746F70 		.ascii	"StopMode\000"
 2379      4D6F6465 
 2379      00
 2380              	.LASF44:
 2381 00e2 52504643 		.ascii	"RPFC\000"
 2381      00
 2382              	.LASF39:
 2383 00e7 49534652 		.ascii	"ISFR\000"
ARM GAS  /tmp/cc9aNEDf.s 			page 48


 2383      00
 2384              	.LASF93:
 2385 00ec 4D6F6465 		.ascii	"Mode_VLPS\000"
 2385      5F564C50 
 2385      5300
 2386              	.LASF65:
 2387 00f6 53444944 		.ascii	"SDID\000"
 2387      00
 2388              	.LASF45:
 2389 00fb 52504657 		.ascii	"RPFW\000"
 2389      00
 2390              	.LASF67:
 2391 0100 53434743 		.ascii	"SCGC4\000"
 2391      3400
 2392              	.LASF68:
 2393 0106 53434743 		.ascii	"SCGC5\000"
 2393      3500
 2394              	.LASF69:
 2395 010c 53434743 		.ascii	"SCGC6\000"
 2395      3600
 2396              	.LASF70:
 2397 0112 53434743 		.ascii	"SCGC7\000"
 2397      3700
 2398              	.LASF92:
 2399 0118 4D6F6465 		.ascii	"Mode_LLS\000"
 2399      5F4C4C53 
 2399      00
 2400              	.LASF106:
 2401 0121 474E5520 		.ascii	"GNU C 4.8.3 20131129 (release) [ARM/embedded-4_8-br"
 2401      4320342E 
 2401      382E3320 
 2401      32303133 
 2401      31313239 
 2402 0154 616E6368 		.ascii	"anch revision 205641] -mcpu=cortex-m0plus -mthumb -"
 2402      20726576 
 2402      6973696F 
 2402      6E203230 
 2402      35363431 
 2403 0187 67647761 		.ascii	"gdwarf-2 -g -O -fomit-frame-pointer\000"
 2403      72662D32 
 2403      202D6720 
 2403      2D4F202D 
 2403      666F6D69 
 2404              	.LASF21:
 2405 01ab 4E564943 		.ascii	"NVIC_MemMap\000"
 2405      5F4D656D 
 2405      4D617000 
 2406              	.LASF13:
 2407 01b7 4C4C5755 		.ascii	"LLWU_MemMapPtr\000"
 2407      5F4D656D 
 2407      4D617050 
 2407      747200
 2408              	.LASF49:
 2409 01c6 43505549 		.ascii	"CPUID\000"
 2409      4400
 2410              	.LASF98:
 2411 01cc 706F7274 		.ascii	"port_enable\000"
ARM GAS  /tmp/cc9aNEDf.s 			page 49


 2411      5F656E61 
 2411      626C6500 
 2412              	.LASF48:
 2413 01d8 4143544C 		.ascii	"ACTLR\000"
 2413      5200
 2414              	.LASF60:
 2415 01de 534F5054 		.ascii	"SOPT1CFG\000"
 2415      31434647 
 2415      00
 2416              	.LASF35:
 2417 01e7 504D435F 		.ascii	"PMC_MemMapPtr\000"
 2417      4D656D4D 
 2417      61705074 
 2417      7200
 2418              	.LASF11:
 2419 01f5 46494C54 		.ascii	"FILT1\000"
 2419      3100
 2420              	.LASF12:
 2421 01fb 46494C54 		.ascii	"FILT2\000"
 2421      3200
 2422              	.LASF102:
 2423 0201 6370755F 		.ascii	"cpu_stop\000"
 2423      73746F70 
 2423      00
 2424              	.LASF52:
 2425 020a 41495243 		.ascii	"AIRCR\000"
 2425      5200
 2426              	.LASF47:
 2427 0210 5343425F 		.ascii	"SCB_MemMap\000"
 2427      4D656D4D 
 2427      617000
 2428              	.LASF6:
 2429 021b 75696E74 		.ascii	"uint8_t\000"
 2429      385F7400 
 2430              	.LASF42:
 2431 0223 53525330 		.ascii	"SRS0\000"
 2431      00
 2432              	.LASF43:
 2433 0228 53525331 		.ascii	"SRS1\000"
 2433      00
 2434              	.LASF89:
 2435 022d 4D6F6465 		.ascii	"Mode_Stop\000"
 2435      5F53746F 
 2435      7000
 2436              	.LASF28:
 2437 0237 4E564943 		.ascii	"NVIC_MemMapPtr\000"
 2437      5F4D656D 
 2437      4D617050 
 2437      747200
 2438              	.LASF3:
 2439 0246 6C6F6E67 		.ascii	"long long int\000"
 2439      206C6F6E 
 2439      6720696E 
 2439      7400
 2440              	.LASF57:
 2441 0254 5343425F 		.ascii	"SCB_MemMapPtr\000"
 2441      4D656D4D 
ARM GAS  /tmp/cc9aNEDf.s 			page 50


 2441      61705074 
 2441      7200
 2442              	.LASF107:
 2443 0262 2E2E2F2E 		.ascii	"../../cpu/arm/mkl25z/./cpu.c\000"
 2443      2E2F6370 
 2443      752F6172 
 2443      6D2F6D6B 
 2443      6C32357A 
 2444              	.LASF29:
 2445 027f 4F53435F 		.ascii	"OSC_MemMap\000"
 2445      4D656D4D 
 2445      617000
 2446              	.LASF97:
 2447 028a 54797065 		.ascii	"Type_StopMode\000"
 2447      5F53746F 
 2447      704D6F64 
 2447      6500
 2448              	.LASF103:
 2449 0298 506F7274 		.ascii	"PortMask\000"
 2449      4D61736B 
 2449      00
 2450              	.LASF85:
 2451 02a1 504D4354 		.ascii	"PMCTRL\000"
 2451      524C00
 2452              	.LASF76:
 2453 02a8 5549444D 		.ascii	"UIDMH\000"
 2453      4800
 2454              	.LASF77:
 2455 02ae 5549444D 		.ascii	"UIDML\000"
 2455      4C00
 2456              	.LASF100:
 2457 02b4 6370755F 		.ascii	"cpu_run\000"
 2457      72756E00 
 2458              	.LASF26:
 2459 02bc 49435052 		.ascii	"ICPR\000"
 2459      00
 2460              	.LASF71:
 2461 02c1 434C4B44 		.ascii	"CLKDIV1\000"
 2461      49563100 
 2462              	.LASF20:
 2463 02c9 4D43475F 		.ascii	"MCG_MemMapPtr\000"
 2463      4D656D4D 
 2463      61705074 
 2463      7200
 2464              	.LASF81:
 2465 02d7 53525643 		.ascii	"SRVCOP\000"
 2465      4F5000
 2466              	.LASF108:
 2467 02de 2F686F6D 		.ascii	"/home/glacsweb/glacsweb/contiki/examples/rime\000"
 2467      652F676C 
 2467      61637377 
 2467      65622F67 
 2467      6C616373 
 2468              	.LASF87:
 2469 030c 504D5354 		.ascii	"PMSTAT\000"
 2469      415400
 2470              	.LASF90:
ARM GAS  /tmp/cc9aNEDf.s 			page 51


 2471 0313 4D6F6465 		.ascii	"Mode_PStop1\000"
 2471      5F505374 
 2471      6F703100 
 2472              	.LASF55:
 2473 031f 53484353 		.ascii	"SHCSR\000"
 2473      5200
 2474              	.LASF1:
 2475 0325 73686F72 		.ascii	"short int\000"
 2475      7420696E 
 2475      7400
 2476              	.LASF2:
 2477 032f 6C6F6E67 		.ascii	"long int\000"
 2477      20696E74 
 2477      00
 2478              	.LASF73:
 2479 0338 46434647 		.ascii	"FCFG1\000"
 2479      3100
 2480              	.LASF74:
 2481 033e 46434647 		.ascii	"FCFG2\000"
 2481      3200
 2482              	.LASF83:
 2483 0344 534D435F 		.ascii	"SMC_MemMap\000"
 2483      4D656D4D 
 2483      617000
 2484              	.LASF82:
 2485 034f 53494D5F 		.ascii	"SIM_MemMapPtr\000"
 2485      4D656D4D 
 2485      61705074 
 2485      7200
 2486              	.LASF101:
 2487 035d 6370755F 		.ascii	"cpu_wait\000"
 2487      77616974 
 2487      00
 2488              	.LASF53:
 2489 0366 53485052 		.ascii	"SHPR2\000"
 2489      3200
 2490              	.LASF54:
 2491 036c 53485052 		.ascii	"SHPR3\000"
 2491      3300
 2492              	.LASF38:
 2493 0372 47504348 		.ascii	"GPCHR\000"
 2493      5200
 2494              	.LASF51:
 2495 0378 56544F52 		.ascii	"VTOR\000"
 2495      00
 2496              	.LASF10:
 2497 037d 73697A65 		.ascii	"sizetype\000"
 2497      74797065 
 2497      00
 2498              	.LASF50:
 2499 0386 49435352 		.ascii	"ICSR\000"
 2499      00
 2500              	.LASF8:
 2501 038b 6C6F6E67 		.ascii	"long unsigned int\000"
 2501      20756E73 
 2501      69676E65 
 2501      6420696E 
ARM GAS  /tmp/cc9aNEDf.s 			page 52


 2501      7400
 2502              	.LASF99:
 2503 039d 6370755F 		.ascii	"cpu_init\000"
 2503      696E6974 
 2503      00
 2504              	.LASF4:
 2505 03a6 756E7369 		.ascii	"unsigned char\000"
 2505      676E6564 
 2505      20636861 
 2505      7200
 2506              	.LASF15:
 2507 03b4 4D43475F 		.ascii	"MCG_MemMap\000"
 2507      4D656D4D 
 2507      617000
 2508              	.LASF34:
 2509 03bf 52454753 		.ascii	"REGSC\000"
 2509      4300
 2510              	.LASF88:
 2511 03c5 534D435F 		.ascii	"SMC_MemMapPtr\000"
 2511      4D656D4D 
 2511      61705074 
 2511      7200
 2512              	.LASF23:
 2513 03d3 49434552 		.ascii	"ICER\000"
 2513      00
 2514              	.LASF86:
 2515 03d8 53544F50 		.ascii	"STOPCTRL\000"
 2515      4354524C 
 2515      00
 2516              	.LASF80:
 2517 03e1 434F5043 		.ascii	"COPC\000"
 2517      00
 2518              	.LASF16:
 2519 03e6 52455345 		.ascii	"RESERVED_0\000"
 2519      52564544 
 2519      5F3000
 2520              	.LASF17:
 2521 03f1 52455345 		.ascii	"RESERVED_1\000"
 2521      52564544 
 2521      5F3100
 2522              	.LASF25:
 2523 03fc 52455345 		.ascii	"RESERVED_2\000"
 2523      52564544 
 2523      5F3200
 2524              	.LASF27:
 2525 0407 52455345 		.ascii	"RESERVED_3\000"
 2525      52564544 
 2525      5F3300
 2526              	.LASF66:
 2527 0412 52455345 		.ascii	"RESERVED_4\000"
 2527      52564544 
 2527      5F3400
 2528              	.LASF72:
 2529 041d 52455345 		.ascii	"RESERVED_5\000"
 2529      52564544 
 2529      5F3500
 2530              	.LASF75:
ARM GAS  /tmp/cc9aNEDf.s 			page 53


 2531 0428 52455345 		.ascii	"RESERVED_6\000"
 2531      52564544 
 2531      5F3600
 2532              	.LASF79:
 2533 0433 52455345 		.ascii	"RESERVED_7\000"
 2533      52564544 
 2533      5F3700
 2534              	.LASF14:
 2535 043e 4C4C5755 		.ascii	"LLWU_MemMap\000"
 2535      5F4D656D 
 2535      4D617000 
 2536              	.LASF59:
 2537 044a 534F5054 		.ascii	"SOPT1\000"
 2537      3100
 2538              	.LASF61:
 2539 0450 534F5054 		.ascii	"SOPT2\000"
 2539      3200
 2540              	.LASF62:
 2541 0456 534F5054 		.ascii	"SOPT4\000"
 2541      3400
 2542              	.LASF63:
 2543 045c 534F5054 		.ascii	"SOPT5\000"
 2543      3500
 2544              	.LASF64:
 2545 0462 534F5054 		.ascii	"SOPT7\000"
 2545      3700
 2546              	.LASF0:
 2547 0468 7369676E 		.ascii	"signed char\000"
 2547      65642063 
 2547      68617200 
 2548              	.LASF5:
 2549 0474 73686F72 		.ascii	"short unsigned int\000"
 2549      7420756E 
 2549      7369676E 
 2549      65642069 
 2549      6E7400
 2550              	.LASF30:
 2551 0487 4F53435F 		.ascii	"OSC_MemMapPtr\000"
 2551      4D656D4D 
 2551      61705074 
 2551      7200
 2552              	.LASF24:
 2553 0495 49535052 		.ascii	"ISPR\000"
 2553      00
 2554              		.ident	"GCC: (GNU Tools for ARM Embedded Processors) 4.8.3 20131129 (release) [ARM/embedded-4_8-br
ARM GAS  /tmp/cc9aNEDf.s 			page 54


DEFINED SYMBOLS
                            *ABS*:00000000 cpu.c
     /tmp/cc9aNEDf.s:75     .text:00000000 $t
     /tmp/cc9aNEDf.s:80     .text:00000000 port_enable
     /tmp/cc9aNEDf.s:153    .text:00000058 $d
     /tmp/cc9aNEDf.s:158    .text:00000060 $t
     /tmp/cc9aNEDf.s:163    .text:00000060 cpu_init
     /tmp/cc9aNEDf.s:386    .text:0000019c $d
     /tmp/cc9aNEDf.s:404    .text:000001d8 $t
     /tmp/cc9aNEDf.s:409    .text:000001d8 cpu_run
     /tmp/cc9aNEDf.s:427    .text:000001e8 $d
     /tmp/cc9aNEDf.s:431    .text:000001ec $t
     /tmp/cc9aNEDf.s:436    .text:000001ec cpu_wait
     /tmp/cc9aNEDf.s:468    .text:0000020c $d
     /tmp/cc9aNEDf.s:472    .text:00000210 $t
     /tmp/cc9aNEDf.s:477    .text:00000210 cpu_stop
     /tmp/cc9aNEDf.s:527    .rodata:00000000 $d
     /tmp/cc9aNEDf.s:723    .text:00000360 $d
     /tmp/cc9aNEDf.s:730    .text:00000370 $t
     /tmp/cc9aNEDf.s:735    .text:00000370 NMI_Handler
                     .debug_frame:00000010 $d

NO UNDEFINED SYMBOLS
