ARM GAS  /tmp/ccIIOW8O.s 			page 1


   1              		.cpu cortex-m0plus
   2              		.fpu softvfp
   3              		.eabi_attribute 20, 1	@ Tag_ABI_FP_denormal
   4              		.eabi_attribute 21, 1	@ Tag_ABI_FP_exceptions
   5              		.eabi_attribute 23, 3	@ Tag_ABI_FP_number_model
   6              		.eabi_attribute 24, 1	@ Tag_ABI_align8_needed
   7              		.eabi_attribute 25, 1	@ Tag_ABI_align8_preserved
   8              		.eabi_attribute 26, 1	@ Tag_ABI_enum_size
   9              		.eabi_attribute 30, 1	@ Tag_ABI_optimization_goals
  10              		.eabi_attribute 34, 0	@ Tag_CPU_unaligned_access
  11              		.eabi_attribute 18, 4	@ Tag_ABI_PCS_wchar_t
  12              		.file	"debug-uart.c"
  13              	@ GNU C (GNU Tools for ARM Embedded Processors) version 4.8.3 20131129 (release) [ARM/embedded-4_8-
  14              	@	compiled by GNU C version 4.6.3, GMP version 4.3.2, MPFR version 2.4.2, MPC version 0.8.1
  15              	@ GGC heuristics: --param ggc-min-expand=100 --param ggc-min-heapsize=131072
  16              	@ options passed:  -I . -I ../../cpu/arm/mkl25z
  17              	@ -I ../../cpu/arm/mkl25z/loader -I ../../cpu/arm/mkl25z/dbg-io
  18              	@ -I ../../dev -I ../../platform/frdm-kl25z-rf
  19              	@ -I /home/glacsweb/arm-gcc/ARM_GCC_Support/ewl/EWL_C/include
  20              	@ -I /home/glacsweb/arm-gcc/ARM_GCC_Support/ewl/EWL_Runtime/include
  21              	@ -I /home/glacsweb/arm-gcc/lib/gcc/arm-none-eabi/4.8.3/include
  22              	@ -I /home/glacsweb/arm-gcc/lib/gcc/arm-none-eabi/4.8.3/include-fixed
  23              	@ -I /home/glacsweb/arm-gcc/arm-none-eabi/include -I ../../dev/cc1120 -I .
  24              	@ -I ../../platform/frdm-kl25z-rf/. -I ../../platform/frdm-kl25z-rf/dev
  25              	@ -I ../../platform/frdm-kl25z-rf/apps -I ../../platform/frdm-kl25z-rf/net
  26              	@ -I ../../platform/frdm-kl25z-rf/../../dev/cc1120
  27              	@ -I ../../platform/frdm-kl25z-rf/../../core/net -I ../../cpu/arm/mkl25z/.
  28              	@ -I ../../cpu/arm/mkl25z/../common/dbg-io -I ../../cpu/arm/mkl25z/loader
  29              	@ -I ../../core/dev -I ../../core/lib -I ../../core/net
  30              	@ -I ../../core/net/mac -I ../../core/net/rime -I ../../core/net/rpl
  31              	@ -I ../../core/sys -I ../../core/cfs -I ../../core/ctk
  32              	@ -I ../../core/lib/ctk -I ../../core/loader -I ../../core/.
  33              	@ -I ../../platform/frdm-kl25z-rf/ -imultilib armv6-m
  34              	@ -iprefix /home/glacsweb/arm-gcc/bin/../lib/gcc/arm-none-eabi/4.8.3/
  35              	@ -isysroot /home/glacsweb/arm-gcc/bin/../arm-none-eabi -D__USES_INITFINI__
  36              	@ -D CONTIKI=1 -D CONTIKI_TARGET_FRDM_KL25Z_RF=1 -D WITH_UIP=1
  37              	@ -D MCK=48000000 -D AUTOSTART_ENABLE -D CC11xx_CC1120=1 -D RUN_AS_SYSTEM
  38              	@ -D ROM_RUN -D __SDCC
  39              	@ -D CONTIKI_VERSION_STRING="Contiki-KL25Z-Port-18-g5a8e189"
  40              	@ ../../cpu/arm/mkl25z/./debug-uart.c -mcpu=cortex-m0plus -mthumb
  41              	@ -auxbase-strip obj_frdm-kl25z-rf/debug-uart.o -gdwarf-2 -g -O -Wall
  42              	@ -Wstrict-prototypes -fomit-frame-pointer -fverbose-asm
  43              	@ options enabled:  -faggressive-loop-optimizations -fauto-inc-dec
  44              	@ -fbranch-count-reg -fcombine-stack-adjustments -fcommon -fcompare-elim
  45              	@ -fcprop-registers -fdefer-pop -fdelete-null-pointer-checks
  46              	@ -fdwarf2-cfi-asm -fearly-inlining -feliminate-unused-debug-types
  47              	@ -fforward-propagate -ffunction-cse -fgcse-lm -fgnu-runtime
  48              	@ -fguess-branch-probability -fident -fif-conversion -fif-conversion2
  49              	@ -finline -finline-atomics -finline-functions-called-once -fipa-profile
  50              	@ -fipa-pure-const -fipa-reference -fira-hoist-pressure
  51              	@ -fira-share-save-slots -fira-share-spill-slots -fivopts
  52              	@ -fkeep-static-consts -fleading-underscore -fmath-errno -fmerge-constants
  53              	@ -fmerge-debug-strings -fmove-loop-invariants -fomit-frame-pointer
  54              	@ -fpeephole -fprefetch-loop-arrays -freg-struct-return
  55              	@ -fsched-critical-path-heuristic -fsched-dep-count-heuristic
  56              	@ -fsched-group-heuristic -fsched-interblock -fsched-last-insn-heuristic
  57              	@ -fsched-pressure -fsched-rank-heuristic -fsched-spec
ARM GAS  /tmp/ccIIOW8O.s 			page 2


  58              	@ -fsched-spec-insn-heuristic -fsched-stalled-insns-dep -fsection-anchors
  59              	@ -fshow-column -fshrink-wrap -fsigned-zeros -fsplit-ivs-in-unroller
  60              	@ -fsplit-wide-types -fstrict-volatile-bitfields -fsync-libcalls
  61              	@ -ftoplevel-reorder -ftrapping-math -ftree-bit-ccp -ftree-ccp -ftree-ch
  62              	@ -ftree-coalesce-vars -ftree-copy-prop -ftree-copyrename -ftree-cselim
  63              	@ -ftree-dce -ftree-dominator-opts -ftree-dse -ftree-forwprop -ftree-fre
  64              	@ -ftree-loop-if-convert -ftree-loop-im -ftree-loop-ivcanon
  65              	@ -ftree-loop-optimize -ftree-parallelize-loops= -ftree-phiprop -ftree-pta
  66              	@ -ftree-reassoc -ftree-scev-cprop -ftree-sink -ftree-slp-vectorize
  67              	@ -ftree-slsr -ftree-sra -ftree-ter -ftree-vect-loop-version
  68              	@ -funit-at-a-time -fvar-tracking -fvar-tracking-assignments -fverbose-asm
  69              	@ -fzero-initialized-in-bss -mlittle-endian -mpic-data-is-text-relative
  70              	@ -msched-prolog -mthumb -mvectorize-with-neon-quad
  71              	
  72              		.text
  73              	.Ltext0:
  74              		.cfi_sections	.debug_frame
  75              		.align	2
  76              		.global	dbg_set_input_handler
  77              		.code	16
  78              		.thumb_func
  79              		.type	dbg_set_input_handler, %function
  80              	dbg_set_input_handler:
  81              	.LFB0:
  82              		.file 1 "../../cpu/arm/mkl25z/./debug-uart.c"
   1:../../cpu/arm/mkl25z/./debug-uart.c **** #include <string.h>
   2:../../cpu/arm/mkl25z/./debug-uart.c **** #include <MKL25Z4.h>
   3:../../cpu/arm/mkl25z/./debug-uart.c **** #include "nvic.h"
   4:../../cpu/arm/mkl25z/./debug-uart.c **** #include "serial.h"
   5:../../cpu/arm/mkl25z/./debug-uart.c **** #include "debug-uart.h"
   6:../../cpu/arm/mkl25z/./debug-uart.c **** 
   7:../../cpu/arm/mkl25z/./debug-uart.c **** 
   8:../../cpu/arm/mkl25z/./debug-uart.c **** #define DBG_UART_BAUD		38400
   9:../../cpu/arm/mkl25z/./debug-uart.c **** 
  10:../../cpu/arm/mkl25z/./debug-uart.c **** void
  11:../../cpu/arm/mkl25z/./debug-uart.c **** dbg_set_input_handler(void* DBG_Callback_Ptr){
  83              		.loc 1 11 0
  84              		.cfi_startproc
  85              	.LVL0:
  86 0000 08B5     		push	{r3, lr}	@
  87              	.LCFI0:
  88              		.cfi_def_cfa_offset 8
  89              		.cfi_offset 3, -8
  90              		.cfi_offset 14, -4
  12:../../cpu/arm/mkl25z/./debug-uart.c **** 	UART0_reg_callback(DBG_Callback_Ptr);
  91              		.loc 1 12 0
  92 0002 FFF7FEFF 		bl	UART0_reg_callback	@
  93              	.LVL1:
  13:../../cpu/arm/mkl25z/./debug-uart.c **** 	UART0_IRQ_en();
  94              		.loc 1 13 0
  95 0006 FFF7FEFF 		bl	UART0_IRQ_en	@
  96              	.LVL2:
  14:../../cpu/arm/mkl25z/./debug-uart.c **** }
  97              		.loc 1 14 0
  98              		@ sp needed	@
  99 000a 08BD     		pop	{r3, pc}
 100              		.cfi_endproc
ARM GAS  /tmp/ccIIOW8O.s 			page 3


 101              	.LFE0:
 102              		.size	dbg_set_input_handler, .-dbg_set_input_handler
 103              		.align	2
 104              		.global	dbg_setup_uart_default
 105              		.code	16
 106              		.thumb_func
 107              		.type	dbg_setup_uart_default, %function
 108              	dbg_setup_uart_default:
 109              	.LFB1:
  15:../../cpu/arm/mkl25z/./debug-uart.c **** 
  16:../../cpu/arm/mkl25z/./debug-uart.c **** void
  17:../../cpu/arm/mkl25z/./debug-uart.c **** dbg_setup_uart_default()
  18:../../cpu/arm/mkl25z/./debug-uart.c **** {
 110              		.loc 1 18 0
 111              		.cfi_startproc
 112 000c 08B5     		push	{r3, lr}	@
 113              	.LCFI1:
 114              		.cfi_def_cfa_offset 8
 115              		.cfi_offset 3, -8
 116              		.cfi_offset 14, -4
  19:../../cpu/arm/mkl25z/./debug-uart.c **** 	UART0_init(DBG_UART_BAUD);
 117              		.loc 1 19 0
 118 000e 9620     		mov	r0, #150	@ tmp111,
 119 0010 0002     		lsl	r0, r0, #8	@, tmp111,
 120 0012 FFF7FEFF 		bl	UART0_init	@
 121              	.LVL3:
  20:../../cpu/arm/mkl25z/./debug-uart.c **** }
 122              		.loc 1 20 0
 123              		@ sp needed	@
 124 0016 08BD     		pop	{r3, pc}
 125              		.cfi_endproc
 126              	.LFE1:
 127              		.size	dbg_setup_uart_default, .-dbg_setup_uart_default
 128              		.align	2
 129              		.global	dbg_send_bytes
 130              		.code	16
 131              		.thumb_func
 132              		.type	dbg_send_bytes, %function
 133              	dbg_send_bytes:
 134              	.LFB2:
  21:../../cpu/arm/mkl25z/./debug-uart.c ****    
  22:../../cpu/arm/mkl25z/./debug-uart.c **** unsigned int
  23:../../cpu/arm/mkl25z/./debug-uart.c **** dbg_send_bytes(const unsigned char *seq, unsigned int len)
  24:../../cpu/arm/mkl25z/./debug-uart.c **** {
 135              		.loc 1 24 0
 136              		.cfi_startproc
 137              	.LVL4:
 138 0018 F8B5     		push	{r3, r4, r5, r6, r7, lr}	@
 139              	.LCFI2:
 140              		.cfi_def_cfa_offset 24
 141              		.cfi_offset 3, -24
 142              		.cfi_offset 4, -20
 143              		.cfi_offset 5, -16
 144              		.cfi_offset 6, -12
 145              		.cfi_offset 7, -8
 146              		.cfi_offset 14, -4
 147 001a 051E     		sub	r5, r0, #0	@ seq, seq,
ARM GAS  /tmp/ccIIOW8O.s 			page 4


 148              	.LVL5:
  25:../../cpu/arm/mkl25z/./debug-uart.c ****   unsigned int i=0;
  26:../../cpu/arm/mkl25z/./debug-uart.c **** 	while(seq && *seq!=0) {
 149              		.loc 1 26 0
 150 001c 14D0     		beq	.L7	@,
 151 001e 0078     		ldrb	r0, [r0]	@ D.4860, *seq_4(D)
 152              	.LVL6:
 153 0020 0028     		cmp	r0, #0	@ D.4860,
 154 0022 13D0     		beq	.L8	@,
  27:../../cpu/arm/mkl25z/./debug-uart.c **** 		if( i >= len) { break; }
 155              		.loc 1 27 0
 156 0024 0029     		cmp	r1, #0	@ len,
 157 0026 13D0     		beq	.L9	@,
 158 0028 6E42     		neg	r6, r5	@ D.4861, seq
 159 002a 4F1C     		add	r7, r1, #1	@ D.4861, len,
 160 002c 0124     		mov	r4, #1	@ i,
 161 002e 03E0     		b	.L5	@
 162              	.LVL7:
 163              	.L6:
 164 0030 631C     		add	r3, r4, #1	@ ivtmp.11, i,
 165 0032 BB42     		cmp	r3, r7	@ ivtmp.11, D.4861
 166 0034 0DD0     		beq	.L4	@,
 167 0036 1C1C     		mov	r4, r3	@ i, ivtmp.11
 168              	.LVL8:
 169              	.L5:
 170              	.LBB4:
 171              	.LBB5:
  28:../../cpu/arm/mkl25z/./debug-uart.c **** 		dbg_putchar(*seq++); i++;
  29:../../cpu/arm/mkl25z/./debug-uart.c **** 	}
  30:../../cpu/arm/mkl25z/./debug-uart.c **** 	return i;
  31:../../cpu/arm/mkl25z/./debug-uart.c **** }
  32:../../cpu/arm/mkl25z/./debug-uart.c **** 
  33:../../cpu/arm/mkl25z/./debug-uart.c **** static unsigned char dbg_write_overrun = 0;
  34:../../cpu/arm/mkl25z/./debug-uart.c **** 
  35:../../cpu/arm/mkl25z/./debug-uart.c **** void
  36:../../cpu/arm/mkl25z/./debug-uart.c **** dbg_putchar(const char ch)
  37:../../cpu/arm/mkl25z/./debug-uart.c **** {
  38:../../cpu/arm/mkl25z/./debug-uart.c ****   UART0_PutChar(ch);
 172              		.loc 1 38 0
 173 0038 FFF7FEFF 		bl	UART0_PutChar	@
 174              	.LVL9:
 175              	.LBE5:
 176              	.LBE4:
  26:../../cpu/arm/mkl25z/./debug-uart.c **** 	while(seq && *seq!=0) {
 177              		.loc 1 26 0
 178 003c B442     		cmp	r4, r6	@ i, D.4861
 179 003e 08D0     		beq	.L4	@,
  26:../../cpu/arm/mkl25z/./debug-uart.c **** 	while(seq && *seq!=0) {
 180              		.loc 1 26 0 is_stmt 0 discriminator 2
 181 0040 285D     		ldrb	r0, [r5, r4]	@ D.4860, MEM[base: seq_4(D), index: i_14, offset: 0B]
 182 0042 0028     		cmp	r0, #0	@ D.4860,
 183 0044 F4D1     		bne	.L6	@,
 184 0046 04E0     		b	.L4	@
 185              	.LVL10:
 186              	.L7:
  25:../../cpu/arm/mkl25z/./debug-uart.c ****   unsigned int i=0;
 187              		.loc 1 25 0 is_stmt 1
ARM GAS  /tmp/ccIIOW8O.s 			page 5


 188 0048 0024     		mov	r4, #0	@ i,
 189 004a 02E0     		b	.L4	@
 190              	.LVL11:
 191              	.L8:
 192 004c 0024     		mov	r4, #0	@ i,
 193 004e 00E0     		b	.L4	@
 194              	.L9:
 195 0050 0024     		mov	r4, #0	@ i,
 196              	.LVL12:
 197              	.L4:
  31:../../cpu/arm/mkl25z/./debug-uart.c **** }
 198              		.loc 1 31 0
 199 0052 201C     		mov	r0, r4	@, i
 200              		@ sp needed	@
 201 0054 F8BD     		pop	{r3, r4, r5, r6, r7, pc}
 202              		.cfi_endproc
 203              	.LFE2:
 204              		.size	dbg_send_bytes, .-dbg_send_bytes
 205 0056 C046     		.align	2
 206              		.global	dbg_putchar
 207              		.code	16
 208              		.thumb_func
 209              		.type	dbg_putchar, %function
 210              	dbg_putchar:
 211              	.LFB3:
  37:../../cpu/arm/mkl25z/./debug-uart.c **** {
 212              		.loc 1 37 0
 213              		.cfi_startproc
 214              	.LVL13:
 215 0058 08B5     		push	{r3, lr}	@
 216              	.LCFI3:
 217              		.cfi_def_cfa_offset 8
 218              		.cfi_offset 3, -8
 219              		.cfi_offset 14, -4
 220              		.loc 1 38 0
 221 005a FFF7FEFF 		bl	UART0_PutChar	@
 222              	.LVL14:
  39:../../cpu/arm/mkl25z/./debug-uart.c **** }
 223              		.loc 1 39 0
 224              		@ sp needed	@
 225 005e 08BD     		pop	{r3, pc}
 226              		.cfi_endproc
 227              	.LFE3:
 228              		.size	dbg_putchar, .-dbg_putchar
 229              		.align	2
 230              		.global	dbg_blocking_putchar
 231              		.code	16
 232              		.thumb_func
 233              		.type	dbg_blocking_putchar, %function
 234              	dbg_blocking_putchar:
 235              	.LFB4:
  40:../../cpu/arm/mkl25z/./debug-uart.c **** 
  41:../../cpu/arm/mkl25z/./debug-uart.c **** void
  42:../../cpu/arm/mkl25z/./debug-uart.c **** dbg_blocking_putchar(const char ch)
  43:../../cpu/arm/mkl25z/./debug-uart.c **** {
 236              		.loc 1 43 0
 237              		.cfi_startproc
ARM GAS  /tmp/ccIIOW8O.s 			page 6


 238              	.LVL15:
 239 0060 08B5     		push	{r3, lr}	@
 240              	.LCFI4:
 241              		.cfi_def_cfa_offset 8
 242              		.cfi_offset 3, -8
 243              		.cfi_offset 14, -4
  44:../../cpu/arm/mkl25z/./debug-uart.c ****   UART0_PutChar(ch);
 244              		.loc 1 44 0
 245 0062 FFF7FEFF 		bl	UART0_PutChar	@
 246              	.LVL16:
  45:../../cpu/arm/mkl25z/./debug-uart.c **** }
 247              		.loc 1 45 0
 248              		@ sp needed	@
 249 0066 08BD     		pop	{r3, pc}
 250              		.cfi_endproc
 251              	.LFE4:
 252              		.size	dbg_blocking_putchar, .-dbg_blocking_putchar
 253              	.Letext0:
 254              		.file 2 "../../cpu/arm/mkl25z/./serial.h"
 255              		.file 3 "/home/glacsweb/arm-gcc/ARM_GCC_Support/ewl/EWL_C/include/cstdint"