ARM GAS  /tmp/ccjLOM07.s 			page 1


   1              		.cpu cortex-m0plus
   2              		.fpu softvfp
   3              		.eabi_attribute 20, 1	@ Tag_ABI_FP_denormal
   4              		.eabi_attribute 21, 1	@ Tag_ABI_FP_exceptions
   5              		.eabi_attribute 23, 3	@ Tag_ABI_FP_number_model
   6              		.eabi_attribute 24, 1	@ Tag_ABI_align8_needed
   7              		.eabi_attribute 25, 1	@ Tag_ABI_align8_preserved
   8              		.eabi_attribute 26, 1	@ Tag_ABI_enum_size
   9              		.eabi_attribute 30, 1	@ Tag_ABI_optimization_goals
  10              		.eabi_attribute 34, 0	@ Tag_CPU_unaligned_access
  11              		.eabi_attribute 18, 4	@ Tag_ABI_PCS_wchar_t
  12              		.file	"nvic.c"
  13              	@ GNU C (GNU Tools for ARM Embedded Processors) version 4.8.3 20131129 (release) [ARM/embedded-4_8-
  14              	@	compiled by GNU C version 4.6.3, GMP version 4.3.2, MPFR version 2.4.2, MPC version 0.8.1
  15              	@ GGC heuristics: --param ggc-min-expand=100 --param ggc-min-heapsize=131072
  16              	@ options passed:  -I . -I ../../cpu/arm/mkl25z
  17              	@ -I ../../cpu/arm/mkl25z/loader -I ../../cpu/arm/mkl25z/dbg-io
  18              	@ -I ../../dev -I ../../platform/frdm-kl25z-rf
  19              	@ -I /home/glacsweb/arm-gcc/ARM_GCC_Support/ewl/EWL_C/include
  20              	@ -I /home/glacsweb/arm-gcc/ARM_GCC_Support/ewl/EWL_Runtime/include
  21              	@ -I /home/glacsweb/arm-gcc/lib/gcc/arm-none-eabi/4.8.3/include
  22              	@ -I /home/glacsweb/arm-gcc/lib/gcc/arm-none-eabi/4.8.3/include-fixed
  23              	@ -I /home/glacsweb/arm-gcc/arm-none-eabi/include -I ../../dev/cc1120 -I .
  24              	@ -I ../../platform/frdm-kl25z-rf/. -I ../../platform/frdm-kl25z-rf/dev
  25              	@ -I ../../platform/frdm-kl25z-rf/apps -I ../../platform/frdm-kl25z-rf/net
  26              	@ -I ../../platform/frdm-kl25z-rf/../../dev/cc1120
  27              	@ -I ../../platform/frdm-kl25z-rf/../../core/net -I ../../cpu/arm/mkl25z/.
  28              	@ -I ../../cpu/arm/mkl25z/../common/dbg-io -I ../../cpu/arm/mkl25z/loader
  29              	@ -I ../../core/dev -I ../../core/lib -I ../../core/net
  30              	@ -I ../../core/net/mac -I ../../core/net/rime -I ../../core/net/rpl
  31              	@ -I ../../core/sys -I ../../core/cfs -I ../../core/ctk
  32              	@ -I ../../core/lib/ctk -I ../../core/loader -I ../../core/.
  33              	@ -I ../../platform/frdm-kl25z-rf/ -imultilib armv6-m
  34              	@ -iprefix /home/glacsweb/arm-gcc/bin/../lib/gcc/arm-none-eabi/4.8.3/
  35              	@ -isysroot /home/glacsweb/arm-gcc/bin/../arm-none-eabi -D__USES_INITFINI__
  36              	@ -D CONTIKI=1 -D CONTIKI_TARGET_FRDM_KL25Z_RF=1 -D WITH_UIP=1
  37              	@ -D MCK=48000000 -D AUTOSTART_ENABLE -D CC11xx_CC1120=1 -D RUN_AS_SYSTEM
  38              	@ -D ROM_RUN -D __SDCC
  39              	@ -D CONTIKI_VERSION_STRING="Contiki-KL25Z-Port-18-g5a8e189"
  40              	@ ../../cpu/arm/mkl25z/./nvic.c -mcpu=cortex-m0plus -mthumb
  41              	@ -auxbase-strip obj_frdm-kl25z-rf/nvic.o -gdwarf-2 -g -O -Wall
  42              	@ -Wstrict-prototypes -fomit-frame-pointer -fverbose-asm
  43              	@ options enabled:  -faggressive-loop-optimizations -fauto-inc-dec
  44              	@ -fbranch-count-reg -fcombine-stack-adjustments -fcommon -fcompare-elim
  45              	@ -fcprop-registers -fdefer-pop -fdelete-null-pointer-checks
  46              	@ -fdwarf2-cfi-asm -fearly-inlining -feliminate-unused-debug-types
  47              	@ -fforward-propagate -ffunction-cse -fgcse-lm -fgnu-runtime
  48              	@ -fguess-branch-probability -fident -fif-conversion -fif-conversion2
  49              	@ -finline -finline-atomics -finline-functions-called-once -fipa-profile
  50              	@ -fipa-pure-const -fipa-reference -fira-hoist-pressure
  51              	@ -fira-share-save-slots -fira-share-spill-slots -fivopts
  52              	@ -fkeep-static-consts -fleading-underscore -fmath-errno -fmerge-constants
  53              	@ -fmerge-debug-strings -fmove-loop-invariants -fomit-frame-pointer
  54              	@ -fpeephole -fprefetch-loop-arrays -freg-struct-return
  55              	@ -fsched-critical-path-heuristic -fsched-dep-count-heuristic
  56              	@ -fsched-group-heuristic -fsched-interblock -fsched-last-insn-heuristic
  57              	@ -fsched-pressure -fsched-rank-heuristic -fsched-spec
ARM GAS  /tmp/ccjLOM07.s 			page 2


  58              	@ -fsched-spec-insn-heuristic -fsched-stalled-insns-dep -fsection-anchors
  59              	@ -fshow-column -fshrink-wrap -fsigned-zeros -fsplit-ivs-in-unroller
  60              	@ -fsplit-wide-types -fstrict-volatile-bitfields -fsync-libcalls
  61              	@ -ftoplevel-reorder -ftrapping-math -ftree-bit-ccp -ftree-ccp -ftree-ch
  62              	@ -ftree-coalesce-vars -ftree-copy-prop -ftree-copyrename -ftree-cselim
  63              	@ -ftree-dce -ftree-dominator-opts -ftree-dse -ftree-forwprop -ftree-fre
  64              	@ -ftree-loop-if-convert -ftree-loop-im -ftree-loop-ivcanon
  65              	@ -ftree-loop-optimize -ftree-parallelize-loops= -ftree-phiprop -ftree-pta
  66              	@ -ftree-reassoc -ftree-scev-cprop -ftree-sink -ftree-slp-vectorize
  67              	@ -ftree-slsr -ftree-sra -ftree-ter -ftree-vect-loop-version
  68              	@ -funit-at-a-time -fvar-tracking -fvar-tracking-assignments -fverbose-asm
  69              	@ -fzero-initialized-in-bss -mlittle-endian -mpic-data-is-text-relative
  70              	@ -msched-prolog -mthumb -mvectorize-with-neon-quad
  71              	
  72              		.text
  73              	.Ltext0:
  74              		.cfi_sections	.debug_frame
  75              		.align	2
  76              		.global	NVIC_ENABLE_INT
  77              		.code	16
  78              		.thumb_func
  79              		.type	NVIC_ENABLE_INT, %function
  80              	NVIC_ENABLE_INT:
  81              	.LFB0:
  82              		.file 1 "../../cpu/arm/mkl25z/./nvic.c"
   1:../../cpu/arm/mkl25z/./nvic.c **** /*-------------------------------------------------------------------------------------------------
   2:../../cpu/arm/mkl25z/./nvic.c **** /*	nvic.c	
   3:../../cpu/arm/mkl25z/./nvic.c ****  *	
   4:../../cpu/arm/mkl25z/./nvic.c ****  *	NVIC commands & definitions for the Freescale FRDM-KL25z Freedom Board
   5:../../cpu/arm/mkl25z/./nvic.c ****  *	
   6:../../cpu/arm/mkl25z/./nvic.c ****  *	Author: Graeme Bragg
   7:../../cpu/arm/mkl25z/./nvic.c ****  * 			ARM-ECS / Pervasive Systems Centre
   8:../../cpu/arm/mkl25z/./nvic.c ****  * 			School of Electronics & Computer Science
   9:../../cpu/arm/mkl25z/./nvic.c ****  * 			University of Southampton
  10:../../cpu/arm/mkl25z/./nvic.c ****  * 
  11:../../cpu/arm/mkl25z/./nvic.c ****  * 
  12:../../cpu/arm/mkl25z/./nvic.c ****  *	11/2/2014	Rev.01		Includes functions for enabling & disabling
  13:../../cpu/arm/mkl25z/./nvic.c ****  *							interrupts, setting priorities and clearing 
  14:../../cpu/arm/mkl25z/./nvic.c ****  *							& setting pending flags.  Also includes the
  15:../../cpu/arm/mkl25z/./nvic.c ****  *							ability to set priority for normal IRQ
  16:../../cpu/arm/mkl25z/./nvic.c ****  *							interrupts and Systick.
  17:../../cpu/arm/mkl25z/./nvic.c ****  *
  18:../../cpu/arm/mkl25z/./nvic.c ****  *	Page references relate to the KL25 Sub-Family Reference Manual, Document 
  19:../../cpu/arm/mkl25z/./nvic.c ****  *	No. KL25P80M48SF0RM, Rev. 3 September 2012. Available on 25/02/2013 from: 
  20:../../cpu/arm/mkl25z/./nvic.c ****  *	http://cache.freescale.com/files/32bit/doc/ref_manual/KL25P80M48SF0RM.pdf?fr=gdc
  21:../../cpu/arm/mkl25z/./nvic.c ****  *	
  22:../../cpu/arm/mkl25z/./nvic.c ****  *	Page references to "M0 Book" refer to "The Definitive Guide to the 
  23:../../cpu/arm/mkl25z/./nvic.c ****  *	ARM Cortex-M0" by Joseph Yiu, ISBN 978-0-12-385477-3.
  24:../../cpu/arm/mkl25z/./nvic.c ****  *	
  25:../../cpu/arm/mkl25z/./nvic.c ****  *
  26:../../cpu/arm/mkl25z/./nvic.c ****  * Copyright (c) 2014, University of Southampton, Electronics and Computer Science
  27:../../cpu/arm/mkl25z/./nvic.c ****  * All rights reserved.
  28:../../cpu/arm/mkl25z/./nvic.c ****  *
  29:../../cpu/arm/mkl25z/./nvic.c ****  * Redistribution and use in source and binary forms, with or without
  30:../../cpu/arm/mkl25z/./nvic.c ****  * modification, are permitted provided that the following conditions
  31:../../cpu/arm/mkl25z/./nvic.c ****  * are met:
  32:../../cpu/arm/mkl25z/./nvic.c ****  * 1. Redistributions of source code must retain the above copyright
ARM GAS  /tmp/ccjLOM07.s 			page 3


  33:../../cpu/arm/mkl25z/./nvic.c ****  * notice, this list of conditions and the following disclaimer.
  34:../../cpu/arm/mkl25z/./nvic.c ****  * 2. Redistributions in binary form must reproduce the above copyright
  35:../../cpu/arm/mkl25z/./nvic.c ****  * notice, this list of conditions and the following disclaimer in the
  36:../../cpu/arm/mkl25z/./nvic.c ****  * documentation and/or other materials provided with the distribution.
  37:../../cpu/arm/mkl25z/./nvic.c ****  * 3. Neither the name of the Institute nor the names of its contributors
  38:../../cpu/arm/mkl25z/./nvic.c ****  * may be used to endorse or promote products derived from this software
  39:../../cpu/arm/mkl25z/./nvic.c ****  * without specific prior written permission.
  40:../../cpu/arm/mkl25z/./nvic.c ****  *
  41:../../cpu/arm/mkl25z/./nvic.c ****  * THIS SOFTWARE IS PROVIDED BY THE INSTITUTE AND CONTRIBUTORS ``AS IS'' AND
  42:../../cpu/arm/mkl25z/./nvic.c ****  * ANY EXPRESS OR IMPLIED WARRANTIES, INCLUDING, BUT NOT LIMITED TO, THE
  43:../../cpu/arm/mkl25z/./nvic.c ****  * IMPLIED WARRANTIES OF MERCHANTABILITY AND FITNESS FOR A PARTICULAR PURPOSE
  44:../../cpu/arm/mkl25z/./nvic.c ****  * ARE DISCLAIMED. IN NO EVENT SHALL THE INSTITUTE OR CONTRIBUTORS BE LIABLE
  45:../../cpu/arm/mkl25z/./nvic.c ****  * FOR ANY DIRECT, INDIRECT, INCIDENTAL, SPECIAL, EXEMPLARY, OR CONSEQUENTIAL
  46:../../cpu/arm/mkl25z/./nvic.c ****  * DAMAGES (INCLUDING, BUT NOT LIMITED TO, PROCUREMENT OF SUBSTITUTE GOODS
  47:../../cpu/arm/mkl25z/./nvic.c ****  * OR SERVICES; LOSS OF USE, DATA, OR PROFITS; OR BUSINESS INTERRUPTION)
  48:../../cpu/arm/mkl25z/./nvic.c ****  * HOWEVER CAUSED AND ON ANY THEORY OF LIABILITY, WHETHER IN CONTRACT, STRICT
  49:../../cpu/arm/mkl25z/./nvic.c ****  * LIABILITY, OR TORT (INCLUDING NEGLIGENCE OR OTHERWISE) ARISING IN ANY WAY
  50:../../cpu/arm/mkl25z/./nvic.c ****  * OUT OF THE USE OF THIS SOFTWARE, EVEN IF ADVISED OF THE POSSIBILITY OF
  51:../../cpu/arm/mkl25z/./nvic.c ****  * SUCH DAMAGE.
  52:../../cpu/arm/mkl25z/./nvic.c ****  *
  53:../../cpu/arm/mkl25z/./nvic.c ****  */				
  54:../../cpu/arm/mkl25z/./nvic.c **** /*-------------------------------------------------------------------------------------------------
  55:../../cpu/arm/mkl25z/./nvic.c **** 
  56:../../cpu/arm/mkl25z/./nvic.c **** 
  57:../../cpu/arm/mkl25z/./nvic.c **** /**
  58:../../cpu/arm/mkl25z/./nvic.c **** * \file
  59:../../cpu/arm/mkl25z/./nvic.c **** * MKL25Z NVIC functions.
  60:../../cpu/arm/mkl25z/./nvic.c **** *
  61:../../cpu/arm/mkl25z/./nvic.c **** * \author
  62:../../cpu/arm/mkl25z/./nvic.c **** * Graeme Bragg - <g.bragg@ecs.soton.ac.uk>
  63:../../cpu/arm/mkl25z/./nvic.c **** */
  64:../../cpu/arm/mkl25z/./nvic.c **** 
  65:../../cpu/arm/mkl25z/./nvic.c **** 
  66:../../cpu/arm/mkl25z/./nvic.c **** 
  67:../../cpu/arm/mkl25z/./nvic.c **** #include "nvic.h"
  68:../../cpu/arm/mkl25z/./nvic.c **** 
  69:../../cpu/arm/mkl25z/./nvic.c **** /*---------------------------------------------------------------------------*/
  70:../../cpu/arm/mkl25z/./nvic.c **** /**
  71:../../cpu/arm/mkl25z/./nvic.c **** * \brief 			Enable specified interrupt in the ARM NVIC.
  72:../../cpu/arm/mkl25z/./nvic.c **** * \param IRQ 		IRQ of relevant interrupt as specified in Table 3-7. on Page 52 of the KL25 Sub-Fami
  73:../../cpu/arm/mkl25z/./nvic.c **** * \return 			Nil.
  74:../../cpu/arm/mkl25z/./nvic.c **** *
  75:../../cpu/arm/mkl25z/./nvic.c **** * Enable the specified interrupt in the Nested Vector
  76:../../cpu/arm/mkl25z/./nvic.c **** * Interrupt Controller (NVIC) after clearing any 
  77:../../cpu/arm/mkl25z/./nvic.c **** * pending interrupts.
  78:../../cpu/arm/mkl25z/./nvic.c **** */
  79:../../cpu/arm/mkl25z/./nvic.c **** void 
  80:../../cpu/arm/mkl25z/./nvic.c **** NVIC_ENABLE_INT(uint32_t IRQ)
  81:../../cpu/arm/mkl25z/./nvic.c **** {
  83              		.loc 1 81 0
  84              		.cfi_startproc
  85              	.LVL0:
  82:../../cpu/arm/mkl25z/./nvic.c **** 	NVIC_ICPR != (1 << IRQ);		/* Clear any pending interrupts. */
  86              		.loc 1 82 0
  87 0000 054B     		ldr	r3, .L2	@ tmp117,
  88 0002 C022     		mov	r2, #192	@ tmp123,
  89 0004 5200     		lsl	r2, r2, #1	@ tmp118, tmp123,
ARM GAS  /tmp/ccjLOM07.s 			page 4


  90 0006 9A58     		ldr	r2, [r3, r2]	@ D.4754, MEM[(volatile struct NVIC_MemMap *)3758153984B].ICPR
  83:../../cpu/arm/mkl25z/./nvic.c **** 	NVIC_ISER |= (1 << IRQ);		/* Enable the specified interrupt in the NVIC. */
  91              		.loc 1 83 0
  92 0008 1A68     		ldr	r2, [r3]	@ D.4754, MEM[(volatile struct NVIC_MemMap *)3758153984B].ISER
  93 000a 0121     		mov	r1, #1	@ tmp121,
  94 000c 8140     		lsl	r1, r1, r0	@ tmp121, tmp121, IRQ
  95 000e 081C     		mov	r0, r1	@ D.4755, tmp121
  96              	.LVL1:
  97 0010 1043     		orr	r0, r2	@ D.4754, D.4754
  98 0012 1860     		str	r0, [r3]	@ D.4754, MEM[(volatile struct NVIC_MemMap *)3758153984B].ISER
  84:../../cpu/arm/mkl25z/./nvic.c **** }
  99              		.loc 1 84 0
 100              		@ sp needed	@
 101 0014 7047     		bx	lr
 102              	.L3:
 103 0016 C046     		.align	2
 104              	.L2:
 105 0018 00E100E0 		.word	-536813312
 106              		.cfi_endproc
 107              	.LFE0:
 108              		.size	NVIC_ENABLE_INT, .-NVIC_ENABLE_INT
 109              		.align	2
 110              		.global	NVIC_DISABLE_INT
 111              		.code	16
 112              		.thumb_func
 113              		.type	NVIC_DISABLE_INT, %function
 114              	NVIC_DISABLE_INT:
 115              	.LFB1:
  85:../../cpu/arm/mkl25z/./nvic.c **** 
  86:../../cpu/arm/mkl25z/./nvic.c **** /*---------------------------------------------------------------------------*/
  87:../../cpu/arm/mkl25z/./nvic.c **** /**
  88:../../cpu/arm/mkl25z/./nvic.c **** * \brief 			Disable specified interrupt in the ARM NVIC.
  89:../../cpu/arm/mkl25z/./nvic.c **** * \param IRQ 		IRQ of relevant interrupt as specified in Table 3-7. on Page 52 of the KL25 Sub-Fami
  90:../../cpu/arm/mkl25z/./nvic.c **** * \return 			Nil.
  91:../../cpu/arm/mkl25z/./nvic.c **** *
  92:../../cpu/arm/mkl25z/./nvic.c **** * Disable the specified interrupt in the Nested Vector
  93:../../cpu/arm/mkl25z/./nvic.c **** * Interrupt Controller (NVIC).
  94:../../cpu/arm/mkl25z/./nvic.c **** */
  95:../../cpu/arm/mkl25z/./nvic.c **** void NVIC_DISABLE_INT(uint32_t IRQ)
  96:../../cpu/arm/mkl25z/./nvic.c **** {
 116              		.loc 1 96 0
 117              		.cfi_startproc
 118              	.LVL2:
 119 001c 10B5     		push	{r4, lr}	@
 120              	.LCFI0:
 121              		.cfi_def_cfa_offset 8
 122              		.cfi_offset 4, -8
 123              		.cfi_offset 14, -4
  97:../../cpu/arm/mkl25z/./nvic.c **** 	NVIC_ICER |= (1 << IRQ);		/* Disable the specified interrupt in the NVIC. */
 124              		.loc 1 97 0
 125 001e 044A     		ldr	r2, .L5	@ tmp116,
 126 0020 8023     		mov	r3, #128	@ tmp117,
 127 0022 D158     		ldr	r1, [r2, r3]	@ D.4757, MEM[(volatile struct NVIC_MemMap *)3758153984B].ICER
 128 0024 0124     		mov	r4, #1	@ tmp119,
 129 0026 8440     		lsl	r4, r4, r0	@ tmp119, tmp119, IRQ
 130 0028 201C     		mov	r0, r4	@ D.4758, tmp119
 131              	.LVL3:
ARM GAS  /tmp/ccjLOM07.s 			page 5


 132 002a 0843     		orr	r0, r1	@ D.4757, D.4757
 133 002c D050     		str	r0, [r2, r3]	@ D.4757, MEM[(volatile struct NVIC_MemMap *)3758153984B].ICER
  98:../../cpu/arm/mkl25z/./nvic.c **** 	//NVIC_ISER &= ~(1 << IRQ);
  99:../../cpu/arm/mkl25z/./nvic.c **** }
 134              		.loc 1 99 0
 135              		@ sp needed	@
 136 002e 10BD     		pop	{r4, pc}
 137              	.L6:
 138              		.align	2
 139              	.L5:
 140 0030 00E100E0 		.word	-536813312
 141              		.cfi_endproc
 142              	.LFE1:
 143              		.size	NVIC_DISABLE_INT, .-NVIC_DISABLE_INT
 144              		.align	2
 145              		.global	NVIC_SET_PENDING
 146              		.code	16
 147              		.thumb_func
 148              		.type	NVIC_SET_PENDING, %function
 149              	NVIC_SET_PENDING:
 150              	.LFB2:
 100:../../cpu/arm/mkl25z/./nvic.c **** 
 101:../../cpu/arm/mkl25z/./nvic.c **** /*---------------------------------------------------------------------------*/
 102:../../cpu/arm/mkl25z/./nvic.c **** /**
 103:../../cpu/arm/mkl25z/./nvic.c **** * \brief 			Set a pending interrupt for the specified interrupt in the ARM NVIC.
 104:../../cpu/arm/mkl25z/./nvic.c **** * \param IRQ 		IRQ of relevant interrupt as specified in Table 3-7. on Page 52 of the KL25 Sub-Fami
 105:../../cpu/arm/mkl25z/./nvic.c **** * \return 			Nil.
 106:../../cpu/arm/mkl25z/./nvic.c **** *
 107:../../cpu/arm/mkl25z/./nvic.c **** * Set a pending interrupt for the specified interrupt in the Nested Vector
 108:../../cpu/arm/mkl25z/./nvic.c **** * Interrupt Controller (NVIC).
 109:../../cpu/arm/mkl25z/./nvic.c **** */
 110:../../cpu/arm/mkl25z/./nvic.c **** void NVIC_SET_PENDING(uint32_t IRQ)
 111:../../cpu/arm/mkl25z/./nvic.c **** {
 151              		.loc 1 111 0
 152              		.cfi_startproc
 153              	.LVL4:
 154 0034 10B5     		push	{r4, lr}	@
 155              	.LCFI1:
 156              		.cfi_def_cfa_offset 8
 157              		.cfi_offset 4, -8
 158              		.cfi_offset 14, -4
 112:../../cpu/arm/mkl25z/./nvic.c **** 	NVIC_ISPR |= (1 << IRQ);		/* Set pending interrupt in the NVIC. */
 159              		.loc 1 112 0
 160 0036 054A     		ldr	r2, .L8	@ tmp116,
 161 0038 8023     		mov	r3, #128	@ tmp122,
 162 003a 5B00     		lsl	r3, r3, #1	@ tmp117, tmp122,
 163 003c D158     		ldr	r1, [r2, r3]	@ D.4760, MEM[(volatile struct NVIC_MemMap *)3758153984B].ISPR
 164 003e 0124     		mov	r4, #1	@ tmp119,
 165 0040 8440     		lsl	r4, r4, r0	@ tmp119, tmp119, IRQ
 166 0042 201C     		mov	r0, r4	@ D.4761, tmp119
 167              	.LVL5:
 168 0044 0843     		orr	r0, r1	@ D.4760, D.4760
 169 0046 D050     		str	r0, [r2, r3]	@ D.4760, MEM[(volatile struct NVIC_MemMap *)3758153984B].ISPR
 113:../../cpu/arm/mkl25z/./nvic.c **** }
 170              		.loc 1 113 0
 171              		@ sp needed	@
 172 0048 10BD     		pop	{r4, pc}
ARM GAS  /tmp/ccjLOM07.s 			page 6


 173              	.L9:
 174 004a C046     		.align	2
 175              	.L8:
 176 004c 00E100E0 		.word	-536813312
 177              		.cfi_endproc
 178              	.LFE2:
 179              		.size	NVIC_SET_PENDING, .-NVIC_SET_PENDING
 180              		.align	2
 181              		.global	NVIC_CLEAR_PENDING
 182              		.code	16
 183              		.thumb_func
 184              		.type	NVIC_CLEAR_PENDING, %function
 185              	NVIC_CLEAR_PENDING:
 186              	.LFB3:
 114:../../cpu/arm/mkl25z/./nvic.c **** 
 115:../../cpu/arm/mkl25z/./nvic.c **** /*---------------------------------------------------------------------------*/
 116:../../cpu/arm/mkl25z/./nvic.c **** /**
 117:../../cpu/arm/mkl25z/./nvic.c **** * \brief 			Clear a pending interrupt for the specified interrupt in the ARM NVIC.
 118:../../cpu/arm/mkl25z/./nvic.c **** * \param IRQ 		IRQ of relevant interrupt as specified in Table 3-7. on Page 52 of the KL25 Sub-Fami
 119:../../cpu/arm/mkl25z/./nvic.c **** * \return 			Nil.
 120:../../cpu/arm/mkl25z/./nvic.c **** *
 121:../../cpu/arm/mkl25z/./nvic.c **** * Clear a pending interrupt for the specified interrupt in the Nested Vector
 122:../../cpu/arm/mkl25z/./nvic.c **** * Interrupt Controller (NVIC).
 123:../../cpu/arm/mkl25z/./nvic.c **** */
 124:../../cpu/arm/mkl25z/./nvic.c **** void NVIC_CLEAR_PENDING(uint32_t IRQ)
 125:../../cpu/arm/mkl25z/./nvic.c **** {
 187              		.loc 1 125 0
 188              		.cfi_startproc
 189              	.LVL6:
 190 0050 10B5     		push	{r4, lr}	@
 191              	.LCFI2:
 192              		.cfi_def_cfa_offset 8
 193              		.cfi_offset 4, -8
 194              		.cfi_offset 14, -4
 126:../../cpu/arm/mkl25z/./nvic.c **** 	NVIC_ICPR |= (1 << IRQ);		/* Clear pending interrupt in the NVIC. */
 195              		.loc 1 126 0
 196 0052 054A     		ldr	r2, .L11	@ tmp116,
 197 0054 C023     		mov	r3, #192	@ tmp122,
 198 0056 5B00     		lsl	r3, r3, #1	@ tmp117, tmp122,
 199 0058 D158     		ldr	r1, [r2, r3]	@ D.4763, MEM[(volatile struct NVIC_MemMap *)3758153984B].ICPR
 200 005a 0124     		mov	r4, #1	@ tmp119,
 201 005c 8440     		lsl	r4, r4, r0	@ tmp119, tmp119, IRQ
 202 005e 201C     		mov	r0, r4	@ D.4764, tmp119
 203              	.LVL7:
 204 0060 0843     		orr	r0, r1	@ D.4763, D.4763
 205 0062 D050     		str	r0, [r2, r3]	@ D.4763, MEM[(volatile struct NVIC_MemMap *)3758153984B].ICPR
 127:../../cpu/arm/mkl25z/./nvic.c **** }
 206              		.loc 1 127 0
 207              		@ sp needed	@
 208 0064 10BD     		pop	{r4, pc}
 209              	.L12:
 210 0066 C046     		.align	2
 211              	.L11:
 212 0068 00E100E0 		.word	-536813312
 213              		.cfi_endproc
 214              	.LFE3:
 215              		.size	NVIC_CLEAR_PENDING, .-NVIC_CLEAR_PENDING
ARM GAS  /tmp/ccjLOM07.s 			page 7


 216              		.align	2
 217              		.global	NVIC_Set_Priority
 218              		.code	16
 219              		.thumb_func
 220              		.type	NVIC_Set_Priority, %function
 221              	NVIC_Set_Priority:
 222              	.LFB4:
 128:../../cpu/arm/mkl25z/./nvic.c **** 
 129:../../cpu/arm/mkl25z/./nvic.c **** /*---------------------------------------------------------------------------*/
 130:../../cpu/arm/mkl25z/./nvic.c **** /**
 131:../../cpu/arm/mkl25z/./nvic.c **** * \brief 			Set the priority of the specified interrupt in the ARM NVIC.
 132:../../cpu/arm/mkl25z/./nvic.c **** * \param IRQ 		IRQ of relevant interrupt as specified in Table 3-7. on Page 52 of the KL25 Sub-Fami
 133:../../cpu/arm/mkl25z/./nvic.c **** * \param priority	Priority of the interrupt. Value between 0 and 3.
 134:../../cpu/arm/mkl25z/./nvic.c **** * \return 			Nil.
 135:../../cpu/arm/mkl25z/./nvic.c **** *
 136:../../cpu/arm/mkl25z/./nvic.c **** * Set the priority of the specified interrupt in the Nested Vector
 137:../../cpu/arm/mkl25z/./nvic.c **** * Interrupt Controller (NVIC).  The priority is a two-bit value with 
 138:../../cpu/arm/mkl25z/./nvic.c **** * 0 being the highest priority.
 139:../../cpu/arm/mkl25z/./nvic.c **** *
 140:../../cpu/arm/mkl25z/./nvic.c **** * Either a priority of 0 to 3 or 128
 141:../../cpu/arm/mkl25z/./nvic.c **** */
 142:../../cpu/arm/mkl25z/./nvic.c **** void NVIC_Set_Priority(uint32_t IRQ, uint8_t priority)
 143:../../cpu/arm/mkl25z/./nvic.c **** {
 223              		.loc 1 143 0
 224              		.cfi_startproc
 225              	.LVL8:
 226 006c 30B5     		push	{r4, r5, lr}	@
 227              	.LCFI3:
 228              		.cfi_def_cfa_offset 12
 229              		.cfi_offset 4, -12
 230              		.cfi_offset 5, -8
 231              		.cfi_offset 14, -4
 144:../../cpu/arm/mkl25z/./nvic.c **** 	/* If priority has been set as 0-3, convert it. */
 145:../../cpu/arm/mkl25z/./nvic.c **** 	if(priority < 4) {
 232              		.loc 1 145 0
 233 006e 0329     		cmp	r1, #3	@ priority,
 234 0070 01D8     		bhi	.L14	@,
 146:../../cpu/arm/mkl25z/./nvic.c **** 		priority = (priority & 3) << 6;
 235              		.loc 1 146 0
 236 0072 8901     		lsl	r1, r1, #6	@ D.4767, priority,
 237              	.LVL9:
 238 0074 C9B2     		uxtb	r1, r1	@ priority, D.4767
 239              	.LVL10:
 240              	.L14:
 147:../../cpu/arm/mkl25z/./nvic.c **** 	}
 148:../../cpu/arm/mkl25z/./nvic.c **** 	
 149:../../cpu/arm/mkl25z/./nvic.c **** 	/* Set priority for specified interrupt after clearing any existing priority. */
 150:../../cpu/arm/mkl25z/./nvic.c **** 	switch (IRQ/4){
 241              		.loc 1 150 0
 242 0076 8308     		lsr	r3, r0, #2	@ D.4768, IRQ,
 243 0078 072B     		cmp	r3, #7	@ D.4768,
 244 007a 00D9     		bls	.LCB150	@
 245 007c 9AE0     		b	.L13	@long jump	@
 246              	.LCB150:
 247 007e 9B00     		lsl	r3, r3, #2	@ tmp230, D.4768,
 248 0080 4D4A     		ldr	r2, .L25	@ tmp232,
 249 0082 D358     		ldr	r3, [r2, r3]	@ tmp233,
ARM GAS  /tmp/ccjLOM07.s 			page 8


 250 0084 9F46     		mov	pc, r3	@ tmp233
 251              		.section	.rodata
 252              		.align	2
 253              	.L17:
 254 0000 86000000 		.word	.L16
 255 0004 AC000000 		.word	.L18
 256 0008 D2000000 		.word	.L19
 257 000c F8000000 		.word	.L20
 258 0010 1E010000 		.word	.L21
 259 0014 44010000 		.word	.L22
 260 0018 6A010000 		.word	.L23
 261 001c 90010000 		.word	.L24
 262              		.text
 263              	.L16:
 151:../../cpu/arm/mkl25z/./nvic.c **** 			case 0:	NVIC_IPR0 &= ~(0xC0 << ((IRQ & 3) * 8));
 264              		.loc 1 151 0
 265 0086 4D4A     		ldr	r2, .L25+4	@ tmp234,
 266 0088 C023     		mov	r3, #192	@ tmp380,
 267 008a 9B00     		lsl	r3, r3, #2	@ tmp235, tmp380,
 268 008c D458     		ldr	r4, [r2, r3]	@ D.4768, MEM[(volatile struct NVIC_MemMap *)3758153984B].IP
 269 008e 0325     		mov	r5, #3	@ tmp236,
 270 0090 2840     		and	r0, r5	@ D.4768, tmp236
 271              	.LVL11:
 272 0092 C000     		lsl	r0, r0, #3	@ D.4767, D.4768,
 273 0094 C025     		mov	r5, #192	@ tmp239,
 274 0096 8540     		lsl	r5, r5, r0	@ D.4767, tmp239, D.4767
 275 0098 AC43     		bic	r4, r5	@ D.4768, D.4767
 276 009a D450     		str	r4, [r2, r3]	@ D.4768, MEM[(volatile struct NVIC_MemMap *)3758153984B].IP
 152:../../cpu/arm/mkl25z/./nvic.c **** 					NVIC_IPR0 |= (priority & 0xC0) << ((IRQ & 3) * 8);
 277              		.loc 1 152 0
 278 009c D458     		ldr	r4, [r2, r3]	@ D.4768, MEM[(volatile struct NVIC_MemMap *)3758153984B].IP
 279 009e 3F25     		mov	r5, #63	@ tmp246,
 280 00a0 A943     		bic	r1, r5	@ D.4767, tmp246
 281              	.LVL12:
 282 00a2 8140     		lsl	r1, r1, r0	@ D.4767, D.4767, D.4767
 283 00a4 081C     		mov	r0, r1	@ D.4767, D.4767
 284 00a6 2043     		orr	r0, r4	@ D.4768, D.4768
 285 00a8 D050     		str	r0, [r2, r3]	@ D.4768, MEM[(volatile struct NVIC_MemMap *)3758153984B].IP
 153:../../cpu/arm/mkl25z/./nvic.c **** 					break;
 286              		.loc 1 153 0
 287 00aa 83E0     		b	.L13	@
 288              	.LVL13:
 289              	.L18:
 154:../../cpu/arm/mkl25z/./nvic.c **** 			case 1:	NVIC_IPR1 &= ~(0xC0 << ((IRQ & 3) * 8));
 290              		.loc 1 154 0
 291 00ac 434A     		ldr	r2, .L25+4	@ tmp251,
 292 00ae C123     		mov	r3, #193	@ tmp379,
 293 00b0 9B00     		lsl	r3, r3, #2	@ tmp252, tmp379,
 294 00b2 D458     		ldr	r4, [r2, r3]	@ D.4768, MEM[(volatile struct NVIC_MemMap *)3758153984B].IP
 295 00b4 0325     		mov	r5, #3	@ tmp253,
 296 00b6 2840     		and	r0, r5	@ D.4768, tmp253
 297              	.LVL14:
 298 00b8 C000     		lsl	r0, r0, #3	@ D.4767, D.4768,
 299 00ba C025     		mov	r5, #192	@ tmp256,
 300 00bc 8540     		lsl	r5, r5, r0	@ D.4767, tmp256, D.4767
 301 00be AC43     		bic	r4, r5	@ D.4768, D.4767
 302 00c0 D450     		str	r4, [r2, r3]	@ D.4768, MEM[(volatile struct NVIC_MemMap *)3758153984B].IP
ARM GAS  /tmp/ccjLOM07.s 			page 9


 155:../../cpu/arm/mkl25z/./nvic.c **** 					NVIC_IPR1 |= (priority & 0xC0) << ((IRQ & 3) * 8);
 303              		.loc 1 155 0
 304 00c2 D458     		ldr	r4, [r2, r3]	@ D.4768, MEM[(volatile struct NVIC_MemMap *)3758153984B].IP
 305 00c4 3F25     		mov	r5, #63	@ tmp263,
 306 00c6 A943     		bic	r1, r5	@ D.4767, tmp263
 307              	.LVL15:
 308 00c8 8140     		lsl	r1, r1, r0	@ D.4767, D.4767, D.4767
 309 00ca 081C     		mov	r0, r1	@ D.4767, D.4767
 310 00cc 2043     		orr	r0, r4	@ D.4768, D.4768
 311 00ce D050     		str	r0, [r2, r3]	@ D.4768, MEM[(volatile struct NVIC_MemMap *)3758153984B].IP
 156:../../cpu/arm/mkl25z/./nvic.c **** 					break;
 312              		.loc 1 156 0
 313 00d0 70E0     		b	.L13	@
 314              	.LVL16:
 315              	.L19:
 157:../../cpu/arm/mkl25z/./nvic.c **** 			case 2:	NVIC_IPR2 &= ~(0xC0 << ((IRQ & 3) * 8));
 316              		.loc 1 157 0
 317 00d2 3A4A     		ldr	r2, .L25+4	@ tmp268,
 318 00d4 C223     		mov	r3, #194	@ tmp378,
 319 00d6 9B00     		lsl	r3, r3, #2	@ tmp269, tmp378,
 320 00d8 D458     		ldr	r4, [r2, r3]	@ D.4768, MEM[(volatile struct NVIC_MemMap *)3758153984B].IP
 321 00da 0325     		mov	r5, #3	@ tmp270,
 322 00dc 2840     		and	r0, r5	@ D.4768, tmp270
 323              	.LVL17:
 324 00de C000     		lsl	r0, r0, #3	@ D.4767, D.4768,
 325 00e0 C025     		mov	r5, #192	@ tmp273,
 326 00e2 8540     		lsl	r5, r5, r0	@ D.4767, tmp273, D.4767
 327 00e4 AC43     		bic	r4, r5	@ D.4768, D.4767
 328 00e6 D450     		str	r4, [r2, r3]	@ D.4768, MEM[(volatile struct NVIC_MemMap *)3758153984B].IP
 158:../../cpu/arm/mkl25z/./nvic.c **** 					NVIC_IPR2 |= (priority & 0xC0) << ((IRQ & 3) * 8);
 329              		.loc 1 158 0
 330 00e8 D458     		ldr	r4, [r2, r3]	@ D.4768, MEM[(volatile struct NVIC_MemMap *)3758153984B].IP
 331 00ea 3F25     		mov	r5, #63	@ tmp280,
 332 00ec A943     		bic	r1, r5	@ D.4767, tmp280
 333              	.LVL18:
 334 00ee 8140     		lsl	r1, r1, r0	@ D.4767, D.4767, D.4767
 335 00f0 081C     		mov	r0, r1	@ D.4767, D.4767
 336 00f2 2043     		orr	r0, r4	@ D.4768, D.4768
 337 00f4 D050     		str	r0, [r2, r3]	@ D.4768, MEM[(volatile struct NVIC_MemMap *)3758153984B].IP
 159:../../cpu/arm/mkl25z/./nvic.c **** 					break;
 338              		.loc 1 159 0
 339 00f6 5DE0     		b	.L13	@
 340              	.LVL19:
 341              	.L20:
 160:../../cpu/arm/mkl25z/./nvic.c **** 			case 3:	NVIC_IPR3 &= ~(0xC0 << ((IRQ & 3) * 8));
 342              		.loc 1 160 0
 343 00f8 304A     		ldr	r2, .L25+4	@ tmp285,
 344 00fa C323     		mov	r3, #195	@ tmp377,
 345 00fc 9B00     		lsl	r3, r3, #2	@ tmp286, tmp377,
 346 00fe D458     		ldr	r4, [r2, r3]	@ D.4768, MEM[(volatile struct NVIC_MemMap *)3758153984B].IP
 347 0100 0325     		mov	r5, #3	@ tmp287,
 348 0102 2840     		and	r0, r5	@ D.4768, tmp287
 349              	.LVL20:
 350 0104 C000     		lsl	r0, r0, #3	@ D.4767, D.4768,
 351 0106 C025     		mov	r5, #192	@ tmp290,
 352 0108 8540     		lsl	r5, r5, r0	@ D.4767, tmp290, D.4767
 353 010a AC43     		bic	r4, r5	@ D.4768, D.4767
ARM GAS  /tmp/ccjLOM07.s 			page 10


 354 010c D450     		str	r4, [r2, r3]	@ D.4768, MEM[(volatile struct NVIC_MemMap *)3758153984B].IP
 161:../../cpu/arm/mkl25z/./nvic.c **** 					NVIC_IPR3 |= (priority & 0xC0) << ((IRQ & 3) * 8);
 355              		.loc 1 161 0
 356 010e D458     		ldr	r4, [r2, r3]	@ D.4768, MEM[(volatile struct NVIC_MemMap *)3758153984B].IP
 357 0110 3F25     		mov	r5, #63	@ tmp297,
 358 0112 A943     		bic	r1, r5	@ D.4767, tmp297
 359              	.LVL21:
 360 0114 8140     		lsl	r1, r1, r0	@ D.4767, D.4767, D.4767
 361 0116 081C     		mov	r0, r1	@ D.4767, D.4767
 362 0118 2043     		orr	r0, r4	@ D.4768, D.4768
 363 011a D050     		str	r0, [r2, r3]	@ D.4768, MEM[(volatile struct NVIC_MemMap *)3758153984B].IP
 162:../../cpu/arm/mkl25z/./nvic.c **** 					break;
 364              		.loc 1 162 0
 365 011c 4AE0     		b	.L13	@
 366              	.LVL22:
 367              	.L21:
 163:../../cpu/arm/mkl25z/./nvic.c **** 			case 4:	NVIC_IPR4 &= ~(0xC0 << ((IRQ & 3) * 8));
 368              		.loc 1 163 0
 369 011e 274A     		ldr	r2, .L25+4	@ tmp302,
 370 0120 C423     		mov	r3, #196	@ tmp376,
 371 0122 9B00     		lsl	r3, r3, #2	@ tmp303, tmp376,
 372 0124 D458     		ldr	r4, [r2, r3]	@ D.4768, MEM[(volatile struct NVIC_MemMap *)3758153984B].IP
 373 0126 0325     		mov	r5, #3	@ tmp304,
 374 0128 2840     		and	r0, r5	@ D.4768, tmp304
 375              	.LVL23:
 376 012a C000     		lsl	r0, r0, #3	@ D.4767, D.4768,
 377 012c C025     		mov	r5, #192	@ tmp307,
 378 012e 8540     		lsl	r5, r5, r0	@ D.4767, tmp307, D.4767
 379 0130 AC43     		bic	r4, r5	@ D.4768, D.4767
 380 0132 D450     		str	r4, [r2, r3]	@ D.4768, MEM[(volatile struct NVIC_MemMap *)3758153984B].IP
 164:../../cpu/arm/mkl25z/./nvic.c **** 					NVIC_IPR4 |= (priority & 0xC0) << ((IRQ & 3) * 8);
 381              		.loc 1 164 0
 382 0134 D458     		ldr	r4, [r2, r3]	@ D.4768, MEM[(volatile struct NVIC_MemMap *)3758153984B].IP
 383 0136 3F25     		mov	r5, #63	@ tmp314,
 384 0138 A943     		bic	r1, r5	@ D.4767, tmp314
 385              	.LVL24:
 386 013a 8140     		lsl	r1, r1, r0	@ D.4767, D.4767, D.4767
 387 013c 081C     		mov	r0, r1	@ D.4767, D.4767
 388 013e 2043     		orr	r0, r4	@ D.4768, D.4768
 389 0140 D050     		str	r0, [r2, r3]	@ D.4768, MEM[(volatile struct NVIC_MemMap *)3758153984B].IP
 165:../../cpu/arm/mkl25z/./nvic.c **** 					break;
 390              		.loc 1 165 0
 391 0142 37E0     		b	.L13	@
 392              	.LVL25:
 393              	.L22:
 166:../../cpu/arm/mkl25z/./nvic.c **** 			case 5:	NVIC_IPR5 &= ~(0xC0 << ((IRQ & 3) * 8));
 394              		.loc 1 166 0
 395 0144 1D4A     		ldr	r2, .L25+4	@ tmp319,
 396 0146 C523     		mov	r3, #197	@ tmp375,
 397 0148 9B00     		lsl	r3, r3, #2	@ tmp320, tmp375,
 398 014a D458     		ldr	r4, [r2, r3]	@ D.4768, MEM[(volatile struct NVIC_MemMap *)3758153984B].IP
 399 014c 0325     		mov	r5, #3	@ tmp321,
 400 014e 2840     		and	r0, r5	@ D.4768, tmp321
 401              	.LVL26:
 402 0150 C000     		lsl	r0, r0, #3	@ D.4767, D.4768,
 403 0152 C025     		mov	r5, #192	@ tmp324,
 404 0154 8540     		lsl	r5, r5, r0	@ D.4767, tmp324, D.4767
ARM GAS  /tmp/ccjLOM07.s 			page 11


 405 0156 AC43     		bic	r4, r5	@ D.4768, D.4767
 406 0158 D450     		str	r4, [r2, r3]	@ D.4768, MEM[(volatile struct NVIC_MemMap *)3758153984B].IP
 167:../../cpu/arm/mkl25z/./nvic.c **** 					NVIC_IPR5 |= (priority & 0xC0) << ((IRQ & 3) * 8);
 407              		.loc 1 167 0
 408 015a D458     		ldr	r4, [r2, r3]	@ D.4768, MEM[(volatile struct NVIC_MemMap *)3758153984B].IP
 409 015c 3F25     		mov	r5, #63	@ tmp331,
 410 015e A943     		bic	r1, r5	@ D.4767, tmp331
 411              	.LVL27:
 412 0160 8140     		lsl	r1, r1, r0	@ D.4767, D.4767, D.4767
 413 0162 081C     		mov	r0, r1	@ D.4767, D.4767
 414 0164 2043     		orr	r0, r4	@ D.4768, D.4768
 415 0166 D050     		str	r0, [r2, r3]	@ D.4768, MEM[(volatile struct NVIC_MemMap *)3758153984B].IP
 168:../../cpu/arm/mkl25z/./nvic.c **** 					break;
 416              		.loc 1 168 0
 417 0168 24E0     		b	.L13	@
 418              	.LVL28:
 419              	.L23:
 169:../../cpu/arm/mkl25z/./nvic.c **** 			case 6:	NVIC_IPR6 &= ~(0xC0 << ((IRQ & 3) * 8));
 420              		.loc 1 169 0
 421 016a 144A     		ldr	r2, .L25+4	@ tmp336,
 422 016c C623     		mov	r3, #198	@ tmp374,
 423 016e 9B00     		lsl	r3, r3, #2	@ tmp337, tmp374,
 424 0170 D458     		ldr	r4, [r2, r3]	@ D.4768, MEM[(volatile struct NVIC_MemMap *)3758153984B].IP
 425 0172 0325     		mov	r5, #3	@ tmp338,
 426 0174 2840     		and	r0, r5	@ D.4768, tmp338
 427              	.LVL29:
 428 0176 C000     		lsl	r0, r0, #3	@ D.4767, D.4768,
 429 0178 C025     		mov	r5, #192	@ tmp341,
 430 017a 8540     		lsl	r5, r5, r0	@ D.4767, tmp341, D.4767
 431 017c AC43     		bic	r4, r5	@ D.4768, D.4767
 432 017e D450     		str	r4, [r2, r3]	@ D.4768, MEM[(volatile struct NVIC_MemMap *)3758153984B].IP
 170:../../cpu/arm/mkl25z/./nvic.c **** 					NVIC_IPR6 |= (priority & 0xC0) << ((IRQ & 3) * 8);
 433              		.loc 1 170 0
 434 0180 D458     		ldr	r4, [r2, r3]	@ D.4768, MEM[(volatile struct NVIC_MemMap *)3758153984B].IP
 435 0182 3F25     		mov	r5, #63	@ tmp348,
 436 0184 A943     		bic	r1, r5	@ D.4767, tmp348
 437              	.LVL30:
 438 0186 8140     		lsl	r1, r1, r0	@ D.4767, D.4767, D.4767
 439 0188 081C     		mov	r0, r1	@ D.4767, D.4767
 440 018a 2043     		orr	r0, r4	@ D.4768, D.4768
 441 018c D050     		str	r0, [r2, r3]	@ D.4768, MEM[(volatile struct NVIC_MemMap *)3758153984B].IP
 171:../../cpu/arm/mkl25z/./nvic.c **** 					break;
 442              		.loc 1 171 0
 443 018e 11E0     		b	.L13	@
 444              	.LVL31:
 445              	.L24:
 172:../../cpu/arm/mkl25z/./nvic.c **** 			case 7:	NVIC_IPR7 &= ~(0xC0 << ((IRQ & 3) * 8));
 446              		.loc 1 172 0
 447 0190 0A4A     		ldr	r2, .L25+4	@ tmp353,
 448 0192 C723     		mov	r3, #199	@ tmp373,
 449 0194 9B00     		lsl	r3, r3, #2	@ tmp354, tmp373,
 450 0196 D458     		ldr	r4, [r2, r3]	@ D.4768, MEM[(volatile struct NVIC_MemMap *)3758153984B].IP
 451 0198 0325     		mov	r5, #3	@ tmp355,
 452 019a 2840     		and	r0, r5	@ D.4768, tmp355
 453              	.LVL32:
 454 019c C000     		lsl	r0, r0, #3	@ D.4768, D.4768,
 455 019e C025     		mov	r5, #192	@ tmp358,
ARM GAS  /tmp/ccjLOM07.s 			page 12


 456 01a0 8540     		lsl	r5, r5, r0	@ D.4767, tmp358, D.4768
 457 01a2 AC43     		bic	r4, r5	@ D.4768, D.4767
 458 01a4 D450     		str	r4, [r2, r3]	@ D.4768, MEM[(volatile struct NVIC_MemMap *)3758153984B].IP
 173:../../cpu/arm/mkl25z/./nvic.c **** 					NVIC_IPR7 |= (priority & 3) << (((IRQ & 3) * 8) + 6);
 459              		.loc 1 173 0
 460 01a6 D458     		ldr	r4, [r2, r3]	@ D.4768, MEM[(volatile struct NVIC_MemMap *)3758153984B].IP
 461 01a8 0325     		mov	r5, #3	@ tmp367,
 462 01aa 2940     		and	r1, r5	@ D.4767, tmp367
 463              	.LVL33:
 464 01ac 0630     		add	r0, r0, #6	@ D.4768,
 465 01ae 8140     		lsl	r1, r1, r0	@ D.4767, D.4767, D.4768
 466 01b0 2143     		orr	r1, r4	@ D.4768, D.4768
 467 01b2 D150     		str	r1, [r2, r3]	@ D.4768, MEM[(volatile struct NVIC_MemMap *)3758153984B].IP
 468              	.L13:
 174:../../cpu/arm/mkl25z/./nvic.c **** 					break;
 175:../../cpu/arm/mkl25z/./nvic.c **** 			default:
 176:../../cpu/arm/mkl25z/./nvic.c **** 					break;
 177:../../cpu/arm/mkl25z/./nvic.c **** 	}
 178:../../cpu/arm/mkl25z/./nvic.c **** }
 469              		.loc 1 178 0
 470              		@ sp needed	@
 471 01b4 30BD     		pop	{r4, r5, pc}
 472              	.L26:
 473 01b6 C046     		.align	2
 474              	.L25:
 475 01b8 00000000 		.word	.L17
 476 01bc 00E100E0 		.word	-536813312
 477              		.cfi_endproc
 478              	.LFE4:
 479              		.size	NVIC_Set_Priority, .-NVIC_Set_Priority
 480              		.align	2
 481              		.global	NVIC_SET_SYSTICK_PRI
 482              		.code	16
 483              		.thumb_func
 484              		.type	NVIC_SET_SYSTICK_PRI, %function
 485              	NVIC_SET_SYSTICK_PRI:
 486              	.LFB5:
 179:../../cpu/arm/mkl25z/./nvic.c **** 
 180:../../cpu/arm/mkl25z/./nvic.c **** /*---------------------------------------------------------------------------*/
 181:../../cpu/arm/mkl25z/./nvic.c **** /**
 182:../../cpu/arm/mkl25z/./nvic.c **** * \brief 			Set the priority of the SYSTICK interrupt.
 183:../../cpu/arm/mkl25z/./nvic.c **** * \param priority	Priority of the interrupt.
 184:../../cpu/arm/mkl25z/./nvic.c **** * \return 			Nil.
 185:../../cpu/arm/mkl25z/./nvic.c **** *
 186:../../cpu/arm/mkl25z/./nvic.c **** * Set the priority of the SYSTICK interrupt. 
 187:../../cpu/arm/mkl25z/./nvic.c **** */
 188:../../cpu/arm/mkl25z/./nvic.c **** void NVIC_SET_SYSTICK_PRI(uint8_t priority)
 189:../../cpu/arm/mkl25z/./nvic.c **** {
 487              		.loc 1 189 0
 488              		.cfi_startproc
 489              	.LVL34:
 190:../../cpu/arm/mkl25z/./nvic.c **** 	/* Set SysTick priority after clearing any existing priority. */
 191:../../cpu/arm/mkl25z/./nvic.c **** 	SCB_SHPR2 &= ~(0xff << 24);
 490              		.loc 1 191 0
 491 01c0 054A     		ldr	r2, .L28	@ tmp118,
 492 01c2 064B     		ldr	r3, .L28+4	@ tmp119,
 493 01c4 D158     		ldr	r1, [r2, r3]	@ D.4772, MEM[(volatile struct SCB_MemMap *)3758153728B].SHPR2
ARM GAS  /tmp/ccjLOM07.s 			page 13


 494 01c6 0902     		lsl	r1, r1, #8	@ tmp120, D.4772,
 495 01c8 090A     		lsr	r1, r1, #8	@ D.4772, tmp120,
 496 01ca D150     		str	r1, [r2, r3]	@ D.4772, MEM[(volatile struct SCB_MemMap *)3758153728B].SHPR2
 192:../../cpu/arm/mkl25z/./nvic.c **** 	SCB_SHPR2 |= priority << 24;
 497              		.loc 1 192 0
 498 01cc D158     		ldr	r1, [r2, r3]	@ D.4772, MEM[(volatile struct SCB_MemMap *)3758153728B].SHPR2
 499 01ce 0006     		lsl	r0, r0, #24	@ D.4773, priority,
 500              	.LVL35:
 501 01d0 0843     		orr	r0, r1	@ D.4772, D.4772
 502 01d2 D050     		str	r0, [r2, r3]	@ D.4772, MEM[(volatile struct SCB_MemMap *)3758153728B].SHPR2
 193:../../cpu/arm/mkl25z/./nvic.c **** }...
 503              		.loc 1 193 0
 504              		@ sp needed	@
 505 01d4 7047     		bx	lr
 506              	.L29:
 507 01d6 C046     		.align	2
 508              	.L28:
 509 01d8 00E000E0 		.word	-536813568
 510 01dc 1C0D0000 		.word	3356
 511              		.cfi_endproc
 512              	.LFE5:
 513              		.size	NVIC_SET_SYSTICK_PRI, .-NVIC_SET_SYSTICK_PRI
 514              	.Letext0:
 515              		.file 2 "/home/glacsweb/arm-gcc/ARM_GCC_Support/ewl/EWL_C/include/cstdint"
 516              		.file 3 "../../cpu/arm/mkl25z/MKL25Z4.h"