ARM GAS  /tmp/cchjliHV.s 			page 1


   1              		.cpu cortex-m0plus
   2              		.fpu softvfp
   3              		.eabi_attribute 20, 1	@ Tag_ABI_FP_denormal
   4              		.eabi_attribute 21, 1	@ Tag_ABI_FP_exceptions
   5              		.eabi_attribute 23, 3	@ Tag_ABI_FP_number_model
   6              		.eabi_attribute 24, 1	@ Tag_ABI_align8_needed
   7              		.eabi_attribute 25, 1	@ Tag_ABI_align8_preserved
   8              		.eabi_attribute 26, 1	@ Tag_ABI_enum_size
   9              		.eabi_attribute 30, 1	@ Tag_ABI_optimization_goals
  10              		.eabi_attribute 34, 0	@ Tag_CPU_unaligned_access
  11              		.eabi_attribute 18, 4	@ Tag_ABI_PCS_wchar_t
  12              		.file	"rtimer-arch.c"
  13              	@ GNU C (GNU Tools for ARM Embedded Processors) version 4.8.3 20131129 (release) [ARM/embedded-4_8-
  14              	@	compiled by GNU C version 4.6.3, GMP version 4.3.2, MPFR version 2.4.2, MPC version 0.8.1
  15              	@ GGC heuristics: --param ggc-min-expand=100 --param ggc-min-heapsize=131072
  16              	@ options passed:  -I . -I ../../cpu/arm/mkl25z
  17              	@ -I ../../cpu/arm/mkl25z/loader -I ../../cpu/arm/mkl25z/dbg-io
  18              	@ -I ../../dev -I ../../platform/frdm-kl25z-rf
  19              	@ -I /home/glacsweb/arm-gcc/ARM_GCC_Support/ewl/EWL_C/include
  20              	@ -I /home/glacsweb/arm-gcc/ARM_GCC_Support/ewl/EWL_Runtime/include
  21              	@ -I /home/glacsweb/arm-gcc/lib/gcc/arm-none-eabi/4.8.3/include
  22              	@ -I /home/glacsweb/arm-gcc/lib/gcc/arm-none-eabi/4.8.3/include-fixed
  23              	@ -I /home/glacsweb/arm-gcc/arm-none-eabi/include -I ../../dev/cc1120 -I .
  24              	@ -I ../../platform/frdm-kl25z-rf/. -I ../../platform/frdm-kl25z-rf/dev
  25              	@ -I ../../platform/frdm-kl25z-rf/apps -I ../../platform/frdm-kl25z-rf/net
  26              	@ -I ../../platform/frdm-kl25z-rf/../../dev/cc1120
  27              	@ -I ../../platform/frdm-kl25z-rf/../../core/net -I ../../cpu/arm/mkl25z/.
  28              	@ -I ../../cpu/arm/mkl25z/../common/dbg-io -I ../../cpu/arm/mkl25z/loader
  29              	@ -I ../../core/dev -I ../../core/lib -I ../../core/net
  30              	@ -I ../../core/net/mac -I ../../core/net/rime -I ../../core/net/rpl
  31              	@ -I ../../core/sys -I ../../core/cfs -I ../../core/ctk
  32              	@ -I ../../core/lib/ctk -I ../../core/loader -I ../../core/.
  33              	@ -I ../../platform/frdm-kl25z-rf/ -imultilib armv6-m
  34              	@ -iprefix /home/glacsweb/arm-gcc/bin/../lib/gcc/arm-none-eabi/4.8.3/
  35              	@ -isysroot /home/glacsweb/arm-gcc/bin/../arm-none-eabi -D__USES_INITFINI__
  36              	@ -D CONTIKI=1 -D CONTIKI_TARGET_FRDM_KL25Z_RF=1 -D WITH_UIP=1
  37              	@ -D MCK=48000000 -D AUTOSTART_ENABLE -D CC11xx_CC1120=1 -D RUN_AS_SYSTEM
  38              	@ -D ROM_RUN -D __SDCC
  39              	@ -D CONTIKI_VERSION_STRING="Contiki-KL25Z-Port-18-g5a8e189"
  40              	@ ../../cpu/arm/mkl25z/./rtimer-arch.c -mcpu=cortex-m0plus -mthumb
  41              	@ -auxbase-strip obj_frdm-kl25z-rf/rtimer-arch.o -gdwarf-2 -g -O -Wall
  42              	@ -Wstrict-prototypes -fomit-frame-pointer -fverbose-asm
  43              	@ options enabled:  -faggressive-loop-optimizations -fauto-inc-dec
  44              	@ -fbranch-count-reg -fcombine-stack-adjustments -fcommon -fcompare-elim
  45              	@ -fcprop-registers -fdefer-pop -fdelete-null-pointer-checks
  46              	@ -fdwarf2-cfi-asm -fearly-inlining -feliminate-unused-debug-types
  47              	@ -fforward-propagate -ffunction-cse -fgcse-lm -fgnu-runtime
  48              	@ -fguess-branch-probability -fident -fif-conversion -fif-conversion2
  49              	@ -finline -finline-atomics -finline-functions-called-once -fipa-profile
  50              	@ -fipa-pure-const -fipa-reference -fira-hoist-pressure
  51              	@ -fira-share-save-slots -fira-share-spill-slots -fivopts
  52              	@ -fkeep-static-consts -fleading-underscore -fmath-errno -fmerge-constants
  53              	@ -fmerge-debug-strings -fmove-loop-invariants -fomit-frame-pointer
  54              	@ -fpeephole -fprefetch-loop-arrays -freg-struct-return
  55              	@ -fsched-critical-path-heuristic -fsched-dep-count-heuristic
  56              	@ -fsched-group-heuristic -fsched-interblock -fsched-last-insn-heuristic
  57              	@ -fsched-pressure -fsched-rank-heuristic -fsched-spec
ARM GAS  /tmp/cchjliHV.s 			page 2


  58              	@ -fsched-spec-insn-heuristic -fsched-stalled-insns-dep -fsection-anchors
  59              	@ -fshow-column -fshrink-wrap -fsigned-zeros -fsplit-ivs-in-unroller
  60              	@ -fsplit-wide-types -fstrict-volatile-bitfields -fsync-libcalls
  61              	@ -ftoplevel-reorder -ftrapping-math -ftree-bit-ccp -ftree-ccp -ftree-ch
  62              	@ -ftree-coalesce-vars -ftree-copy-prop -ftree-copyrename -ftree-cselim
  63              	@ -ftree-dce -ftree-dominator-opts -ftree-dse -ftree-forwprop -ftree-fre
  64              	@ -ftree-loop-if-convert -ftree-loop-im -ftree-loop-ivcanon
  65              	@ -ftree-loop-optimize -ftree-parallelize-loops= -ftree-phiprop -ftree-pta
  66              	@ -ftree-reassoc -ftree-scev-cprop -ftree-sink -ftree-slp-vectorize
  67              	@ -ftree-slsr -ftree-sra -ftree-ter -ftree-vect-loop-version
  68              	@ -funit-at-a-time -fvar-tracking -fvar-tracking-assignments -fverbose-asm
  69              	@ -fzero-initialized-in-bss -mlittle-endian -mpic-data-is-text-relative
  70              	@ -msched-prolog -mthumb -mvectorize-with-neon-quad
  71              	
  72              		.text
  73              	.Ltext0:
  74              		.cfi_sections	.debug_frame
  75              		.align	2
  76              		.global	rtimer_arch_init
  77              		.code	16
  78              		.thumb_func
  79              		.type	rtimer_arch_init, %function
  80              	rtimer_arch_init:
  81              	.LFB0:
  82              		.file 1 "../../cpu/arm/mkl25z/./rtimer-arch.c"
   1:../../cpu/arm/mkl25z/./rtimer-arch.c **** #include <sys/rtimer.h>
   2:../../cpu/arm/mkl25z/./rtimer-arch.c **** 
   3:../../cpu/arm/mkl25z/./rtimer-arch.c **** #include <stdio.h>
   4:../../cpu/arm/mkl25z/./rtimer-arch.c **** #include <MKL25Z4.h>
   5:../../cpu/arm/mkl25z/./rtimer-arch.c **** 
   6:../../cpu/arm/mkl25z/./rtimer-arch.c **** #include "nvic.h"
   7:../../cpu/arm/mkl25z/./rtimer-arch.c **** 
   8:../../cpu/arm/mkl25z/./rtimer-arch.c **** #include "rtimer-arch.h"
   9:../../cpu/arm/mkl25z/./rtimer-arch.c **** 
  10:../../cpu/arm/mkl25z/./rtimer-arch.c **** 
  11:../../cpu/arm/mkl25z/./rtimer-arch.c **** 
  12:../../cpu/arm/mkl25z/./rtimer-arch.c **** void
  13:../../cpu/arm/mkl25z/./rtimer-arch.c **** rtimer_arch_init(void)
  14:../../cpu/arm/mkl25z/./rtimer-arch.c **** {
  83              		.loc 1 14 0
  84              		.cfi_startproc
  85 0000 10B5     		push	{r4, lr}	@
  86              	.LCFI0:
  87              		.cfi_def_cfa_offset 8
  88              		.cfi_offset 4, -8
  89              		.cfi_offset 14, -4
  15:../../cpu/arm/mkl25z/./rtimer-arch.c **** 	LPTMR0_CSR &= ~0xFF;											/* Clear CSR settings. */
  90              		.loc 1 15 0
  91 0002 0F4C     		ldr	r4, .L2	@ tmp118,
  92 0004 2368     		ldr	r3, [r4]	@ D.5035, MEM[(volatile struct LPTMR_MemMap *)1074003968B].CSR
  93 0006 FF22     		mov	r2, #255	@ tmp119,
  94 0008 9343     		bic	r3, r2	@ D.5035, tmp119
  95 000a 2360     		str	r3, [r4]	@ D.5035, MEM[(volatile struct LPTMR_MemMap *)1074003968B].CSR
  16:../../cpu/arm/mkl25z/./rtimer-arch.c **** 	
  17:../../cpu/arm/mkl25z/./rtimer-arch.c **** 	SIM_SCGC5 |= SIM_SCGC5_LPTMR_MASK;								/* Set SIM_SCGC5: Enable LPTMR clock. LPTMR=1. Page 206.
  96              		.loc 1 17 0
  97 000c 0D49     		ldr	r1, .L2+4	@ tmp121,
ARM GAS  /tmp/cchjliHV.s 			page 3


  98 000e 0E4A     		ldr	r2, .L2+8	@ tmp122,
  99 0010 8858     		ldr	r0, [r1, r2]	@ D.5035, MEM[(volatile struct SIM_MemMap *)1074032640B].SCGC5
 100 0012 0123     		mov	r3, #1	@ tmp123,
 101 0014 1843     		orr	r0, r3	@ D.5035, tmp123
 102 0016 8850     		str	r0, [r1, r2]	@ D.5035, MEM[(volatile struct SIM_MemMap *)1074032640B].SCGC5
  18:../../cpu/arm/mkl25z/./rtimer-arch.c **** 	
  19:../../cpu/arm/mkl25z/./rtimer-arch.c **** 	LPTMR0_CSR |= LPTMR_CSR_TCF_MASK;								/* Clear TCF. */
 103              		.loc 1 19 0
 104 0018 2168     		ldr	r1, [r4]	@ D.5035, MEM[(volatile struct LPTMR_MemMap *)1074003968B].CSR
 105 001a 8022     		mov	r2, #128	@ tmp127,
 106 001c 0A43     		orr	r2, r1	@ D.5035, D.5035
 107 001e 2260     		str	r2, [r4]	@ D.5035, MEM[(volatile struct LPTMR_MemMap *)1074003968B].CSR
  20:../../cpu/arm/mkl25z/./rtimer-arch.c **** 	
  21:../../cpu/arm/mkl25z/./rtimer-arch.c **** 	LPTMR0_PSR = LPTMR_PSR_PRESCALE(0x10) | LPTMR_PSR_PCS(0x01); 	/* Set LPTMR0_PSR: Configure for 125
 108              		.loc 1 21 0
 109 0020 6360     		str	r3, [r4, #4]	@ tmp123, MEM[(volatile struct LPTMR_MemMap *)1074003968B].PSR
  22:../../cpu/arm/mkl25z/./rtimer-arch.c **** 	
  23:../../cpu/arm/mkl25z/./rtimer-arch.c **** 	NVIC_Set_Priority(IRQ_LPTMR0, 0x80);							/* Set priority of LPTMR0 interrupt. */
 110              		.loc 1 23 0
 111 0022 1C20     		mov	r0, #28	@,
 112 0024 8021     		mov	r1, #128	@,
 113 0026 FFF7FEFF 		bl	NVIC_Set_Priority	@
 114              	.LVL0:
  24:../../cpu/arm/mkl25z/./rtimer-arch.c **** 	NVIC_ENABLE_INT(IRQ_LPTMR0);									/* Enable LPTMR0 interrupt in NVIC. */
 115              		.loc 1 24 0
 116 002a 1C20     		mov	r0, #28	@,
 117 002c FFF7FEFF 		bl	NVIC_ENABLE_INT	@
 118              	.LVL1:
  25:../../cpu/arm/mkl25z/./rtimer-arch.c **** 	
  26:../../cpu/arm/mkl25z/./rtimer-arch.c **** 	LPTMR0_CMR = 0xFFFF;											/* Set compare register to trigger interrupt at overflow. */
 119              		.loc 1 26 0
 120 0030 064B     		ldr	r3, .L2+12	@ tmp132,
 121 0032 A360     		str	r3, [r4, #8]	@ tmp132, MEM[(volatile struct LPTMR_MemMap *)1074003968B].CMR
  27:../../cpu/arm/mkl25z/./rtimer-arch.c **** 	
  28:../../cpu/arm/mkl25z/./rtimer-arch.c **** 	LPTMR0_CSR |= LPTMR_CSR_TIE_MASK | LPTMR_CSR_TEN_MASK ;				/* Enable timer and interrupt. */
 122              		.loc 1 28 0
 123 0034 2268     		ldr	r2, [r4]	@ D.5035, MEM[(volatile struct LPTMR_MemMap *)1074003968B].CSR
 124 0036 4123     		mov	r3, #65	@ tmp134,
 125 0038 1343     		orr	r3, r2	@ D.5035, D.5035
 126 003a 2360     		str	r3, [r4]	@ D.5035, MEM[(volatile struct LPTMR_MemMap *)1074003968B].CSR
  29:../../cpu/arm/mkl25z/./rtimer-arch.c **** 	
  30:../../cpu/arm/mkl25z/./rtimer-arch.c **** 	//PRINTF("rtimer_arch_init: Done\n");
  31:../../cpu/arm/mkl25z/./rtimer-arch.c **** }
 127              		.loc 1 31 0
 128              		@ sp needed	@
 129 003c 10BD     		pop	{r4, pc}
 130              	.L3:
 131 003e C046     		.align	2
 132              	.L2:
 133 0040 00000440 		.word	1074003968
 134 0044 00700440 		.word	1074032640
 135 0048 38100000 		.word	4152
 136 004c FFFF0000 		.word	65535
 137              		.cfi_endproc
 138              	.LFE0:
 139              		.size	rtimer_arch_init, .-rtimer_arch_init
 140              		.align	2
ARM GAS  /tmp/cchjliHV.s 			page 4


 141              		.global	rtimer_arch_schedule
 142              		.code	16
 143              		.thumb_func
 144              		.type	rtimer_arch_schedule, %function
 145              	rtimer_arch_schedule:
 146              	.LFB1:
  32:../../cpu/arm/mkl25z/./rtimer-arch.c **** 
  33:../../cpu/arm/mkl25z/./rtimer-arch.c **** void
  34:../../cpu/arm/mkl25z/./rtimer-arch.c **** rtimer_arch_schedule(rtimer_clock_t t)
  35:../../cpu/arm/mkl25z/./rtimer-arch.c **** {
 147              		.loc 1 35 0
 148              		.cfi_startproc
 149              	.LVL2:
  36:../../cpu/arm/mkl25z/./rtimer-arch.c **** 	LPTMR0_CMR = t;
 150              		.loc 1 36 0
 151 0050 014B     		ldr	r3, .L5	@ tmp112,
 152 0052 9860     		str	r0, [r3, #8]	@ t, MEM[(volatile struct LPTMR_MemMap *)1074003968B].CMR
  37:../../cpu/arm/mkl25z/./rtimer-arch.c **** }
 153              		.loc 1 37 0
 154              		@ sp needed	@
 155 0054 7047     		bx	lr
 156              	.L6:
 157 0056 C046     		.align	2
 158              	.L5:
 159 0058 00000440 		.word	1074003968
 160              		.cfi_endproc
 161              	.LFE1:
 162              		.size	rtimer_arch_schedule, .-rtimer_arch_schedule
 163              		.align	2
 164              		.global	rtimer_arch_now
 165              		.code	16
 166              		.thumb_func
 167              		.type	rtimer_arch_now, %function
 168              	rtimer_arch_now:
 169              	.LFB2:
  38:../../cpu/arm/mkl25z/./rtimer-arch.c **** 
  39:../../cpu/arm/mkl25z/./rtimer-arch.c **** 
  40:../../cpu/arm/mkl25z/./rtimer-arch.c **** rtimer_clock_t
  41:../../cpu/arm/mkl25z/./rtimer-arch.c **** rtimer_arch_now(void)
  42:../../cpu/arm/mkl25z/./rtimer-arch.c **** {
 170              		.loc 1 42 0
 171              		.cfi_startproc
  43:../../cpu/arm/mkl25z/./rtimer-arch.c ****   return LPTMR0_CNR;
 172              		.loc 1 43 0
 173 005c 014B     		ldr	r3, .L8	@ tmp113,
 174 005e D868     		ldr	r0, [r3, #12]	@ D.5039, MEM[(volatile struct LPTMR_MemMap *)1074003968B].CNR
 175 0060 80B2     		uxth	r0, r0	@ D.5040, D.5039
  44:../../cpu/arm/mkl25z/./rtimer-arch.c **** }
 176              		.loc 1 44 0
 177              		@ sp needed	@
 178 0062 7047     		bx	lr
 179              	.L9:
 180              		.align	2
 181              	.L8:
 182 0064 00000440 		.word	1074003968
 183              		.cfi_endproc
 184              	.LFE2:
ARM GAS  /tmp/cchjliHV.s 			page 5


 185              		.size	rtimer_arch_now, .-rtimer_arch_now
 186              		.align	2
 187              		.global	LPTimer_IRQHandler
 188              		.code	16
 189              		.thumb_func
 190              		.type	LPTimer_IRQHandler, %function
 191              	LPTimer_IRQHandler:
 192              	.LFB3:
  45:../../cpu/arm/mkl25z/./rtimer-arch.c **** 
  46:../../cpu/arm/mkl25z/./rtimer-arch.c **** /*-------------------------------------------------------------------------------------------------
  47:../../cpu/arm/mkl25z/./rtimer-arch.c **** /* Interrupt Handler */
  48:../../cpu/arm/mkl25z/./rtimer-arch.c **** void LPTimer_IRQHandler(void)
  49:../../cpu/arm/mkl25z/./rtimer-arch.c **** {
 193              		.loc 1 49 0
 194              		.cfi_startproc
 195 0068 08B5     		push	{r3, lr}	@
 196              	.LCFI1:
 197              		.cfi_def_cfa_offset 8
 198              		.cfi_offset 3, -8
 199              		.cfi_offset 14, -4
  50:../../cpu/arm/mkl25z/./rtimer-arch.c **** 	LPTMR0_CSR |= LPTMR_CSR_TCF_MASK;				/* Clear it.														*/
 200              		.loc 1 50 0
 201 006a 044B     		ldr	r3, .L11	@ tmp112,
 202 006c 1968     		ldr	r1, [r3]	@ D.5042, MEM[(volatile struct LPTMR_MemMap *)1074003968B].CSR
 203 006e 8022     		mov	r2, #128	@ tmp113,
 204 0070 0A43     		orr	r2, r1	@ D.5042, D.5042
 205 0072 1A60     		str	r2, [r3]	@ D.5042, MEM[(volatile struct LPTMR_MemMap *)1074003968B].CSR
  51:../../cpu/arm/mkl25z/./rtimer-arch.c **** 	rtimer_run_next();
 206              		.loc 1 51 0
 207 0074 FFF7FEFF 		bl	rtimer_run_next	@
 208              	.LVL3:
  52:../../cpu/arm/mkl25z/./rtimer-arch.c **** }
 209              		.loc 1 52 0
 210              		@ sp needed	@
 211 0078 08BD     		pop	{r3, pc}
 212              	.L12:
 213 007a C046     		.align	2
 214              	.L11:
 215 007c 00000440 		.word	1074003968
 216              		.cfi_endproc
 217              	.LFE3:
 218              		.size	LPTimer_IRQHandler, .-LPTimer_IRQHandler
 219              	.Letext0:
 220              		.file 2 "/home/glacsweb/arm-gcc/ARM_GCC_Support/ewl/EWL_C/include/cstdint"
 221              		.file 3 "../../cpu/arm/mkl25z/MKL25Z4.h"
 222              		.file 4 "../../core/./sys/rtimer.h"
 223              		.file 5 "../../cpu/arm/mkl25z/./nvic.h"