ARM GAS  /tmp/ccGhjqcS.s 			page 1


   1              		.cpu cortex-m0plus
   2              		.fpu softvfp
   3              		.eabi_attribute 20, 1	@ Tag_ABI_FP_denormal
   4              		.eabi_attribute 21, 1	@ Tag_ABI_FP_exceptions
   5              		.eabi_attribute 23, 3	@ Tag_ABI_FP_number_model
   6              		.eabi_attribute 24, 1	@ Tag_ABI_align8_needed
   7              		.eabi_attribute 25, 1	@ Tag_ABI_align8_preserved
   8              		.eabi_attribute 26, 1	@ Tag_ABI_enum_size
   9              		.eabi_attribute 30, 1	@ Tag_ABI_optimization_goals
  10              		.eabi_attribute 34, 0	@ Tag_CPU_unaligned_access
  11              		.eabi_attribute 18, 4	@ Tag_ABI_PCS_wchar_t
  12              		.file	"serial.c"
  13              	@ GNU C (GNU Tools for ARM Embedded Processors) version 4.8.3 20131129 (release) [ARM/embedded-4_8-
  14              	@	compiled by GNU C version 4.6.3, GMP version 4.3.2, MPFR version 2.4.2, MPC version 0.8.1
  15              	@ GGC heuristics: --param ggc-min-expand=100 --param ggc-min-heapsize=131072
  16              	@ options passed:  -I . -I ../../cpu/arm/mkl25z
  17              	@ -I ../../cpu/arm/mkl25z/loader -I ../../cpu/arm/mkl25z/dbg-io
  18              	@ -I ../../dev -I ../../platform/frdm-kl25z-rf
  19              	@ -I /home/glacsweb/arm-gcc/ARM_GCC_Support/ewl/EWL_C/include
  20              	@ -I /home/glacsweb/arm-gcc/ARM_GCC_Support/ewl/EWL_Runtime/include
  21              	@ -I /home/glacsweb/arm-gcc/lib/gcc/arm-none-eabi/4.8.3/include
  22              	@ -I /home/glacsweb/arm-gcc/lib/gcc/arm-none-eabi/4.8.3/include-fixed
  23              	@ -I /home/glacsweb/arm-gcc/arm-none-eabi/include -I ../../dev/cc1120 -I .
  24              	@ -I ../../platform/frdm-kl25z-rf/. -I ../../platform/frdm-kl25z-rf/dev
  25              	@ -I ../../platform/frdm-kl25z-rf/apps -I ../../platform/frdm-kl25z-rf/net
  26              	@ -I ../../platform/frdm-kl25z-rf/../../dev/cc1120
  27              	@ -I ../../platform/frdm-kl25z-rf/../../core/net -I ../../cpu/arm/mkl25z/.
  28              	@ -I ../../cpu/arm/mkl25z/../common/dbg-io -I ../../cpu/arm/mkl25z/loader
  29              	@ -I ../../core/dev -I ../../core/lib -I ../../core/net
  30              	@ -I ../../core/net/mac -I ../../core/net/rime -I ../../core/net/rpl
  31              	@ -I ../../core/sys -I ../../core/cfs -I ../../core/ctk
  32              	@ -I ../../core/lib/ctk -I ../../core/loader -I ../../core/.
  33              	@ -I ../../platform/frdm-kl25z-rf/ -imultilib armv6-m
  34              	@ -iprefix /home/glacsweb/arm-gcc/bin/../lib/gcc/arm-none-eabi/4.8.3/
  35              	@ -isysroot /home/glacsweb/arm-gcc/bin/../arm-none-eabi -D__USES_INITFINI__
  36              	@ -D CONTIKI=1 -D CONTIKI_TARGET_FRDM_KL25Z_RF=1 -D WITH_UIP=1
  37              	@ -D MCK=48000000 -D AUTOSTART_ENABLE -D CC11xx_CC1120=1 -D RUN_AS_SYSTEM
  38              	@ -D ROM_RUN -D __SDCC
  39              	@ -D CONTIKI_VERSION_STRING="Contiki-KL25Z-Port-18-g5a8e189"
  40              	@ ../../cpu/arm/mkl25z/./serial.c -mcpu=cortex-m0plus -mthumb
  41              	@ -auxbase-strip obj_frdm-kl25z-rf/serial.o -gdwarf-2 -g -O -Wall
  42              	@ -Wstrict-prototypes -fomit-frame-pointer -fverbose-asm
  43              	@ options enabled:  -faggressive-loop-optimizations -fauto-inc-dec
  44              	@ -fbranch-count-reg -fcombine-stack-adjustments -fcommon -fcompare-elim
  45              	@ -fcprop-registers -fdefer-pop -fdelete-null-pointer-checks
  46              	@ -fdwarf2-cfi-asm -fearly-inlining -feliminate-unused-debug-types
  47              	@ -fforward-propagate -ffunction-cse -fgcse-lm -fgnu-runtime
  48              	@ -fguess-branch-probability -fident -fif-conversion -fif-conversion2
  49              	@ -finline -finline-atomics -finline-functions-called-once -fipa-profile
  50              	@ -fipa-pure-const -fipa-reference -fira-hoist-pressure
  51              	@ -fira-share-save-slots -fira-share-spill-slots -fivopts
  52              	@ -fkeep-static-consts -fleading-underscore -fmath-errno -fmerge-constants
  53              	@ -fmerge-debug-strings -fmove-loop-invariants -fomit-frame-pointer
  54              	@ -fpeephole -fprefetch-loop-arrays -freg-struct-return
  55              	@ -fsched-critical-path-heuristic -fsched-dep-count-heuristic
  56              	@ -fsched-group-heuristic -fsched-interblock -fsched-last-insn-heuristic
  57              	@ -fsched-pressure -fsched-rank-heuristic -fsched-spec
ARM GAS  /tmp/ccGhjqcS.s 			page 2


  58              	@ -fsched-spec-insn-heuristic -fsched-stalled-insns-dep -fsection-anchors
  59              	@ -fshow-column -fshrink-wrap -fsigned-zeros -fsplit-ivs-in-unroller
  60              	@ -fsplit-wide-types -fstrict-volatile-bitfields -fsync-libcalls
  61              	@ -ftoplevel-reorder -ftrapping-math -ftree-bit-ccp -ftree-ccp -ftree-ch
  62              	@ -ftree-coalesce-vars -ftree-copy-prop -ftree-copyrename -ftree-cselim
  63              	@ -ftree-dce -ftree-dominator-opts -ftree-dse -ftree-forwprop -ftree-fre
  64              	@ -ftree-loop-if-convert -ftree-loop-im -ftree-loop-ivcanon
  65              	@ -ftree-loop-optimize -ftree-parallelize-loops= -ftree-phiprop -ftree-pta
  66              	@ -ftree-reassoc -ftree-scev-cprop -ftree-sink -ftree-slp-vectorize
  67              	@ -ftree-slsr -ftree-sra -ftree-ter -ftree-vect-loop-version
  68              	@ -funit-at-a-time -fvar-tracking -fvar-tracking-assignments -fverbose-asm
  69              	@ -fzero-initialized-in-bss -mlittle-endian -mpic-data-is-text-relative
  70              	@ -msched-prolog -mthumb -mvectorize-with-neon-quad
  71              	
  72              		.text
  73              	.Ltext0:
  74              		.cfi_sections	.debug_frame
  75              		.global	__aeabi_uidiv
  76              		.align	2
  77              		.global	UART0_init
  78              		.code	16
  79              		.thumb_func
  80              		.type	UART0_init, %function
  81              	UART0_init:
  82              	.LFB1:
  83              		.file 1 "../../cpu/arm/mkl25z/./serial.c"
   1:../../cpu/arm/mkl25z/./serial.c **** /*-------------------------------------------------------------------------------------------------
   2:../../cpu/arm/mkl25z/./serial.c **** /*	serial.c	
   3:../../cpu/arm/mkl25z/./serial.c ****  *	
   4:../../cpu/arm/mkl25z/./serial.c ****  *	Initialisation & Commands for Serial communication on the Freescale FRDM-KL25z Freedom Board
   5:../../cpu/arm/mkl25z/./serial.c ****  *	
   6:../../cpu/arm/mkl25z/./serial.c ****  *	Author: Graeme Bragg
   7:../../cpu/arm/mkl25z/./serial.c ****  * 			ARM-ECS / Pervasive Systems Centre
   8:../../cpu/arm/mkl25z/./serial.c ****  * 			School of Electronics & Computer Science
   9:../../cpu/arm/mkl25z/./serial.c ****  * 			University of Southampton
  10:../../cpu/arm/mkl25z/./serial.c ****  * 
  11:../../cpu/arm/mkl25z/./serial.c ****  * 
  12:../../cpu/arm/mkl25z/./serial.c ****  *	25/2/2013	Rev.01		Includes functions for UART0 ONLY.  Configured to 
  13:../../cpu/arm/mkl25z/./serial.c ****  *							function on PTA1 and PTA2. Configured for 38400 8 N 1. 
  14:../../cpu/arm/mkl25z/./serial.c ****  *							Configured to run from MCGFLLCLK @ 20.97152MHz. Uses 
  15:../../cpu/arm/mkl25z/./serial.c ****  *							Interrupt for RX, does NOT use interrupt for TX.
  16:../../cpu/arm/mkl25z/./serial.c ****  *	7/3/2013	Rev.02		Modified UART0 IRQ to use a Callback if one is registered.
  17:../../cpu/arm/mkl25z/./serial.c ****  *	12/3/2013	Rev.03		Enabled dynamic baud rate setting.
  18:../../cpu/arm/mkl25z/./serial.c ****  *	5/2/2014	Rev.04		Added code for UART1 and UART2. Still static pin mappings.
  19:../../cpu/arm/mkl25z/./serial.c ****  *	11/2/2014	Rev.05		
  20:../../cpu/arm/mkl25z/./serial.c ****  *				
  21:../../cpu/arm/mkl25z/./serial.c ****  *
  22:../../cpu/arm/mkl25z/./serial.c ****  *	Page references relate to the KL25 Sub-Family Reference Manual, Document 
  23:../../cpu/arm/mkl25z/./serial.c ****  *	No. KL25P80M48SF0RM, Rev. 3 September 2012. Available on 25/02/2013 from: 
  24:../../cpu/arm/mkl25z/./serial.c ****  *	http://cache.freescale.com/files/32bit/doc/ref_manual/KL25P80M48SF0RM.pdf?fr=gdc
  25:../../cpu/arm/mkl25z/./serial.c ****  *	
  26:../../cpu/arm/mkl25z/./serial.c ****  *	Page references to "M0 Book" refer to "The Definitive Guide to the 
  27:../../cpu/arm/mkl25z/./serial.c ****  *	ARM Cortex-M0" by Joseph Yiu, ISBN 978-0-12-385477-3.
  28:../../cpu/arm/mkl25z/./serial.c ****  *	
  29:../../cpu/arm/mkl25z/./serial.c ****  *
  30:../../cpu/arm/mkl25z/./serial.c ****  *	***NB*** 	This file is intended for use with a new "Bareboard"  
  31:../../cpu/arm/mkl25z/./serial.c ****  *				project (with norapid-development) in Code Warrior.		
ARM GAS  /tmp/ccGhjqcS.s 			page 3


  32:../../cpu/arm/mkl25z/./serial.c ****  *				If this is not the case, you MUST ensure that an
  33:../../cpu/arm/mkl25z/./serial.c ****  *				appropriate entry of "UART0_IRQHandler" exists in  
  34:../../cpu/arm/mkl25z/./serial.c ****  *				entry 28 (address 0x00000070) of the VectorTable.
  35:../../cpu/arm/mkl25z/./serial.c ****  *
  36:../../cpu/arm/mkl25z/./serial.c ****  *				Appropriate entries for the interrupt handler exist
  37:../../cpu/arm/mkl25z/./serial.c ****  *				in the vector table contained in the generated 
  38:../../cpu/arm/mkl25z/./serial.c ****  *				kinetis_sysinit.c file
  39:../../cpu/arm/mkl25z/./serial.c ****  *
  40:../../cpu/arm/mkl25z/./serial.c ****  *
  41:../../cpu/arm/mkl25z/./serial.c ****  * Copyright (c) 2014, University of Southampton, Electronics and Computer Science
  42:../../cpu/arm/mkl25z/./serial.c ****  * All rights reserved.
  43:../../cpu/arm/mkl25z/./serial.c ****  *
  44:../../cpu/arm/mkl25z/./serial.c ****  * Redistribution and use in source and binary forms, with or without
  45:../../cpu/arm/mkl25z/./serial.c ****  * modification, are permitted provided that the following conditions
  46:../../cpu/arm/mkl25z/./serial.c ****  * are met:
  47:../../cpu/arm/mkl25z/./serial.c ****  * 1. Redistributions of source code must retain the above copyright
  48:../../cpu/arm/mkl25z/./serial.c ****  * notice, this list of conditions and the following disclaimer.
  49:../../cpu/arm/mkl25z/./serial.c ****  * 2. Redistributions in binary form must reproduce the above copyright
  50:../../cpu/arm/mkl25z/./serial.c ****  * notice, this list of conditions and the following disclaimer in the
  51:../../cpu/arm/mkl25z/./serial.c ****  * documentation and/or other materials provided with the distribution.
  52:../../cpu/arm/mkl25z/./serial.c ****  * 3. Neither the name of the Institute nor the names of its contributors
  53:../../cpu/arm/mkl25z/./serial.c ****  * may be used to endorse or promote products derived from this software
  54:../../cpu/arm/mkl25z/./serial.c ****  * without specific prior written permission.
  55:../../cpu/arm/mkl25z/./serial.c ****  *
  56:../../cpu/arm/mkl25z/./serial.c ****  * THIS SOFTWARE IS PROVIDED BY THE INSTITUTE AND CONTRIBUTORS ``AS IS'' AND
  57:../../cpu/arm/mkl25z/./serial.c ****  * ANY EXPRESS OR IMPLIED WARRANTIES, INCLUDING, BUT NOT LIMITED TO, THE
  58:../../cpu/arm/mkl25z/./serial.c ****  * IMPLIED WARRANTIES OF MERCHANTABILITY AND FITNESS FOR A PARTICULAR PURPOSE
  59:../../cpu/arm/mkl25z/./serial.c ****  * ARE DISCLAIMED. IN NO EVENT SHALL THE INSTITUTE OR CONTRIBUTORS BE LIABLE
  60:../../cpu/arm/mkl25z/./serial.c ****  * FOR ANY DIRECT, INDIRECT, INCIDENTAL, SPECIAL, EXEMPLARY, OR CONSEQUENTIAL
  61:../../cpu/arm/mkl25z/./serial.c ****  * DAMAGES (INCLUDING, BUT NOT LIMITED TO, PROCUREMENT OF SUBSTITUTE GOODS
  62:../../cpu/arm/mkl25z/./serial.c ****  * OR SERVICES; LOSS OF USE, DATA, OR PROFITS; OR BUSINESS INTERRUPTION)
  63:../../cpu/arm/mkl25z/./serial.c ****  * HOWEVER CAUSED AND ON ANY THEORY OF LIABILITY, WHETHER IN CONTRACT, STRICT
  64:../../cpu/arm/mkl25z/./serial.c ****  * LIABILITY, OR TORT (INCLUDING NEGLIGENCE OR OTHERWISE) ARISING IN ANY WAY
  65:../../cpu/arm/mkl25z/./serial.c ****  * OUT OF THE USE OF THIS SOFTWARE, EVEN IF ADVISED OF THE POSSIBILITY OF
  66:../../cpu/arm/mkl25z/./serial.c ****  * SUCH DAMAGE.
  67:../../cpu/arm/mkl25z/./serial.c ****  *
  68:../../cpu/arm/mkl25z/./serial.c ****  */				
  69:../../cpu/arm/mkl25z/./serial.c **** /*-------------------------------------------------------------------------------------------------
  70:../../cpu/arm/mkl25z/./serial.c **** 
  71:../../cpu/arm/mkl25z/./serial.c **** #include <stdlib.h>
  72:../../cpu/arm/mkl25z/./serial.c **** #include <stdio.h>
  73:../../cpu/arm/mkl25z/./serial.c **** #include <MKL25Z4.h>                   /* I/O map for MKL25Z128VLK4 */
  74:../../cpu/arm/mkl25z/./serial.c **** #include "nvic.h"
  75:../../cpu/arm/mkl25z/./serial.c **** #include "serial.h"
  76:../../cpu/arm/mkl25z/./serial.c **** #include "cpu.h"
  77:../../cpu/arm/mkl25z/./serial.c **** 
  78:../../cpu/arm/mkl25z/./serial.c **** /* Baud Rate is set using a combination of the Baud Rate Divider and Over Sampling Ratio.	*/
  79:../../cpu/arm/mkl25z/./serial.c **** /* BRD of 0x22 and OSR of 0x0F give a baud rate of 38550.5882 which functions with 38400.	*/		
  80:../../cpu/arm/mkl25z/./serial.c **** #define UART0_OSR		0x0F
  81:../../cpu/arm/mkl25z/./serial.c **** 
  82:../../cpu/arm/mkl25z/./serial.c **** /*-------------------------------------------------------------------------------------------------
  83:../../cpu/arm/mkl25z/./serial.c **** /*-------------------------------------------------------- Local Definitions ----------------------
  84:../../cpu/arm/mkl25z/./serial.c **** 
  85:../../cpu/arm/mkl25z/./serial.c **** /* Register Mask definitions.  Other used definitions are defined in MKL25Z4.h				*/
  86:../../cpu/arm/mkl25z/./serial.c **** #define UART_C2_TeRe	0x0C		/* UART C2 register Transmitter & Receiver enable mask.	*/
  87:../../cpu/arm/mkl25z/./serial.c **** #define UART_S1_Err		0x0F		/* UART S1 status register error mask.					*/
  88:../../cpu/arm/mkl25z/./serial.c **** 
ARM GAS  /tmp/ccGhjqcS.s 			page 4


  89:../../cpu/arm/mkl25z/./serial.c **** /*--------------------------------------------------------- End Definitions -----------------------
  90:../../cpu/arm/mkl25z/./serial.c **** /*-------------------------------------------------------------------------------------------------
  91:../../cpu/arm/mkl25z/./serial.c **** 
  92:../../cpu/arm/mkl25z/./serial.c **** static void (*UART0_callback)(char);
  93:../../cpu/arm/mkl25z/./serial.c **** static void (*UART1_callback)(char);
  94:../../cpu/arm/mkl25z/./serial.c **** static void (*UART2_callback)(char);
  95:../../cpu/arm/mkl25z/./serial.c **** 
  96:../../cpu/arm/mkl25z/./serial.c **** 
  97:../../cpu/arm/mkl25z/./serial.c **** /*-------------------------------------------------------------------------------------------------
  98:../../cpu/arm/mkl25z/./serial.c **** /* Initialisation Functions */
  99:../../cpu/arm/mkl25z/./serial.c **** 
 100:../../cpu/arm/mkl25z/./serial.c **** void serial_init(uint32_t UART0_baudrate, uint32_t UART1_baudrate, uint32_t UART2_baudrate)		/* Ini
 101:../../cpu/arm/mkl25z/./serial.c **** {
 102:../../cpu/arm/mkl25z/./serial.c **** 	UART0_init(UART0_baudrate);
 103:../../cpu/arm/mkl25z/./serial.c **** 	UART1_init(UART1_baudrate);
 104:../../cpu/arm/mkl25z/./serial.c **** 	UART2_init(UART2_baudrate);
 105:../../cpu/arm/mkl25z/./serial.c **** }
 106:../../cpu/arm/mkl25z/./serial.c **** 
 107:../../cpu/arm/mkl25z/./serial.c **** 
 108:../../cpu/arm/mkl25z/./serial.c **** void UART0_init(uint32_t baudrate) 		/* Initialise UART0.			*/
 109:../../cpu/arm/mkl25z/./serial.c **** {
  84              		.loc 1 109 0
  85              		.cfi_startproc
  86              	.LVL0:
  87 0000 70B5     		push	{r4, r5, r6, lr}	@
  88              	.LCFI0:
  89              		.cfi_def_cfa_offset 16
  90              		.cfi_offset 4, -16
  91              		.cfi_offset 5, -12
  92              		.cfi_offset 6, -8
  93              		.cfi_offset 14, -4
  94 0002 061E     		sub	r6, r0, #0	@ baudrate, baudrate,
 110:../../cpu/arm/mkl25z/./serial.c **** 	if(baudrate != NULL)
  95              		.loc 1 110 0
  96 0004 58D0     		beq	.L1	@,
  97              	.LBB2:
 111:../../cpu/arm/mkl25z/./serial.c **** 	{
 112:../../cpu/arm/mkl25z/./serial.c **** 		uint16_t bauddiv;
 113:../../cpu/arm/mkl25z/./serial.c **** 
 114:../../cpu/arm/mkl25z/./serial.c **** 		/* Configure Clocking for UART0					*/
 115:../../cpu/arm/mkl25z/./serial.c **** 		SIM_SCGC4 |= SIM_SCGC4_UART0_MASK;      										/* SIM_SCGC4: System Clock Gate Register 4, Pag
  98              		.loc 1 115 0
  99 0006 2D4B     		ldr	r3, .L3	@ tmp144,
 100 0008 2D4A     		ldr	r2, .L3+4	@ tmp145,
 101 000a 9858     		ldr	r0, [r3, r2]	@ D.5501, MEM[(volatile struct SIM_MemMap *)1074032640B].SCGC4
 102              	.LVL1:
 103 000c 8021     		mov	r1, #128	@ tmp260,
 104 000e C900     		lsl	r1, r1, #3	@ tmp146, tmp260,
 105 0010 0143     		orr	r1, r0	@ D.5501, D.5501
 106 0012 9950     		str	r1, [r3, r2]	@ D.5501, MEM[(volatile struct SIM_MemMap *)1074032640B].SCGC4
 116:../../cpu/arm/mkl25z/./serial.c **** 		SIM_SOPT2 = (uint32_t)((SIM_SOPT2 & ~SIM_SOPT2_UART0SRC_MASK) | 0x04000000);	/* SIM_SOPT2: Set UA
 107              		.loc 1 116 0
 108 0014 2B4A     		ldr	r2, .L3+8	@ tmp150,
 109 0016 9858     		ldr	r0, [r3, r2]	@ D.5501, MEM[(volatile struct SIM_MemMap *)1074032640B].SOPT2
 110 0018 2B49     		ldr	r1, .L3+12	@ tmp152,
 111 001a 0140     		and	r1, r0	@ D.5501, D.5501
 112 001c 8020     		mov	r0, #128	@ tmp261,
ARM GAS  /tmp/ccGhjqcS.s 			page 5


 113 001e C004     		lsl	r0, r0, #19	@ tmp153, tmp261,
 114 0020 0143     		orr	r1, r0	@ D.5501, tmp153
 115 0022 9950     		str	r1, [r3, r2]	@ D.5501, MEM[(volatile struct SIM_MemMap *)1074032640B].SOPT2
 117:../../cpu/arm/mkl25z/./serial.c **** 
 118:../../cpu/arm/mkl25z/./serial.c **** 		/* Configure pins: PTA1 as RX, PTA2 as TX		*/
 119:../../cpu/arm/mkl25z/./serial.c **** 		PORTA_PCR1 |=  0x205;                  				/* PORTA_PCR2: PortA, Pin2 Control Register, Page 183.
 116              		.loc 1 119 0
 117 0024 294B     		ldr	r3, .L3+16	@ tmp156,
 118 0026 5968     		ldr	r1, [r3, #4]	@ D.5501, MEM[(volatile struct PORT_MemMap *)1074040832B].PCR
 119 0028 294A     		ldr	r2, .L3+20	@ tmp157,
 120 002a 1143     		orr	r1, r2	@ D.5501, tmp157
 121 002c 5960     		str	r1, [r3, #4]	@ D.5501, MEM[(volatile struct PORT_MemMap *)1074040832B].PCR
 120:../../cpu/arm/mkl25z/./serial.c **** 		PORTA_PCR2 |=  0x205;    							/* PORTA_PCR2: PortA, Pin2 Control Register, Page 183. Sets PTA2 
 122              		.loc 1 120 0
 123 002e 9968     		ldr	r1, [r3, #8]	@ D.5501, MEM[(volatile struct PORT_MemMap *)1074040832B].PCR
 124 0030 0A43     		orr	r2, r1	@ D.5501, D.5501
 125 0032 9A60     		str	r2, [r3, #8]	@ D.5501, MEM[(volatile struct PORT_MemMap *)1074040832B].PCR
 121:../../cpu/arm/mkl25z/./serial.c **** 
 122:../../cpu/arm/mkl25z/./serial.c **** 		/* Configure Interrupt Controller for UART0		*/
 123:../../cpu/arm/mkl25z/./serial.c **** 		NVIC_Set_Priority(IRQ_UART0, 0x80);					/* Set UART0 priority to 2. */
 126              		.loc 1 123 0
 127 0034 0C20     		mov	r0, #12	@,
 128 0036 8021     		mov	r1, #128	@,
 129 0038 FFF7FEFF 		bl	NVIC_Set_Priority	@
 130              	.LVL2:
 124:../../cpu/arm/mkl25z/./serial.c **** 		NVIC_ENABLE_INT(IRQ_UART0);							/* Enable UART0 NVIC Interrupt. */	
 131              		.loc 1 124 0
 132 003c 0C20     		mov	r0, #12	@,
 133 003e FFF7FEFF 		bl	NVIC_ENABLE_INT	@
 134              	.LVL3:
 125:../../cpu/arm/mkl25z/./serial.c **** 		UART0_callback = NULL;								/* Set Callback to NULL */
 135              		.loc 1 125 0
 136 0042 0025     		mov	r5, #0	@ tmp163,
 137 0044 234B     		ldr	r3, .L3+24	@ tmp162,
 138 0046 1D60     		str	r5, [r3]	@ tmp163, UART0_callback
 126:../../cpu/arm/mkl25z/./serial.c **** 	
 127:../../cpu/arm/mkl25z/./serial.c **** 		//NVIC_IPR3 = (uint32_t)((NVIC_IPR3 & (uint32_t)~0x7F) | (uint32_t)0x80);	/* Set NVIC_IPR3: Irq 1
 128:../../cpu/arm/mkl25z/./serial.c **** 		//NVIC_ISER |= 0x1000; 													/* Set NVIC_ISER: Irq 0 to 31 Set-Enable Register. SETENA|=0x
 129:../../cpu/arm/mkl25z/./serial.c **** 															
 130:../../cpu/arm/mkl25z/./serial.c **** 		
 131:../../cpu/arm/mkl25z/./serial.c **** 		/* Configure UART0 Registers					*/
 132:../../cpu/arm/mkl25z/./serial.c **** 		//Clear control registers to ensure reset state.
 133:../../cpu/arm/mkl25z/./serial.c **** 		UART0_C2 = 0x00;   									/* Clear UART0_C2: Disable TX/RX for update of settings, disable inte
 139              		.loc 1 133 0
 140 0048 234C     		ldr	r4, .L3+28	@ tmp164,
 141 004a E570     		strb	r5, [r4, #3]	@ tmp163, MEM[(volatile struct UART0_MemMap *)1074176000B].C2
 134:../../cpu/arm/mkl25z/./serial.c **** 		UART0_C1 = 0x00;									/* Clear UART0_C1: Enable in wait mode & disable loop mode. Page 726. */
 142              		.loc 1 134 0
 143 004c A570     		strb	r5, [r4, #2]	@ tmp163, MEM[(volatile struct UART0_MemMap *)1074176000B].C1
 135:../../cpu/arm/mkl25z/./serial.c **** 		UART0_C3 = 0x00;									/* Clear UART0_C3: disable transmit inversion & interrupts. Page 733. */
 144              		.loc 1 135 0
 145 004e A571     		strb	r5, [r4, #6]	@ tmp163, MEM[(volatile struct UART0_MemMap *)1074176000B].C3
 136:../../cpu/arm/mkl25z/./serial.c **** 		UART0_C4 = 0x00;									/* Clear UART0_C4: Disable Match Address Mode & clear OSR. Page 736. */
 146              		.loc 1 136 0
 147 0050 A572     		strb	r5, [r4, #10]	@ tmp163, MEM[(volatile struct UART0_MemMap *)1074176000B].C4
 137:../../cpu/arm/mkl25z/./serial.c **** 		UART0_C5 = 0x00;									/* Clear UART0_C5: disable DMA & both-edge sampling. Page 737. */
 148              		.loc 1 137 0
ARM GAS  /tmp/ccGhjqcS.s 			page 6


 149 0052 E572     		strb	r5, [r4, #11]	@ tmp163, MEM[(volatile struct UART0_MemMap *)1074176000B].C5
 138:../../cpu/arm/mkl25z/./serial.c **** 		UART0_BDH = 0x00;									/* Clear UART0_BDH: Disable other interrupts. Page 725. */
 150              		.loc 1 138 0
 151 0054 2570     		strb	r5, [r4]	@ tmp163, MEM[(volatile struct UART0_MemMap *)1074176000B].BDH
 139:../../cpu/arm/mkl25z/./serial.c **** 		UART0_MA1 = 0x00;									/* Clear UART0_MA1: Match Address Register 1, only used if MAEN1 in UAR
 152              		.loc 1 139 0
 153 0056 2572     		strb	r5, [r4, #8]	@ tmp163, MEM[(volatile struct UART0_MemMap *)1074176000B].MA1
 140:../../cpu/arm/mkl25z/./serial.c **** 		UART0_MA2 = 0x00;									/* Clear UART0_MA2: Match Address Register 2, only used if MAEN2 in UAR
 154              		.loc 1 140 0
 155 0058 6572     		strb	r5, [r4, #9]	@ tmp163, MEM[(volatile struct UART0_MemMap *)1074176000B].MA2
 141:../../cpu/arm/mkl25z/./serial.c **** 		
 142:../../cpu/arm/mkl25z/./serial.c **** 		//Configure Baud Rate, 8 data bits, no parity and 1 stop bit
 143:../../cpu/arm/mkl25z/./serial.c **** 		bauddiv = CORECLK / ((UART0_OSR + 1) * baudrate);						/* Calculate Baud Rate divisor.  BR = BCLK
 156              		.loc 1 143 0
 157 005a 3101     		lsl	r1, r6, #4	@ D.5501, baudrate,
 158 005c 1F48     		ldr	r0, .L3+32	@,
 159 005e FFF7FEFF 		bl	__aeabi_uidiv	@
 160              	.LVL4:
 144:../../cpu/arm/mkl25z/./serial.c **** 		UART0_BDL = (uint8_t)(bauddiv & 0x00FF);								/* Set UART0_BDL: lower Baud Rate Divisor. Page 7
 161              		.loc 1 144 0
 162 0062 C3B2     		uxtb	r3, r0	@ D.5502, tmp191
 163 0064 6370     		strb	r3, [r4, #1]	@ D.5502, MEM[(volatile struct UART0_MemMap *)1074176000B].BDL
 145:../../cpu/arm/mkl25z/./serial.c **** 		UART0_BDH |= (uint8_t)((bauddiv >> 8) & 0x001F);						/* Set UART0_BDH: upper Baud Rate Divisor. 
 164              		.loc 1 145 0
 165 0066 2368     		ldr	r3, [r4]	@ tmp195,
 166 0068 DBB2     		uxtb	r3, r3	@ D.5502, tmp195
 167 006a C004     		lsl	r0, r0, #19	@ tmp202, tmp191,
 168              	.LVL5:
 169 006c C00E     		lsr	r0, r0, #27	@ tmp201, tmp202,
 170 006e 1843     		orr	r0, r3	@ D.5502, D.5502
 171 0070 2070     		strb	r0, [r4]	@ D.5502, MEM[(volatile struct UART0_MemMap *)1074176000B].BDH
 146:../../cpu/arm/mkl25z/./serial.c **** 		UART0_C4 = (UART0_C4 & ~UART0_C4_OSR_MASK) | ((UART0_OSR) & 0x1F);		/* Set UART0_C4: oversampling
 172              		.loc 1 146 0
 173 0072 A368     		ldr	r3, [r4, #8]	@ tmp209,
 174 0074 1B02     		lsl	r3, r3, #8	@ tmp211, tmp209,
 175 0076 1B0E     		lsr	r3, r3, #24	@ D.5502, tmp211,
 176 0078 1F22     		mov	r2, #31	@ tmp200,
 177 007a 9343     		bic	r3, r2	@ tmp212, tmp200
 178 007c 0F22     		mov	r2, #15	@ tmp217,
 179 007e 1343     		orr	r3, r2	@ D.5502, tmp217
 180 0080 A372     		strb	r3, [r4, #10]	@ D.5502, MEM[(volatile struct UART0_MemMap *)1074176000B].C4
 147:../../cpu/arm/mkl25z/./serial.c **** 		UART0_C1 &= ~(UART0_C1_M_MASK);											/* Set UART0_C1: 8 data bits. Page 726. */
 181              		.loc 1 147 0
 182 0082 2368     		ldr	r3, [r4]	@ tmp221,
 183 0084 1B02     		lsl	r3, r3, #8	@ tmp223, tmp221,
 184 0086 1B0E     		lsr	r3, r3, #24	@ D.5502, tmp223,
 185 0088 1022     		mov	r2, #16	@ tmp225,
 186 008a 9343     		bic	r3, r2	@ D.5502, tmp225
 187 008c A370     		strb	r3, [r4, #2]	@ D.5502, MEM[(volatile struct UART0_MemMap *)1074176000B].C1
 148:../../cpu/arm/mkl25z/./serial.c **** 		UART0_C1 &= ~(UART0_C1_PE_MASK);										/* Set UART0_C1: no parity. Page 726. */
 188              		.loc 1 148 0
 189 008e 2368     		ldr	r3, [r4]	@ tmp229,
 190 0090 1B02     		lsl	r3, r3, #8	@ tmp231, tmp229,
 191 0092 1B0E     		lsr	r3, r3, #24	@ D.5502, tmp231,
 192 0094 0222     		mov	r2, #2	@ tmp233,
 193 0096 9343     		bic	r3, r2	@ D.5502, tmp233
 194 0098 A370     		strb	r3, [r4, #2]	@ D.5502, MEM[(volatile struct UART0_MemMap *)1074176000B].C1
ARM GAS  /tmp/ccGhjqcS.s 			page 7


 149:../../cpu/arm/mkl25z/./serial.c **** 		UART0_BDH &= ~(UART0_BDH_SBNS_MASK);									/* Set UART0_BDH: 1 stop bit. Page 725. */
 195              		.loc 1 149 0
 196 009a 2268     		ldr	r2, [r4]	@ tmp237,
 197 009c DF23     		mov	r3, #223	@ tmp239,
 198 009e 1340     		and	r3, r2	@ D.5502, tmp237
 199 00a0 2370     		strb	r3, [r4]	@ D.5502, MEM[(volatile struct UART0_MemMap *)1074176000B].BDH
 150:../../cpu/arm/mkl25z/./serial.c **** 		if ( 4 <= UART0_OSR && UART0_OSR <= 7)									/* If OSR is between 4 and 7 */
 151:../../cpu/arm/mkl25z/./serial.c **** 		{
 152:../../cpu/arm/mkl25z/./serial.c **** 			UART0_C5 |= UART0_C5_BOTHEDGE_MASK;									/* enable both edge receive sampling as per Page 737
 153:../../cpu/arm/mkl25z/./serial.c **** 		}
 154:../../cpu/arm/mkl25z/./serial.c **** 		  
 155:../../cpu/arm/mkl25z/./serial.c **** 		// Clear status Registers  
 156:../../cpu/arm/mkl25z/./serial.c **** 		UART0_S1 |= (uint8_t)(UART_S1_IDLE_MASK | UART_S1_Err);	/* UART0_S1: Set UART0 Status Register S1
 200              		.loc 1 156 0
 201 00a2 6368     		ldr	r3, [r4, #4]	@ tmp243,
 202 00a4 DBB2     		uxtb	r3, r3	@ D.5502, tmp243
 203 00a6 1F22     		mov	r2, #31	@ tmp246,
 204 00a8 1343     		orr	r3, r2	@ D.5502, tmp246
 205 00aa 2371     		strb	r3, [r4, #4]	@ D.5502, MEM[(volatile struct UART0_MemMap *)1074176000B].S1
 157:../../cpu/arm/mkl25z/./serial.c **** 		UART0_S2 = (uint8_t)0x00;								/* UART0_S2: Set UART0 Status Register S2, Page 729. LBKDIF=0,RX
 206              		.loc 1 157 0
 207 00ac 6571     		strb	r5, [r4, #5]	@ tmp163, MEM[(volatile struct UART0_MemMap *)1074176000B].S2
 158:../../cpu/arm/mkl25z/./serial.c **** 		
 159:../../cpu/arm/mkl25z/./serial.c **** 		//Enable the Transmitter & Receiver after UART0 settings update
 160:../../cpu/arm/mkl25z/./serial.c **** 		UART0_C2 |= (uint8_t)UART_C2_TeRe;  					/* UART0_C2: Enable TX/RX, Page 728.  TIE=0,TCIE=0,RIE=0
 208              		.loc 1 160 0
 209 00ae 2368     		ldr	r3, [r4]	@ tmp253,
 210 00b0 1B0E     		lsr	r3, r3, #24	@ D.5502, tmp253,
 211 00b2 0C22     		mov	r2, #12	@ tmp257,
 212 00b4 1343     		orr	r3, r2	@ D.5502, tmp257
 213 00b6 E370     		strb	r3, [r4, #3]	@ D.5502, MEM[(volatile struct UART0_MemMap *)1074176000B].C2
 214              	.L1:
 215              	.LBE2:
 161:../../cpu/arm/mkl25z/./serial.c **** 	}
 162:../../cpu/arm/mkl25z/./serial.c **** }
 216              		.loc 1 162 0
 217              		@ sp needed	@
 218              	.LVL6:
 219 00b8 70BD     		pop	{r4, r5, r6, pc}
 220              	.L4:
 221 00ba C046     		.align	2
 222              	.L3:
 223 00bc 00700440 		.word	1074032640
 224 00c0 34100000 		.word	4148
 225 00c4 04100000 		.word	4100
 226 00c8 FFFFFFF3 		.word	-201326593
 227 00cc 00900440 		.word	1074040832
 228 00d0 05020000 		.word	517
 229 00d4 00000000 		.word	.LANCHOR0
 230 00d8 00A00640 		.word	1074176000
 231 00dc 006CDC02 		.word	48000000
 232              		.cfi_endproc
 233              	.LFE1:
 234              		.size	UART0_init, .-UART0_init
 235              		.align	2
 236              		.global	UART1_init
 237              		.code	16
ARM GAS  /tmp/ccGhjqcS.s 			page 8


 238              		.thumb_func
 239              		.type	UART1_init, %function
 240              	UART1_init:
 241              	.LFB2:
 163:../../cpu/arm/mkl25z/./serial.c **** 
 164:../../cpu/arm/mkl25z/./serial.c **** void UART1_init(uint32_t baudrate) 		/* Initialise UART1.			*/
 165:../../cpu/arm/mkl25z/./serial.c **** {
 242              		.loc 1 165 0
 243              		.cfi_startproc
 244              	.LVL7:
 245 00e0 70B5     		push	{r4, r5, r6, lr}	@
 246              	.LCFI1:
 247              		.cfi_def_cfa_offset 16
 248              		.cfi_offset 4, -16
 249              		.cfi_offset 5, -12
 250              		.cfi_offset 6, -8
 251              		.cfi_offset 14, -4
 252 00e2 061E     		sub	r6, r0, #0	@ baudrate, baudrate,
 166:../../cpu/arm/mkl25z/./serial.c **** 	if(baudrate != NULL)
 253              		.loc 1 166 0
 254 00e4 2FD0     		beq	.L5	@,
 255              	.LBB3:
 167:../../cpu/arm/mkl25z/./serial.c **** 	{
 168:../../cpu/arm/mkl25z/./serial.c **** 		uint16_t bauddiv;
 169:../../cpu/arm/mkl25z/./serial.c **** 
 170:../../cpu/arm/mkl25z/./serial.c **** 		/* Configure Clocking for UART0					*/
 171:../../cpu/arm/mkl25z/./serial.c **** 		SIM_SCGC4 |= SIM_SCGC4_UART1_MASK;      		/* SIM_SCGC4: System Clock Gate Register 4, Page 204.  
 256              		.loc 1 171 0
 257 00e6 184A     		ldr	r2, .L7	@ tmp125,
 258 00e8 184B     		ldr	r3, .L7+4	@ tmp126,
 259 00ea D058     		ldr	r0, [r2, r3]	@ D.5507, MEM[(volatile struct SIM_MemMap *)1074032640B].SCGC4
 260              	.LVL8:
 261 00ec 8021     		mov	r1, #128	@ tmp181,
 262 00ee 0901     		lsl	r1, r1, #4	@ tmp127, tmp181,
 263 00f0 0143     		orr	r1, r0	@ D.5507, D.5507
 264 00f2 D150     		str	r1, [r2, r3]	@ D.5507, MEM[(volatile struct SIM_MemMap *)1074032640B].SCGC4
 172:../../cpu/arm/mkl25z/./serial.c **** 		
 173:../../cpu/arm/mkl25z/./serial.c **** 		/* Configure pins: PTE1 as RX, PTE0 as TX		*/
 174:../../cpu/arm/mkl25z/./serial.c **** 		PORTE_PCR1 |= 0x300;                                                 
 265              		.loc 1 174 0
 266 00f4 164B     		ldr	r3, .L7+8	@ tmp130,
 267 00f6 5968     		ldr	r1, [r3, #4]	@ D.5507, MEM[(volatile struct PORT_MemMap *)1074057216B].PCR
 268 00f8 C022     		mov	r2, #192	@ tmp182,
 269 00fa 9200     		lsl	r2, r2, #2	@ tmp131, tmp182,
 270 00fc 1143     		orr	r1, r2	@ D.5507, tmp131
 271 00fe 5960     		str	r1, [r3, #4]	@ D.5507, MEM[(volatile struct PORT_MemMap *)1074057216B].PCR
 175:../../cpu/arm/mkl25z/./serial.c **** 		PORTE_PCR0 |= 0x300; 
 272              		.loc 1 175 0
 273 0100 1968     		ldr	r1, [r3]	@ D.5507, MEM[(volatile struct PORT_MemMap *)1074057216B].PCR
 274 0102 0A43     		orr	r2, r1	@ D.5507, D.5507
 275 0104 1A60     		str	r2, [r3]	@ D.5507, MEM[(volatile struct PORT_MemMap *)1074057216B].PCR
 176:../../cpu/arm/mkl25z/./serial.c **** 		
 177:../../cpu/arm/mkl25z/./serial.c **** 		/* Configure Interrupt Controller for UART1		*/
 178:../../cpu/arm/mkl25z/./serial.c **** 		NVIC_Set_Priority(IRQ_UART1, 0x80);					/* Set UART1 priority to 2. */
 276              		.loc 1 178 0
 277 0106 0D20     		mov	r0, #13	@,
 278 0108 8021     		mov	r1, #128	@,
ARM GAS  /tmp/ccGhjqcS.s 			page 9


 279 010a FFF7FEFF 		bl	NVIC_Set_Priority	@
 280              	.LVL9:
 179:../../cpu/arm/mkl25z/./serial.c **** 		NVIC_ENABLE_INT(IRQ_UART1);							/* Enable UART1 NVIC Interrupt. */	
 281              		.loc 1 179 0
 282 010e 0D20     		mov	r0, #13	@,
 283 0110 FFF7FEFF 		bl	NVIC_ENABLE_INT	@
 284              	.LVL10:
 180:../../cpu/arm/mkl25z/./serial.c **** 		UART1_callback = NULL;								/* Set Callback to NULL */
 285              		.loc 1 180 0
 286 0114 0025     		mov	r5, #0	@ tmp137,
 287 0116 0F4B     		ldr	r3, .L7+12	@ tmp136,
 288 0118 5D60     		str	r5, [r3, #4]	@ tmp137, UART1_callback
 181:../../cpu/arm/mkl25z/./serial.c **** 		
 182:../../cpu/arm/mkl25z/./serial.c **** 		//NVIC_IPR3 = (uint32_t)((NVIC_IPR3 & (uint32_t)~(uint32_t)(NVIC_IP_PRI_13(0x7F))) | (uint32_t)(N
 183:../../cpu/arm/mkl25z/./serial.c **** 		//NVIC_ISER |= 0x2000;  
 184:../../cpu/arm/mkl25z/./serial.c **** 		
 185:../../cpu/arm/mkl25z/./serial.c **** 		
 186:../../cpu/arm/mkl25z/./serial.c **** 		/* Configure UART1 Registers					*/
 187:../../cpu/arm/mkl25z/./serial.c **** 		//Clear control registers to ensure reset state.
 188:../../cpu/arm/mkl25z/./serial.c **** 		UART1_C2 = 0x00;   									/* Clear UART1_C2: Disable TX/RX for update of settings, disable inte
 289              		.loc 1 188 0
 290 011a 0F4C     		ldr	r4, .L7+16	@ tmp138,
 291 011c E570     		strb	r5, [r4, #3]	@ tmp137, MEM[(volatile struct UART_MemMap *)1074180096B].C2
 189:../../cpu/arm/mkl25z/./serial.c **** 		UART1_C1 = 0x00;									/* Clear UART1_C1: Enable in wait mode & disable loop mode. Page 752. */
 292              		.loc 1 189 0
 293 011e A570     		strb	r5, [r4, #2]	@ tmp137, MEM[(volatile struct UART_MemMap *)1074180096B].C1
 190:../../cpu/arm/mkl25z/./serial.c **** 		UART1_C3 = 0x00;									/* Clear UART1_C3: disable transmit inversion & interrupts. Page 758. */
 294              		.loc 1 190 0
 295 0120 A571     		strb	r5, [r4, #6]	@ tmp137, MEM[(volatile struct UART_MemMap *)1074180096B].C3
 191:../../cpu/arm/mkl25z/./serial.c **** 		UART1_C4 = 0x00;									/* Clear UART1_C4: Disable Match Address Mode & clear OSR. Page 760. */
 296              		.loc 1 191 0
 297 0122 2572     		strb	r5, [r4, #8]	@ tmp137, MEM[(volatile struct UART_MemMap *)1074180096B].C4
 192:../../cpu/arm/mkl25z/./serial.c **** 		UART1_BDH = 0x00;									/* Clear UART1_BDH: Disable other interrupts. Page 751. */
 298              		.loc 1 192 0
 299 0124 2570     		strb	r5, [r4]	@ tmp137, MEM[(volatile struct UART_MemMap *)1074180096B].BDH
 193:../../cpu/arm/mkl25z/./serial.c **** 		UART1_BDL = 0x00;									/* Clear UART1_BDL: Commit BDH changes. Page 751. */
 300              		.loc 1 193 0
 301 0126 6570     		strb	r5, [r4, #1]	@ tmp137, MEM[(volatile struct UART_MemMap *)1074180096B].BDL
 194:../../cpu/arm/mkl25z/./serial.c **** 				
 195:../../cpu/arm/mkl25z/./serial.c **** 		//Configure Baud Rate, 8 data bits, no parity and 1 stop bit
 196:../../cpu/arm/mkl25z/./serial.c **** 		bauddiv = BUSCLK / baudrate;											/* Calculate Baud Rate divisor.  BR = BCLK / BRD.  Page 76
 302              		.loc 1 196 0
 303 0128 0C48     		ldr	r0, .L7+20	@,
 304 012a 311C     		mov	r1, r6	@, baudrate
 305 012c FFF7FEFF 		bl	__aeabi_uidiv	@
 306              	.LVL11:
 197:../../cpu/arm/mkl25z/./serial.c **** 		UART1_BDH = (uint8_t)((bauddiv >> 8) & 0x001F);							/* Set UART1_BDH: upper Baud Rate Divisor. 
 307              		.loc 1 197 0
 308 0130 C304     		lsl	r3, r0, #19	@ tmp165, tmp158,
 309 0132 DB0E     		lsr	r3, r3, #27	@ D.5509, tmp165,
 310 0134 2370     		strb	r3, [r4]	@ D.5509, MEM[(volatile struct UART_MemMap *)1074180096B].BDH
 198:../../cpu/arm/mkl25z/./serial.c **** 		UART1_BDL = (uint8_t)(bauddiv & 0x00FF);								/* Set UART1_BDL: lower Baud Rate Divisor. Page 7
 311              		.loc 1 198 0
 312 0136 C0B2     		uxtb	r0, r0	@ D.5509, tmp158
 313              	.LVL12:
 314 0138 6070     		strb	r0, [r4, #1]	@ D.5509, MEM[(volatile struct UART_MemMap *)1074180096B].BDL
 199:../../cpu/arm/mkl25z/./serial.c **** 		
ARM GAS  /tmp/ccGhjqcS.s 			page 10


 200:../../cpu/arm/mkl25z/./serial.c **** 
 201:../../cpu/arm/mkl25z/./serial.c **** 		// Clear status Registers  
 202:../../cpu/arm/mkl25z/./serial.c **** 		/* UART1_S1: No writes needed to clear. Page 755. */
 203:../../cpu/arm/mkl25z/./serial.c **** 		UART1_S2 = (uint8_t)0x00;								/* UART1_S2: Set UART1 Status Register S2, Page 756. */
 315              		.loc 1 203 0
 316 013a 6571     		strb	r5, [r4, #5]	@ tmp137, MEM[(volatile struct UART_MemMap *)1074180096B].S2
 204:../../cpu/arm/mkl25z/./serial.c **** 		
 205:../../cpu/arm/mkl25z/./serial.c **** 		//Enable the Transmitter & Receiver after UART0 settings update
 206:../../cpu/arm/mkl25z/./serial.c **** 		UART1_C2 |= (uint8_t)UART_C2_TeRe;  					/* UART1_C2: Enable TX/RX, Page 753.  TIE=0,TCIE=0,RIE=0
 317              		.loc 1 206 0
 318 013c 2368     		ldr	r3, [r4]	@ tmp174,
 319 013e 1B0E     		lsr	r3, r3, #24	@ D.5509, tmp174,
 320 0140 0C22     		mov	r2, #12	@ tmp178,
 321 0142 1343     		orr	r3, r2	@ D.5509, tmp178
 322 0144 E370     		strb	r3, [r4, #3]	@ D.5509, MEM[(volatile struct UART_MemMap *)1074180096B].C2
 323              	.L5:
 324              	.LBE3:
 207:../../cpu/arm/mkl25z/./serial.c **** 	}
 208:../../cpu/arm/mkl25z/./serial.c **** }
 325              		.loc 1 208 0
 326              		@ sp needed	@
 327              	.LVL13:
 328 0146 70BD     		pop	{r4, r5, r6, pc}
 329              	.L8:
 330              		.align	2
 331              	.L7:
 332 0148 00700440 		.word	1074032640
 333 014c 34100000 		.word	4148
 334 0150 00D00440 		.word	1074057216
 335 0154 00000000 		.word	.LANCHOR0
 336 0158 00B00640 		.word	1074180096
 337 015c 00366E01 		.word	24000000
 338              		.cfi_endproc
 339              	.LFE2:
 340              		.size	UART1_init, .-UART1_init
 341              		.align	2
 342              		.global	UART2_init
 343              		.code	16
 344              		.thumb_func
 345              		.type	UART2_init, %function
 346              	UART2_init:
 347              	.LFB3:
 209:../../cpu/arm/mkl25z/./serial.c **** 
 210:../../cpu/arm/mkl25z/./serial.c **** void UART2_init(uint32_t baudrate) 		/* Initialise UART1.			*/
 211:../../cpu/arm/mkl25z/./serial.c **** {
 348              		.loc 1 211 0
 349              		.cfi_startproc
 350              	.LVL14:
 351 0160 70B5     		push	{r4, r5, r6, lr}	@
 352              	.LCFI2:
 353              		.cfi_def_cfa_offset 16
 354              		.cfi_offset 4, -16
 355              		.cfi_offset 5, -12
 356              		.cfi_offset 6, -8
 357              		.cfi_offset 14, -4
 358 0162 061E     		sub	r6, r0, #0	@ baudrate, baudrate,
 212:../../cpu/arm/mkl25z/./serial.c **** 	if(baudrate != NULL)
ARM GAS  /tmp/ccGhjqcS.s 			page 11


 359              		.loc 1 212 0
 360 0164 2FD0     		beq	.L9	@,
 361              	.LBB4:
 213:../../cpu/arm/mkl25z/./serial.c **** 	{
 214:../../cpu/arm/mkl25z/./serial.c **** 		uint16_t bauddiv;
 215:../../cpu/arm/mkl25z/./serial.c **** 
 216:../../cpu/arm/mkl25z/./serial.c **** 		/* Configure Clocking for UART0					*/
 217:../../cpu/arm/mkl25z/./serial.c **** 		SIM_SCGC4 |= SIM_SCGC4_UART2_MASK;      		/* SIM_SCGC4: System Clock Gate Register 4, Page 204.  
 362              		.loc 1 217 0
 363 0166 184A     		ldr	r2, .L11	@ tmp125,
 364 0168 184B     		ldr	r3, .L11+4	@ tmp126,
 365 016a D058     		ldr	r0, [r2, r3]	@ D.5512, MEM[(volatile struct SIM_MemMap *)1074032640B].SCGC4
 366              	.LVL15:
 367 016c 8021     		mov	r1, #128	@ tmp181,
 368 016e 4901     		lsl	r1, r1, #5	@ tmp127, tmp181,
 369 0170 0143     		orr	r1, r0	@ D.5512, D.5512
 370 0172 D150     		str	r1, [r2, r3]	@ D.5512, MEM[(volatile struct SIM_MemMap *)1074032640B].SCGC4
 218:../../cpu/arm/mkl25z/./serial.c **** 		
 219:../../cpu/arm/mkl25z/./serial.c **** 		/* Configure pins: PTE23 as RX, PTE22 as TX		*/
 220:../../cpu/arm/mkl25z/./serial.c **** 		PORTE_PCR23 |= 0x400;                                                 
 371              		.loc 1 220 0
 372 0174 164B     		ldr	r3, .L11+8	@ tmp130,
 373 0176 D96D     		ldr	r1, [r3, #92]	@ D.5512, MEM[(volatile struct PORT_MemMap *)1074057216B].PCR
 374 0178 8022     		mov	r2, #128	@ tmp182,
 375 017a D200     		lsl	r2, r2, #3	@ tmp131, tmp182,
 376 017c 1143     		orr	r1, r2	@ D.5512, tmp131
 377 017e D965     		str	r1, [r3, #92]	@ D.5512, MEM[(volatile struct PORT_MemMap *)1074057216B].PCR
 221:../../cpu/arm/mkl25z/./serial.c **** 		PORTE_PCR22 |= 0x400; 
 378              		.loc 1 221 0
 379 0180 996D     		ldr	r1, [r3, #88]	@ D.5512, MEM[(volatile struct PORT_MemMap *)1074057216B].PCR
 380 0182 0A43     		orr	r2, r1	@ D.5512, D.5512
 381 0184 9A65     		str	r2, [r3, #88]	@ D.5512, MEM[(volatile struct PORT_MemMap *)1074057216B].PCR
 222:../../cpu/arm/mkl25z/./serial.c **** 		
 223:../../cpu/arm/mkl25z/./serial.c **** 		/* Configure Interrupt Controller for UART2		*/
 224:../../cpu/arm/mkl25z/./serial.c **** 		NVIC_Set_Priority(IRQ_UART2, 0x80);					/* Set UART2 priority to 2. */
 382              		.loc 1 224 0
 383 0186 0E20     		mov	r0, #14	@,
 384 0188 8021     		mov	r1, #128	@,
 385 018a FFF7FEFF 		bl	NVIC_Set_Priority	@
 386              	.LVL16:
 225:../../cpu/arm/mkl25z/./serial.c **** 		NVIC_ENABLE_INT(IRQ_UART2);							/* Enable UART2 NVIC Interrupt. */	
 387              		.loc 1 225 0
 388 018e 0E20     		mov	r0, #14	@,
 389 0190 FFF7FEFF 		bl	NVIC_ENABLE_INT	@
 390              	.LVL17:
 226:../../cpu/arm/mkl25z/./serial.c **** 		UART2_callback = NULL;								/* Set Callback to NULL */
 391              		.loc 1 226 0
 392 0194 0025     		mov	r5, #0	@ tmp137,
 393 0196 0F4B     		ldr	r3, .L11+12	@ tmp136,
 394 0198 9D60     		str	r5, [r3, #8]	@ tmp137, UART2_callback
 227:../../cpu/arm/mkl25z/./serial.c **** 		
 228:../../cpu/arm/mkl25z/./serial.c **** 		//NVIC_IPR3 = (uint32_t)((NVIC_IPR3 & (uint32_t)~(uint32_t)(NVIC_IP_PRI_14(0x7F))) | (uint32_t)(N
 229:../../cpu/arm/mkl25z/./serial.c **** 		//NVIC_ISER |= 0x4000;  
 230:../../cpu/arm/mkl25z/./serial.c **** 		
 231:../../cpu/arm/mkl25z/./serial.c **** 		/* Configure UART1 Registers					*/
 232:../../cpu/arm/mkl25z/./serial.c **** 		//Clear control registers to ensure reset state.
 233:../../cpu/arm/mkl25z/./serial.c **** 		UART2_C2 = 0x00;   									/* Clear UART2_C2: Disable TX/RX for update of settings, disable inte
ARM GAS  /tmp/ccGhjqcS.s 			page 12


 395              		.loc 1 233 0
 396 019a 0F4C     		ldr	r4, .L11+16	@ tmp138,
 397 019c E570     		strb	r5, [r4, #3]	@ tmp137, MEM[(volatile struct UART_MemMap *)1074184192B].C2
 234:../../cpu/arm/mkl25z/./serial.c **** 		UART2_C1 = 0x00;									/* Clear UART2_C1: Enable in wait mode & disable loop mode. Page 752. */
 398              		.loc 1 234 0
 399 019e A570     		strb	r5, [r4, #2]	@ tmp137, MEM[(volatile struct UART_MemMap *)1074184192B].C1
 235:../../cpu/arm/mkl25z/./serial.c **** 		UART2_C3 = 0x00;									/* Clear UART2_C3: disable transmit inversion & interrupts. Page 758. */
 400              		.loc 1 235 0
 401 01a0 A571     		strb	r5, [r4, #6]	@ tmp137, MEM[(volatile struct UART_MemMap *)1074184192B].C3
 236:../../cpu/arm/mkl25z/./serial.c **** 		UART2_C4 = 0x00;									/* Clear UART2_C4: Disable Match Address Mode & clear OSR. Page 760. */
 402              		.loc 1 236 0
 403 01a2 2572     		strb	r5, [r4, #8]	@ tmp137, MEM[(volatile struct UART_MemMap *)1074184192B].C4
 237:../../cpu/arm/mkl25z/./serial.c **** 		UART2_BDH = 0x00;									/* Clear UART2_BDH: Disable other interrupts. Page 751. */
 404              		.loc 1 237 0
 405 01a4 2570     		strb	r5, [r4]	@ tmp137, MEM[(volatile struct UART_MemMap *)1074184192B].BDH
 238:../../cpu/arm/mkl25z/./serial.c **** 		UART2_BDL = 0x00;									/* Clear UART2_BDL: Commit BDH changes. Page 751. */
 406              		.loc 1 238 0
 407 01a6 6570     		strb	r5, [r4, #1]	@ tmp137, MEM[(volatile struct UART_MemMap *)1074184192B].BDL
 239:../../cpu/arm/mkl25z/./serial.c **** 				
 240:../../cpu/arm/mkl25z/./serial.c **** 		//Configure Baud Rate, 8 data bits, no parity and 1 stop bit
 241:../../cpu/arm/mkl25z/./serial.c **** 		bauddiv = BUSCLK / baudrate;											/* Calculate Baud Rate divisor.  BR = BCLK / BRD.  Page 76
 408              		.loc 1 241 0
 409 01a8 0C48     		ldr	r0, .L11+20	@,
 410 01aa 311C     		mov	r1, r6	@, baudrate
 411 01ac FFF7FEFF 		bl	__aeabi_uidiv	@
 412              	.LVL18:
 242:../../cpu/arm/mkl25z/./serial.c **** 		UART2_BDH = (uint8_t)((bauddiv >> 8) & 0x001F);							/* Set UART2_BDH: upper Baud Rate Divisor. 
 413              		.loc 1 242 0
 414 01b0 C304     		lsl	r3, r0, #19	@ tmp165, tmp158,
 415 01b2 DB0E     		lsr	r3, r3, #27	@ D.5514, tmp165,
 416 01b4 2370     		strb	r3, [r4]	@ D.5514, MEM[(volatile struct UART_MemMap *)1074184192B].BDH
 243:../../cpu/arm/mkl25z/./serial.c **** 		UART2_BDL = (uint8_t)(bauddiv & 0x00FF);								/* Set UART2_BDL: lower Baud Rate Divisor. Page 7
 417              		.loc 1 243 0
 418 01b6 C0B2     		uxtb	r0, r0	@ D.5514, tmp158
 419              	.LVL19:
 420 01b8 6070     		strb	r0, [r4, #1]	@ D.5514, MEM[(volatile struct UART_MemMap *)1074184192B].BDL
 244:../../cpu/arm/mkl25z/./serial.c **** 		
 245:../../cpu/arm/mkl25z/./serial.c **** 
 246:../../cpu/arm/mkl25z/./serial.c **** 		// Clear status Registers  
 247:../../cpu/arm/mkl25z/./serial.c **** 		/* UART1_S1: No writes needed to clear. Page 755. */
 248:../../cpu/arm/mkl25z/./serial.c **** 		UART2_S2 = (uint8_t)0x00;								/* UART1_S2: Set UART1 Status Register S2, Page 756. */
 421              		.loc 1 248 0
 422 01ba 6571     		strb	r5, [r4, #5]	@ tmp137, MEM[(volatile struct UART_MemMap *)1074184192B].S2
 249:../../cpu/arm/mkl25z/./serial.c **** 		
 250:../../cpu/arm/mkl25z/./serial.c **** 		//Enable the Transmitter & Receiver after UART0 settings update
 251:../../cpu/arm/mkl25z/./serial.c **** 		UART2_C2 |= (uint8_t)UART_C2_TeRe;  					/* UART1_C2: Enable TX/RX, Page 753.  TIE=0,TCIE=0,RIE=0
 423              		.loc 1 251 0
 424 01bc 2368     		ldr	r3, [r4]	@ tmp174,
 425 01be 1B0E     		lsr	r3, r3, #24	@ D.5514, tmp174,
 426 01c0 0C22     		mov	r2, #12	@ tmp178,
 427 01c2 1343     		orr	r3, r2	@ D.5514, tmp178
 428 01c4 E370     		strb	r3, [r4, #3]	@ D.5514, MEM[(volatile struct UART_MemMap *)1074184192B].C2
 429              	.L9:
 430              	.LBE4:
 252:../../cpu/arm/mkl25z/./serial.c **** 	}
 253:../../cpu/arm/mkl25z/./serial.c **** }
 431              		.loc 1 253 0
ARM GAS  /tmp/ccGhjqcS.s 			page 13


 432              		@ sp needed	@
 433              	.LVL20:
 434 01c6 70BD     		pop	{r4, r5, r6, pc}
 435              	.L12:
 436              		.align	2
 437              	.L11:
 438 01c8 00700440 		.word	1074032640
 439 01cc 34100000 		.word	4148
 440 01d0 00D00440 		.word	1074057216
 441 01d4 00000000 		.word	.LANCHOR0
 442 01d8 00C00640 		.word	1074184192
 443 01dc 00366E01 		.word	24000000
 444              		.cfi_endproc
 445              	.LFE3:
 446              		.size	UART2_init, .-UART2_init
 447              		.align	2
 448              		.global	serial_init
 449              		.code	16
 450              		.thumb_func
 451              		.type	serial_init, %function
 452              	serial_init:
 453              	.LFB0:
 101:../../cpu/arm/mkl25z/./serial.c **** {
 454              		.loc 1 101 0
 455              		.cfi_startproc
 456              	.LVL21:
 457 01e0 38B5     		push	{r3, r4, r5, lr}	@
 458              	.LCFI3:
 459              		.cfi_def_cfa_offset 16
 460              		.cfi_offset 3, -16
 461              		.cfi_offset 4, -12
 462              		.cfi_offset 5, -8
 463              		.cfi_offset 14, -4
 464 01e2 0D1C     		mov	r5, r1	@ UART1_baudrate, UART1_baudrate
 465 01e4 141C     		mov	r4, r2	@ UART2_baudrate, UART2_baudrate
 102:../../cpu/arm/mkl25z/./serial.c **** 	UART0_init(UART0_baudrate);
 466              		.loc 1 102 0
 467 01e6 FFF7FEFF 		bl	UART0_init	@
 468              	.LVL22:
 103:../../cpu/arm/mkl25z/./serial.c **** 	UART1_init(UART1_baudrate);
 469              		.loc 1 103 0
 470 01ea 281C     		mov	r0, r5	@, UART1_baudrate
 471 01ec FFF7FEFF 		bl	UART1_init	@
 472              	.LVL23:
 104:../../cpu/arm/mkl25z/./serial.c **** 	UART2_init(UART2_baudrate);
 473              		.loc 1 104 0
 474 01f0 201C     		mov	r0, r4	@, UART2_baudrate
 475 01f2 FFF7FEFF 		bl	UART2_init	@
 476              	.LVL24:
 105:../../cpu/arm/mkl25z/./serial.c **** }
 477              		.loc 1 105 0
 478              		@ sp needed	@
 479              	.LVL25:
 480              	.LVL26:
 481 01f6 38BD     		pop	{r3, r4, r5, pc}
 482              		.cfi_endproc
 483              	.LFE0:
ARM GAS  /tmp/ccGhjqcS.s 			page 14


 484              		.size	serial_init, .-serial_init
 485              		.align	2
 486              		.global	UART0_reg_callback
 487              		.code	16
 488              		.thumb_func
 489              		.type	UART0_reg_callback, %function
 490              	UART0_reg_callback:
 491              	.LFB4:
 254:../../cpu/arm/mkl25z/./serial.c **** 
 255:../../cpu/arm/mkl25z/./serial.c **** void UART0_reg_callback(void* UART0_Callback_Ptr)	/* Register a callback function for use in UART0_
 256:../../cpu/arm/mkl25z/./serial.c **** {
 492              		.loc 1 256 0
 493              		.cfi_startproc
 494              	.LVL27:
 257:../../cpu/arm/mkl25z/./serial.c **** 	UART0_callback = UART0_Callback_Ptr;
 495              		.loc 1 257 0
 496 01f8 014B     		ldr	r3, .L15	@ tmp112,
 497 01fa 1860     		str	r0, [r3]	@ UART0_Callback_Ptr, UART0_callback
 258:../../cpu/arm/mkl25z/./serial.c **** }
 498              		.loc 1 258 0
 499              		@ sp needed	@
 500 01fc 7047     		bx	lr
 501              	.L16:
 502 01fe C046     		.align	2
 503              	.L15:
 504 0200 00000000 		.word	.LANCHOR0
 505              		.cfi_endproc
 506              	.LFE4:
 507              		.size	UART0_reg_callback, .-UART0_reg_callback
 508              		.align	2
 509              		.global	UART1_reg_callback
 510              		.code	16
 511              		.thumb_func
 512              		.type	UART1_reg_callback, %function
 513              	UART1_reg_callback:
 514              	.LFB5:
 259:../../cpu/arm/mkl25z/./serial.c **** 
 260:../../cpu/arm/mkl25z/./serial.c **** void UART1_reg_callback(void* UART1_Callback_Ptr)	/* Register a callback function for use in UART0_
 261:../../cpu/arm/mkl25z/./serial.c **** {
 515              		.loc 1 261 0
 516              		.cfi_startproc
 517              	.LVL28:
 262:../../cpu/arm/mkl25z/./serial.c **** 	UART1_callback = UART1_Callback_Ptr;
 518              		.loc 1 262 0
 519 0204 014B     		ldr	r3, .L18	@ tmp112,
 520 0206 5860     		str	r0, [r3, #4]	@ UART1_Callback_Ptr, UART1_callback
 263:../../cpu/arm/mkl25z/./serial.c **** }
 521              		.loc 1 263 0
 522              		@ sp needed	@
 523 0208 7047     		bx	lr
 524              	.L19:
 525 020a C046     		.align	2
 526              	.L18:
 527 020c 00000000 		.word	.LANCHOR0
 528              		.cfi_endproc
 529              	.LFE5:
 530              		.size	UART1_reg_callback, .-UART1_reg_callback
ARM GAS  /tmp/ccGhjqcS.s 			page 15


 531              		.align	2
 532              		.global	UART2_reg_callback
 533              		.code	16
 534              		.thumb_func
 535              		.type	UART2_reg_callback, %function
 536              	UART2_reg_callback:
 537              	.LFB6:
 264:../../cpu/arm/mkl25z/./serial.c **** 
 265:../../cpu/arm/mkl25z/./serial.c **** void UART2_reg_callback(void* UART2_Callback_Ptr)	/* Register a callback function for use in UART0_
 266:../../cpu/arm/mkl25z/./serial.c **** {
 538              		.loc 1 266 0
 539              		.cfi_startproc
 540              	.LVL29:
 267:../../cpu/arm/mkl25z/./serial.c **** 	UART2_callback = UART2_Callback_Ptr;
 541              		.loc 1 267 0
 542 0210 014B     		ldr	r3, .L21	@ tmp112,
 543 0212 9860     		str	r0, [r3, #8]	@ UART2_Callback_Ptr, UART2_callback
 268:../../cpu/arm/mkl25z/./serial.c **** }
 544              		.loc 1 268 0
 545              		@ sp needed	@
 546 0214 7047     		bx	lr
 547              	.L22:
 548 0216 C046     		.align	2
 549              	.L21:
 550 0218 00000000 		.word	.LANCHOR0
 551              		.cfi_endproc
 552              	.LFE6:
 553              		.size	UART2_reg_callback, .-UART2_reg_callback
 554              		.align	2
 555              		.global	UART0_PutChar
 556              		.code	16
 557              		.thumb_func
 558              		.type	UART0_PutChar, %function
 559              	UART0_PutChar:
 560              	.LFB8:
 269:../../cpu/arm/mkl25z/./serial.c **** 
 270:../../cpu/arm/mkl25z/./serial.c **** 
 271:../../cpu/arm/mkl25z/./serial.c **** /*-------------------------------------------------------------------------------------------------
 272:../../cpu/arm/mkl25z/./serial.c **** /* Serial Functions */
 273:../../cpu/arm/mkl25z/./serial.c **** void UART_PutChar(uint8_t uart, char outchar)
 274:../../cpu/arm/mkl25z/./serial.c **** {
 275:../../cpu/arm/mkl25z/./serial.c **** 	switch (uart){
 276:../../cpu/arm/mkl25z/./serial.c **** 		case 0:	UART0_PutChar(outchar);
 277:../../cpu/arm/mkl25z/./serial.c **** 				break;
 278:../../cpu/arm/mkl25z/./serial.c **** 		case 1:	UART1_PutChar(outchar);
 279:../../cpu/arm/mkl25z/./serial.c **** 				break;
 280:../../cpu/arm/mkl25z/./serial.c **** 		case 2:	UART2_PutChar(outchar);
 281:../../cpu/arm/mkl25z/./serial.c **** 				break;
 282:../../cpu/arm/mkl25z/./serial.c **** 		default:
 283:../../cpu/arm/mkl25z/./serial.c **** 				break;
 284:../../cpu/arm/mkl25z/./serial.c **** 		}
 285:../../cpu/arm/mkl25z/./serial.c **** }
 286:../../cpu/arm/mkl25z/./serial.c **** 
 287:../../cpu/arm/mkl25z/./serial.c **** void UART0_PutChar(char outChar)	/* Put single character into UART0 output register								*/
 288:../../cpu/arm/mkl25z/./serial.c **** {
 561              		.loc 1 288 0
 562              		.cfi_startproc
ARM GAS  /tmp/ccGhjqcS.s 			page 16


 563              	.LVL30:
 289:../../cpu/arm/mkl25z/./serial.c **** 	while(!(UART0_S1 & UART_S1_TDRE_MASK));		/* Check for space in TX Buffer, checking TDRE bit in UAR
 564              		.loc 1 289 0
 565 021c 034A     		ldr	r2, .L26	@ tmp119,
 566              	.L25:
 567              		.loc 1 289 0 is_stmt 0 discriminator 1
 568 021e 5368     		ldr	r3, [r2, #4]	@ tmp114,
 569 0220 1906     		lsl	r1, r3, #24	@, tmp114,
 570 0222 FCD5     		bpl	.L25	@,
 290:../../cpu/arm/mkl25z/./serial.c **** 	//while((UART0_S1 & 0x80) != 0x80);
 291:../../cpu/arm/mkl25z/./serial.c **** 	UART0_D = (uint8_t)outChar;							/* Write char to UART0 Data buffer. Page 734.								*/
 571              		.loc 1 291 0 is_stmt 1
 572 0224 014B     		ldr	r3, .L26	@ tmp117,
 573 0226 D871     		strb	r0, [r3, #7]	@ outChar, MEM[(volatile struct UART0_MemMap *)1074176000B].D
 292:../../cpu/arm/mkl25z/./serial.c **** }
 574              		.loc 1 292 0
 575              		@ sp needed	@
 576 0228 7047     		bx	lr
 577              	.L27:
 578 022a C046     		.align	2
 579              	.L26:
 580 022c 00A00640 		.word	1074176000
 581              		.cfi_endproc
 582              	.LFE8:
 583              		.size	UART0_PutChar, .-UART0_PutChar
 584              		.align	2
 585              		.global	UART1_PutChar
 586              		.code	16
 587              		.thumb_func
 588              		.type	UART1_PutChar, %function
 589              	UART1_PutChar:
 590              	.LFB9:
 293:../../cpu/arm/mkl25z/./serial.c **** 
 294:../../cpu/arm/mkl25z/./serial.c **** void UART1_PutChar(char outChar)	/* Put single character into UART1 output register								*/
 295:../../cpu/arm/mkl25z/./serial.c **** {
 591              		.loc 1 295 0
 592              		.cfi_startproc
 593              	.LVL31:
 296:../../cpu/arm/mkl25z/./serial.c **** 	while(!(UART1_S1 & UART_S1_TDRE_MASK));		/* Check for space in TX Buffer, checking TDRE bit in UAR
 594              		.loc 1 296 0
 595 0230 034A     		ldr	r2, .L31	@ tmp119,
 596              	.L30:
 597              		.loc 1 296 0 is_stmt 0 discriminator 1
 598 0232 5368     		ldr	r3, [r2, #4]	@ tmp114,
 599 0234 1906     		lsl	r1, r3, #24	@, tmp114,
 600 0236 FCD5     		bpl	.L30	@,
 297:../../cpu/arm/mkl25z/./serial.c **** 	//while((UART0_S1 & 0x80) != 0x80);
 298:../../cpu/arm/mkl25z/./serial.c **** 	UART1_D = (uint8_t)outChar;							/* Write char to UART0 Data buffer. Page 734.								*/
 601              		.loc 1 298 0 is_stmt 1
 602 0238 014B     		ldr	r3, .L31	@ tmp117,
 603 023a D871     		strb	r0, [r3, #7]	@ outChar, MEM[(volatile struct UART_MemMap *)1074180096B].D
 299:../../cpu/arm/mkl25z/./serial.c **** }
 604              		.loc 1 299 0
 605              		@ sp needed	@
 606 023c 7047     		bx	lr
 607              	.L32:
 608 023e C046     		.align	2
ARM GAS  /tmp/ccGhjqcS.s 			page 17


 609              	.L31:
 610 0240 00B00640 		.word	1074180096
 611              		.cfi_endproc
 612              	.LFE9:
 613              		.size	UART1_PutChar, .-UART1_PutChar
 614              		.align	2
 615              		.global	UART2_PutChar
 616              		.code	16
 617              		.thumb_func
 618              		.type	UART2_PutChar, %function
 619              	UART2_PutChar:
 620              	.LFB10:
 300:../../cpu/arm/mkl25z/./serial.c **** 
 301:../../cpu/arm/mkl25z/./serial.c **** void UART2_PutChar(char outChar)	/* Put single character into UART2 output register								*/
 302:../../cpu/arm/mkl25z/./serial.c **** {
 621              		.loc 1 302 0
 622              		.cfi_startproc
 623              	.LVL32:
 303:../../cpu/arm/mkl25z/./serial.c **** 	while(!(UART2_S1 & UART_S1_TDRE_MASK));		/* Check for space in TX Buffer, checking TDRE bit in UAR
 624              		.loc 1 303 0
 625 0244 034A     		ldr	r2, .L36	@ tmp119,
 626              	.L35:
 627              		.loc 1 303 0 is_stmt 0 discriminator 1
 628 0246 5368     		ldr	r3, [r2, #4]	@ tmp114,
 629 0248 1906     		lsl	r1, r3, #24	@, tmp114,
 630 024a FCD5     		bpl	.L35	@,
 304:../../cpu/arm/mkl25z/./serial.c **** 	//while((UART0_S1 & 0x80) != 0x80);
 305:../../cpu/arm/mkl25z/./serial.c **** 	UART2_D = (uint8_t)outChar;							/* Write char to UART0 Data buffer. Page 734.								*/
 631              		.loc 1 305 0 is_stmt 1
 632 024c 014B     		ldr	r3, .L36	@ tmp117,
 633 024e D871     		strb	r0, [r3, #7]	@ outChar, MEM[(volatile struct UART_MemMap *)1074184192B].D
 306:../../cpu/arm/mkl25z/./serial.c **** }
 634              		.loc 1 306 0
 635              		@ sp needed	@
 636 0250 7047     		bx	lr
 637              	.L37:
 638 0252 C046     		.align	2
 639              	.L36:
 640 0254 00C00640 		.word	1074184192
 641              		.cfi_endproc
 642              	.LFE10:
 643              		.size	UART2_PutChar, .-UART2_PutChar
 644              		.align	2
 645              		.global	UART_PutChar
 646              		.code	16
 647              		.thumb_func
 648              		.type	UART_PutChar, %function
 649              	UART_PutChar:
 650              	.LFB7:
 274:../../cpu/arm/mkl25z/./serial.c **** {
 651              		.loc 1 274 0
 652              		.cfi_startproc
 653              	.LVL33:
 654 0258 08B5     		push	{r3, lr}	@
 655              	.LCFI4:
 656              		.cfi_def_cfa_offset 8
 657              		.cfi_offset 3, -8
ARM GAS  /tmp/ccGhjqcS.s 			page 18


 658              		.cfi_offset 14, -4
 275:../../cpu/arm/mkl25z/./serial.c **** 	switch (uart){
 659              		.loc 1 275 0
 660 025a 0128     		cmp	r0, #1	@ uart,
 661 025c 08D0     		beq	.L40	@,
 662 025e 0028     		cmp	r0, #0	@ uart,
 663 0260 02D0     		beq	.L41	@,
 664 0262 0228     		cmp	r0, #2	@ uart,
 665 0264 08D0     		beq	.L42	@,
 666 0266 0AE0     		b	.L38	@
 667              	.L41:
 276:../../cpu/arm/mkl25z/./serial.c **** 		case 0:	UART0_PutChar(outchar);
 668              		.loc 1 276 0
 669 0268 081C     		mov	r0, r1	@, outchar
 670              	.LVL34:
 671 026a FFF7FEFF 		bl	UART0_PutChar	@
 672              	.LVL35:
 277:../../cpu/arm/mkl25z/./serial.c **** 				break;
 673              		.loc 1 277 0
 674 026e 06E0     		b	.L38	@
 675              	.LVL36:
 676              	.L40:
 278:../../cpu/arm/mkl25z/./serial.c **** 		case 1:	UART1_PutChar(outchar);
 677              		.loc 1 278 0
 678 0270 081C     		mov	r0, r1	@, outchar
 679              	.LVL37:
 680 0272 FFF7FEFF 		bl	UART1_PutChar	@
 681              	.LVL38:
 279:../../cpu/arm/mkl25z/./serial.c **** 				break;
 682              		.loc 1 279 0
 683 0276 02E0     		b	.L38	@
 684              	.LVL39:
 685              	.L42:
 280:../../cpu/arm/mkl25z/./serial.c **** 		case 2:	UART2_PutChar(outchar);
 686              		.loc 1 280 0
 687 0278 081C     		mov	r0, r1	@, outchar
 688              	.LVL40:
 689 027a FFF7FEFF 		bl	UART2_PutChar	@
 690              	.LVL41:
 691              	.L38:
 285:../../cpu/arm/mkl25z/./serial.c **** }
 692              		.loc 1 285 0
 693              		@ sp needed	@
 694 027e 08BD     		pop	{r3, pc}
 695              		.cfi_endproc
 696              	.LFE7:
 697              		.size	UART_PutChar, .-UART_PutChar
 698              		.align	2
 699              		.global	UART0_SendString
 700              		.code	16
 701              		.thumb_func
 702              		.type	UART0_SendString, %function
 703              	UART0_SendString:
 704              	.LFB12:
 307:../../cpu/arm/mkl25z/./serial.c **** 
 308:../../cpu/arm/mkl25z/./serial.c **** 
 309:../../cpu/arm/mkl25z/./serial.c **** 
ARM GAS  /tmp/ccGhjqcS.s 			page 19


 310:../../cpu/arm/mkl25z/./serial.c **** void UART_SendString(uint8_t uart, const unsigned char *str)
 311:../../cpu/arm/mkl25z/./serial.c **** {
 312:../../cpu/arm/mkl25z/./serial.c **** 	switch (uart){
 313:../../cpu/arm/mkl25z/./serial.c **** 		case 0:	UART0_SendString(str);
 314:../../cpu/arm/mkl25z/./serial.c **** 				break;
 315:../../cpu/arm/mkl25z/./serial.c **** 		case 1:	UART1_SendString(str);
 316:../../cpu/arm/mkl25z/./serial.c **** 				break;
 317:../../cpu/arm/mkl25z/./serial.c **** 		case 2:	UART2_SendString(str);
 318:../../cpu/arm/mkl25z/./serial.c **** 				break;
 319:../../cpu/arm/mkl25z/./serial.c **** 		default:
 320:../../cpu/arm/mkl25z/./serial.c **** 				break;
 321:../../cpu/arm/mkl25z/./serial.c **** 		}
 322:../../cpu/arm/mkl25z/./serial.c **** 
 323:../../cpu/arm/mkl25z/./serial.c **** }
 324:../../cpu/arm/mkl25z/./serial.c **** 
 325:../../cpu/arm/mkl25z/./serial.c **** void UART0_SendString(const unsigned char *str)
 326:../../cpu/arm/mkl25z/./serial.c **** {
 705              		.loc 1 326 0
 706              		.cfi_startproc
 707              	.LVL42:
 708 0280 10B5     		push	{r4, lr}	@
 709              	.LCFI5:
 710              		.cfi_def_cfa_offset 8
 711              		.cfi_offset 4, -8
 712              		.cfi_offset 14, -4
 713 0282 041C     		mov	r4, r0	@ str, str
 327:../../cpu/arm/mkl25z/./serial.c **** 	while(*str!='\0')
 714              		.loc 1 327 0
 715 0284 0078     		ldrb	r0, [r0]	@ D.5541, *str_3(D)
 716              	.LVL43:
 717 0286 0028     		cmp	r0, #0	@ D.5541,
 718 0288 05D0     		beq	.L43	@,
 719              	.L45:
 328:../../cpu/arm/mkl25z/./serial.c **** 	{
 329:../../cpu/arm/mkl25z/./serial.c **** 		UART0_PutChar(*str++);		
 720              		.loc 1 329 0
 721 028a 0134     		add	r4, r4, #1	@ str,
 722              	.LVL44:
 723 028c FFF7FEFF 		bl	UART0_PutChar	@
 724              	.LVL45:
 327:../../cpu/arm/mkl25z/./serial.c **** 	while(*str!='\0')
 725              		.loc 1 327 0
 726 0290 2078     		ldrb	r0, [r4]	@ D.5541, MEM[base: str_6, offset: 0B]
 727 0292 0028     		cmp	r0, #0	@ D.5541,
 728 0294 F9D1     		bne	.L45	@,
 729              	.L43:
 330:../../cpu/arm/mkl25z/./serial.c **** 	}
 331:../../cpu/arm/mkl25z/./serial.c **** }
 730              		.loc 1 331 0
 731              		@ sp needed	@
 732              	.LVL46:
 733 0296 10BD     		pop	{r4, pc}
 734              		.cfi_endproc
 735              	.LFE12:
 736              		.size	UART0_SendString, .-UART0_SendString
 737              		.align	2
 738              		.global	UART1_SendString
ARM GAS  /tmp/ccGhjqcS.s 			page 20


 739              		.code	16
 740              		.thumb_func
 741              		.type	UART1_SendString, %function
 742              	UART1_SendString:
 743              	.LFB13:
 332:../../cpu/arm/mkl25z/./serial.c **** 
 333:../../cpu/arm/mkl25z/./serial.c **** void UART1_SendString(const unsigned char *str)
 334:../../cpu/arm/mkl25z/./serial.c **** {
 744              		.loc 1 334 0
 745              		.cfi_startproc
 746              	.LVL47:
 747 0298 10B5     		push	{r4, lr}	@
 748              	.LCFI6:
 749              		.cfi_def_cfa_offset 8
 750              		.cfi_offset 4, -8
 751              		.cfi_offset 14, -4
 752 029a 041C     		mov	r4, r0	@ str, str
 335:../../cpu/arm/mkl25z/./serial.c **** 	while(*str!='\0')
 753              		.loc 1 335 0
 754 029c 0078     		ldrb	r0, [r0]	@ D.5546, *str_3(D)
 755              	.LVL48:
 756 029e 0028     		cmp	r0, #0	@ D.5546,
 757 02a0 05D0     		beq	.L46	@,
 758              	.L48:
 336:../../cpu/arm/mkl25z/./serial.c **** 	{
 337:../../cpu/arm/mkl25z/./serial.c **** 		UART1_PutChar(*str++);		
 759              		.loc 1 337 0
 760 02a2 0134     		add	r4, r4, #1	@ str,
 761              	.LVL49:
 762 02a4 FFF7FEFF 		bl	UART1_PutChar	@
 763              	.LVL50:
 335:../../cpu/arm/mkl25z/./serial.c **** 	while(*str!='\0')
 764              		.loc 1 335 0
 765 02a8 2078     		ldrb	r0, [r4]	@ D.5546, MEM[base: str_6, offset: 0B]
 766 02aa 0028     		cmp	r0, #0	@ D.5546,
 767 02ac F9D1     		bne	.L48	@,
 768              	.L46:
 338:../../cpu/arm/mkl25z/./serial.c **** 	}
 339:../../cpu/arm/mkl25z/./serial.c **** }
 769              		.loc 1 339 0
 770              		@ sp needed	@
 771              	.LVL51:
 772 02ae 10BD     		pop	{r4, pc}
 773              		.cfi_endproc
 774              	.LFE13:
 775              		.size	UART1_SendString, .-UART1_SendString
 776              		.align	2
 777              		.global	UART2_SendString
 778              		.code	16
 779              		.thumb_func
 780              		.type	UART2_SendString, %function
 781              	UART2_SendString:
 782              	.LFB14:
 340:../../cpu/arm/mkl25z/./serial.c **** 
 341:../../cpu/arm/mkl25z/./serial.c **** void UART2_SendString(const unsigned char *str)
 342:../../cpu/arm/mkl25z/./serial.c **** {
 783              		.loc 1 342 0
ARM GAS  /tmp/ccGhjqcS.s 			page 21


 784              		.cfi_startproc
 785              	.LVL52:
 786 02b0 10B5     		push	{r4, lr}	@
 787              	.LCFI7:
 788              		.cfi_def_cfa_offset 8
 789              		.cfi_offset 4, -8
 790              		.cfi_offset 14, -4
 791 02b2 041C     		mov	r4, r0	@ str, str
 343:../../cpu/arm/mkl25z/./serial.c **** 	while(*str!='\0')
 792              		.loc 1 343 0
 793 02b4 0078     		ldrb	r0, [r0]	@ D.5551, *str_3(D)
 794              	.LVL53:
 795 02b6 0028     		cmp	r0, #0	@ D.5551,
 796 02b8 05D0     		beq	.L49	@,
 797              	.L51:
 344:../../cpu/arm/mkl25z/./serial.c **** 	{
 345:../../cpu/arm/mkl25z/./serial.c **** 		UART2_PutChar(*str++);		
 798              		.loc 1 345 0
 799 02ba 0134     		add	r4, r4, #1	@ str,
 800              	.LVL54:
 801 02bc FFF7FEFF 		bl	UART2_PutChar	@
 802              	.LVL55:
 343:../../cpu/arm/mkl25z/./serial.c **** 	while(*str!='\0')
 803              		.loc 1 343 0
 804 02c0 2078     		ldrb	r0, [r4]	@ D.5551, MEM[base: str_6, offset: 0B]
 805 02c2 0028     		cmp	r0, #0	@ D.5551,
 806 02c4 F9D1     		bne	.L51	@,
 807              	.L49:
 346:../../cpu/arm/mkl25z/./serial.c **** 	}
 347:../../cpu/arm/mkl25z/./serial.c **** }
 808              		.loc 1 347 0
 809              		@ sp needed	@
 810              	.LVL56:
 811 02c6 10BD     		pop	{r4, pc}
 812              		.cfi_endproc
 813              	.LFE14:
 814              		.size	UART2_SendString, .-UART2_SendString
 815              		.align	2
 816              		.global	UART_SendString
 817              		.code	16
 818              		.thumb_func
 819              		.type	UART_SendString, %function
 820              	UART_SendString:
 821              	.LFB11:
 311:../../cpu/arm/mkl25z/./serial.c **** {
 822              		.loc 1 311 0
 823              		.cfi_startproc
 824              	.LVL57:
 825 02c8 08B5     		push	{r3, lr}	@
 826              	.LCFI8:
 827              		.cfi_def_cfa_offset 8
 828              		.cfi_offset 3, -8
 829              		.cfi_offset 14, -4
 312:../../cpu/arm/mkl25z/./serial.c **** 	switch (uart){
 830              		.loc 1 312 0
 831 02ca 0128     		cmp	r0, #1	@ uart,
 832 02cc 08D0     		beq	.L54	@,
ARM GAS  /tmp/ccGhjqcS.s 			page 22


 833 02ce 0028     		cmp	r0, #0	@ uart,
 834 02d0 02D0     		beq	.L55	@,
 835 02d2 0228     		cmp	r0, #2	@ uart,
 836 02d4 08D0     		beq	.L56	@,
 837 02d6 0AE0     		b	.L52	@
 838              	.L55:
 313:../../cpu/arm/mkl25z/./serial.c **** 		case 0:	UART0_SendString(str);
 839              		.loc 1 313 0
 840 02d8 081C     		mov	r0, r1	@, str
 841              	.LVL58:
 842 02da FFF7FEFF 		bl	UART0_SendString	@
 843              	.LVL59:
 314:../../cpu/arm/mkl25z/./serial.c **** 				break;
 844              		.loc 1 314 0
 845 02de 06E0     		b	.L52	@
 846              	.LVL60:
 847              	.L54:
 315:../../cpu/arm/mkl25z/./serial.c **** 		case 1:	UART1_SendString(str);
 848              		.loc 1 315 0
 849 02e0 081C     		mov	r0, r1	@, str
 850              	.LVL61:
 851 02e2 FFF7FEFF 		bl	UART1_SendString	@
 852              	.LVL62:
 316:../../cpu/arm/mkl25z/./serial.c **** 				break;
 853              		.loc 1 316 0
 854 02e6 02E0     		b	.L52	@
 855              	.LVL63:
 856              	.L56:
 317:../../cpu/arm/mkl25z/./serial.c **** 		case 2:	UART2_SendString(str);
 857              		.loc 1 317 0
 858 02e8 081C     		mov	r0, r1	@, str
 859              	.LVL64:
 860 02ea FFF7FEFF 		bl	UART2_SendString	@
 861              	.LVL65:
 862              	.L52:
 323:../../cpu/arm/mkl25z/./serial.c **** }
 863              		.loc 1 323 0
 864              		@ sp needed	@
 865 02ee 08BD     		pop	{r3, pc}
 866              		.cfi_endproc
 867              	.LFE11:
 868              		.size	UART_SendString, .-UART_SendString
 869              		.align	2
 870              		.global	UART0_IRQ_en
 871              		.code	16
 872              		.thumb_func
 873              		.type	UART0_IRQ_en, %function
 874              	UART0_IRQ_en:
 875              	.LFB15:
 348:../../cpu/arm/mkl25z/./serial.c **** 
 349:../../cpu/arm/mkl25z/./serial.c **** 
 350:../../cpu/arm/mkl25z/./serial.c **** /*-------------------------------------------------------------------------------------------------
 351:../../cpu/arm/mkl25z/./serial.c **** /* Interrupt Control Functions */
 352:../../cpu/arm/mkl25z/./serial.c **** void UART0_IRQ_en(void)
 353:../../cpu/arm/mkl25z/./serial.c **** {
 876              		.loc 1 353 0
 877              		.cfi_startproc
ARM GAS  /tmp/ccGhjqcS.s 			page 23


 354:../../cpu/arm/mkl25z/./serial.c **** 	UART0_C2 |= UART_C2_RIE_MASK;				/* UART0_C2: enable RX interrupt, Page 728. */
 878              		.loc 1 354 0
 879 02f0 034B     		ldr	r3, .L58	@ tmp112,
 880 02f2 1A68     		ldr	r2, [r3]	@ tmp113,
 881 02f4 120E     		lsr	r2, r2, #24	@ D.5555, tmp113,
 882 02f6 2021     		mov	r1, #32	@ tmp117,
 883 02f8 0A43     		orr	r2, r1	@ D.5555, tmp117
 884 02fa DA70     		strb	r2, [r3, #3]	@ D.5555, MEM[(volatile struct UART0_MemMap *)1074176000B].C2
 355:../../cpu/arm/mkl25z/./serial.c **** }
 885              		.loc 1 355 0
 886              		@ sp needed	@
 887 02fc 7047     		bx	lr
 888              	.L59:
 889 02fe C046     		.align	2
 890              	.L58:
 891 0300 00A00640 		.word	1074176000
 892              		.cfi_endproc
 893              	.LFE15:
 894              		.size	UART0_IRQ_en, .-UART0_IRQ_en
 895              		.align	2
 896              		.global	UART1_IRQ_en
 897              		.code	16
 898              		.thumb_func
 899              		.type	UART1_IRQ_en, %function
 900              	UART1_IRQ_en:
 901              	.LFB16:
 356:../../cpu/arm/mkl25z/./serial.c **** 
 357:../../cpu/arm/mkl25z/./serial.c **** void UART1_IRQ_en(void)
 358:../../cpu/arm/mkl25z/./serial.c **** {
 902              		.loc 1 358 0
 903              		.cfi_startproc
 359:../../cpu/arm/mkl25z/./serial.c **** 	UART1_C2 |= UART_C2_RIE_MASK;				/* UART1_C2: enable RX interrupt, Page 753. */
 904              		.loc 1 359 0
 905 0304 034B     		ldr	r3, .L61	@ tmp112,
 906 0306 1A68     		ldr	r2, [r3]	@ tmp113,
 907 0308 120E     		lsr	r2, r2, #24	@ D.5557, tmp113,
 908 030a 2021     		mov	r1, #32	@ tmp117,
 909 030c 0A43     		orr	r2, r1	@ D.5557, tmp117
 910 030e DA70     		strb	r2, [r3, #3]	@ D.5557, MEM[(volatile struct UART_MemMap *)1074180096B].C2
 360:../../cpu/arm/mkl25z/./serial.c **** }
 911              		.loc 1 360 0
 912              		@ sp needed	@
 913 0310 7047     		bx	lr
 914              	.L62:
 915 0312 C046     		.align	2
 916              	.L61:
 917 0314 00B00640 		.word	1074180096
 918              		.cfi_endproc
 919              	.LFE16:
 920              		.size	UART1_IRQ_en, .-UART1_IRQ_en
 921              		.align	2
 922              		.global	UART2_IRQ_en
 923              		.code	16
 924              		.thumb_func
 925              		.type	UART2_IRQ_en, %function
 926              	UART2_IRQ_en:
 927              	.LFB17:
ARM GAS  /tmp/ccGhjqcS.s 			page 24


 361:../../cpu/arm/mkl25z/./serial.c **** 
 362:../../cpu/arm/mkl25z/./serial.c **** void UART2_IRQ_en(void)
 363:../../cpu/arm/mkl25z/./serial.c **** {
 928              		.loc 1 363 0
 929              		.cfi_startproc
 364:../../cpu/arm/mkl25z/./serial.c **** 	UART2_C2 |= UART_C2_RIE_MASK;				/* UART2_C2: enable RX interrupt, Page 753. */
 930              		.loc 1 364 0
 931 0318 034B     		ldr	r3, .L64	@ tmp112,
 932 031a 1A68     		ldr	r2, [r3]	@ tmp113,
 933 031c 120E     		lsr	r2, r2, #24	@ D.5559, tmp113,
 934 031e 2021     		mov	r1, #32	@ tmp117,
 935 0320 0A43     		orr	r2, r1	@ D.5559, tmp117
 936 0322 DA70     		strb	r2, [r3, #3]	@ D.5559, MEM[(volatile struct UART_MemMap *)1074184192B].C2
 365:../../cpu/arm/mkl25z/./serial.c **** }
 937              		.loc 1 365 0
 938              		@ sp needed	@
 939 0324 7047     		bx	lr
 940              	.L65:
 941 0326 C046     		.align	2
 942              	.L64:
 943 0328 00C00640 		.word	1074184192
 944              		.cfi_endproc
 945              	.LFE17:
 946              		.size	UART2_IRQ_en, .-UART2_IRQ_en
 947              		.align	2
 948              		.global	UART0_IRQ_dis
 949              		.code	16
 950              		.thumb_func
 951              		.type	UART0_IRQ_dis, %function
 952              	UART0_IRQ_dis:
 953              	.LFB18:
 366:../../cpu/arm/mkl25z/./serial.c **** 
 367:../../cpu/arm/mkl25z/./serial.c **** 
 368:../../cpu/arm/mkl25z/./serial.c **** void UART0_IRQ_dis(void)
 369:../../cpu/arm/mkl25z/./serial.c **** {
 954              		.loc 1 369 0
 955              		.cfi_startproc
 370:../../cpu/arm/mkl25z/./serial.c **** 	UART0_C2 &= ~UART_C2_RIE_MASK;				/* UART0_C2: enable RX interrupt, Page 728. */
 956              		.loc 1 370 0
 957 032c 034B     		ldr	r3, .L67	@ tmp112,
 958 032e 1A68     		ldr	r2, [r3]	@ tmp113,
 959 0330 120E     		lsr	r2, r2, #24	@ D.5561, tmp113,
 960 0332 2021     		mov	r1, #32	@ tmp116,
 961 0334 8A43     		bic	r2, r1	@ D.5561, tmp116
 962 0336 DA70     		strb	r2, [r3, #3]	@ D.5561, MEM[(volatile struct UART0_MemMap *)1074176000B].C2
 371:../../cpu/arm/mkl25z/./serial.c **** }
 963              		.loc 1 371 0
 964              		@ sp needed	@
 965 0338 7047     		bx	lr
 966              	.L68:
 967 033a C046     		.align	2
 968              	.L67:
 969 033c 00A00640 		.word	1074176000
 970              		.cfi_endproc
 971              	.LFE18:
 972              		.size	UART0_IRQ_dis, .-UART0_IRQ_dis
 973              		.align	2
ARM GAS  /tmp/ccGhjqcS.s 			page 25


 974              		.global	UART1_IRQ_dis
 975              		.code	16
 976              		.thumb_func
 977              		.type	UART1_IRQ_dis, %function
 978              	UART1_IRQ_dis:
 979              	.LFB19:
 372:../../cpu/arm/mkl25z/./serial.c **** 
 373:../../cpu/arm/mkl25z/./serial.c **** void UART1_IRQ_dis(void)
 374:../../cpu/arm/mkl25z/./serial.c **** {
 980              		.loc 1 374 0
 981              		.cfi_startproc
 375:../../cpu/arm/mkl25z/./serial.c **** 	UART1_C2 &= ~UART_C2_RIE_MASK;				/* UART1_C2: enable RX interrupt, Page 753. */
 982              		.loc 1 375 0
 983 0340 034B     		ldr	r3, .L70	@ tmp112,
 984 0342 1A68     		ldr	r2, [r3]	@ tmp113,
 985 0344 120E     		lsr	r2, r2, #24	@ D.5563, tmp113,
 986 0346 2021     		mov	r1, #32	@ tmp116,
 987 0348 8A43     		bic	r2, r1	@ D.5563, tmp116
 988 034a DA70     		strb	r2, [r3, #3]	@ D.5563, MEM[(volatile struct UART_MemMap *)1074180096B].C2
 376:../../cpu/arm/mkl25z/./serial.c **** }
 989              		.loc 1 376 0
 990              		@ sp needed	@
 991 034c 7047     		bx	lr
 992              	.L71:
 993 034e C046     		.align	2
 994              	.L70:
 995 0350 00B00640 		.word	1074180096
 996              		.cfi_endproc
 997              	.LFE19:
 998              		.size	UART1_IRQ_dis, .-UART1_IRQ_dis
 999              		.align	2
 1000              		.global	UART2_IRQ_dis
 1001              		.code	16
 1002              		.thumb_func
 1003              		.type	UART2_IRQ_dis, %function
 1004              	UART2_IRQ_dis:
 1005              	.LFB20:
 377:../../cpu/arm/mkl25z/./serial.c **** 
 378:../../cpu/arm/mkl25z/./serial.c **** void UART2_IRQ_dis(void)
 379:../../cpu/arm/mkl25z/./serial.c **** {
 1006              		.loc 1 379 0
 1007              		.cfi_startproc
 380:../../cpu/arm/mkl25z/./serial.c **** 	UART2_C2 &= ~UART_C2_RIE_MASK;				/* UART2_C2: enable RX interrupt, Page 753. */
 1008              		.loc 1 380 0
 1009 0354 034B     		ldr	r3, .L73	@ tmp112,
 1010 0356 1A68     		ldr	r2, [r3]	@ tmp113,
 1011 0358 120E     		lsr	r2, r2, #24	@ D.5565, tmp113,
 1012 035a 2021     		mov	r1, #32	@ tmp116,
 1013 035c 8A43     		bic	r2, r1	@ D.5565, tmp116
 1014 035e DA70     		strb	r2, [r3, #3]	@ D.5565, MEM[(volatile struct UART_MemMap *)1074184192B].C2
 381:../../cpu/arm/mkl25z/./serial.c **** }
 1015              		.loc 1 381 0
 1016              		@ sp needed	@
 1017 0360 7047     		bx	lr
 1018              	.L74:
 1019 0362 C046     		.align	2
 1020              	.L73:
ARM GAS  /tmp/ccGhjqcS.s 			page 26


 1021 0364 00C00640 		.word	1074184192
 1022              		.cfi_endproc
 1023              	.LFE20:
 1024              		.size	UART2_IRQ_dis, .-UART2_IRQ_dis
 1025              		.align	2
 1026              		.global	UART0_IRQHandler
 1027              		.code	16
 1028              		.thumb_func
 1029              		.type	UART0_IRQHandler, %function
 1030              	UART0_IRQHandler:
 1031              	.LFB21:
 382:../../cpu/arm/mkl25z/./serial.c **** 
 383:../../cpu/arm/mkl25z/./serial.c **** 
 384:../../cpu/arm/mkl25z/./serial.c **** /*-------------------------------------------------------------------------------------------------
 385:../../cpu/arm/mkl25z/./serial.c **** /* Interrupt Handler */
 386:../../cpu/arm/mkl25z/./serial.c **** void UART0_IRQHandler(void)					/* UART0 Interrupt Handler 		*/													
 387:../../cpu/arm/mkl25z/./serial.c **** {
 1032              		.loc 1 387 0
 1033              		.cfi_startproc
 1034 0368 08B5     		push	{r3, lr}	@
 1035              	.LCFI9:
 1036              		.cfi_def_cfa_offset 8
 1037              		.cfi_offset 3, -8
 1038              		.cfi_offset 14, -4
 388:../../cpu/arm/mkl25z/./serial.c ****   register uint16_t UART0_IntStatReg = UART0_S1;				/* Copy of UART_S1, register for speed.								
 1039              		.loc 1 388 0
 1040 036a 0F4B     		ldr	r3, .L80	@ tmp122,
 1041 036c 5B68     		ldr	r3, [r3, #4]	@ tmp123,
 1042 036e DBB2     		uxtb	r3, r3	@ D.5567, tmp123
 1043              	.LVL66:
 389:../../cpu/arm/mkl25z/./serial.c **** 			/* Check for error flags 		*/
 390:../../cpu/arm/mkl25z/./serial.c **** 	if (UART0_IntStatReg & (UART_S1_OR_MASK | UART_S1_NF_MASK | UART_S1_FE_MASK | UART_S1_PF_MASK)) 		
 1044              		.loc 1 390 0
 1045 0370 1A07     		lsl	r2, r3, #28	@, D.5567,
 1046 0372 05D0     		beq	.L77	@,
 391:../../cpu/arm/mkl25z/./serial.c **** 	{	
 392:../../cpu/arm/mkl25z/./serial.c **** 		UART0_S1 = (uint8_t)UART_S1_Err;					/* Write to status register to acknowledge error.					*/
 1047              		.loc 1 392 0
 1048 0374 0C4A     		ldr	r2, .L80	@ tmp130,
 1049 0376 0F21     		mov	r1, #15	@ tmp131,
 1050 0378 1171     		strb	r1, [r2, #4]	@ tmp131, MEM[(volatile struct UART0_MemMap *)1074176000B].S1
 393:../../cpu/arm/mkl25z/./serial.c **** 		(void) UART0_D;										/* Dummy read of input data.										*/
 1051              		.loc 1 393 0
 1052 037a 5268     		ldr	r2, [r2, #4]	@ tmp134,
 394:../../cpu/arm/mkl25z/./serial.c **** 		UART0_IntStatReg &= (uint8_t)~UART_S1_RDRF_MASK;	/* Clear RDRF flag so that data is junked.						
 1053              		.loc 1 394 0
 1054 037c 2022     		mov	r2, #32	@ tmp137,
 1055 037e 9343     		bic	r3, r2	@ UART0_IntStatReg, tmp137
 1056              	.LVL67:
 1057              	.L77:
 395:../../cpu/arm/mkl25z/./serial.c **** 	}
 396:../../cpu/arm/mkl25z/./serial.c **** 	if (UART0_C2 & UART_C2_TIE_MASK)															/* TX Interrupt enabled 		*/
 1058              		.loc 1 396 0
 1059 0380 094A     		ldr	r2, .L80	@ tmp140,
 1060 0382 1268     		ldr	r2, [r2]	@ tmp141,
 1061 0384 002A     		cmp	r2, #0	@ tmp141,
 1062 0386 04DA     		bge	.L78	@,
ARM GAS  /tmp/ccGhjqcS.s 			page 27


 397:../../cpu/arm/mkl25z/./serial.c **** 	{
 398:../../cpu/arm/mkl25z/./serial.c **** 		UART0_C2 &= (uint8_t)~UART_C2_TIE_MASK;				/* We should never get here, disable TX interrupt					
 1063              		.loc 1 398 0
 1064 0388 074A     		ldr	r2, .L80	@ tmp145,
 1065 038a 1168     		ldr	r1, [r2]	@ tmp146,
 1066 038c 4900     		lsl	r1, r1, #1	@ tmp151, tmp146,
 1067 038e 490E     		lsr	r1, r1, #25	@ D.5567, tmp151,
 1068 0390 D170     		strb	r1, [r2, #3]	@ D.5567, MEM[(volatile struct UART0_MemMap *)1074176000B].C2
 1069              	.L78:
 399:../../cpu/arm/mkl25z/./serial.c **** 	}
 400:../../cpu/arm/mkl25z/./serial.c **** 	if (UART0_IntStatReg & UART_S1_RDRF_MASK)													/* RX Interrupt 				*/
 1070              		.loc 1 400 0
 1071 0392 9A06     		lsl	r2, r3, #26	@, UART0_IntStatReg,
 1072 0394 07D5     		bpl	.L75	@,
 1073              	.LBB5:
 401:../../cpu/arm/mkl25z/./serial.c **** 	{
 402:../../cpu/arm/mkl25z/./serial.c **** 		register uint8_t inChar = UART0_D;								/* Read input data													*/
 1074              		.loc 1 402 0
 1075 0396 044B     		ldr	r3, .L80	@ tmp160,
 1076              	.LVL68:
 1077 0398 5868     		ldr	r0, [r3, #4]	@ tmp161,
 1078 039a 000E     		lsr	r0, r0, #24	@ inChar, tmp161,
 1079              	.LVL69:
 403:../../cpu/arm/mkl25z/./serial.c **** 		if (UART0_callback != NULL)							/* If a call back function has been registered						*/
 1080              		.loc 1 403 0
 1081 039c 034B     		ldr	r3, .L80+4	@ tmp163,
 1082 039e 1B68     		ldr	r3, [r3]	@ UART0_callback.7, UART0_callback
 1083 03a0 002B     		cmp	r3, #0	@ UART0_callback.7,
 1084 03a2 00D0     		beq	.L75	@,
 404:../../cpu/arm/mkl25z/./serial.c **** 		{
 405:../../cpu/arm/mkl25z/./serial.c **** 			(*UART0_callback)(inChar);						/* Call it and send received character								*/
 1085              		.loc 1 405 0
 1086 03a4 9847     		blx	r3	@ UART0_callback.7
 1087              	.LVL70:
 1088              	.L75:
 1089              	.LBE5:
 406:../../cpu/arm/mkl25z/./serial.c **** 		}
 407:../../cpu/arm/mkl25z/./serial.c **** 		else												/* else																*/
 408:../../cpu/arm/mkl25z/./serial.c **** 		{
 409:../../cpu/arm/mkl25z/./serial.c **** 			#ifdef DEBUG									/* Break if in debug, otherwise do nothing.							*/
 410:../../cpu/arm/mkl25z/./serial.c **** 			__asm("bkpt");
 411:../../cpu/arm/mkl25z/./serial.c **** 			#endif
 412:../../cpu/arm/mkl25z/./serial.c **** 			//UART0_PutChar(inChar);							/* Echo the character back out of UART0								*/
 413:../../cpu/arm/mkl25z/./serial.c **** 		}
 414:../../cpu/arm/mkl25z/./serial.c **** 	}
 415:../../cpu/arm/mkl25z/./serial.c **** }
 1090              		.loc 1 415 0
 1091              		@ sp needed	@
 1092 03a6 08BD     		pop	{r3, pc}
 1093              	.L81:
 1094              		.align	2
 1095              	.L80:
 1096 03a8 00A00640 		.word	1074176000
 1097 03ac 00000000 		.word	.LANCHOR0
 1098              		.cfi_endproc
 1099              	.LFE21:
 1100              		.size	UART0_IRQHandler, .-UART0_IRQHandler
ARM GAS  /tmp/ccGhjqcS.s 			page 28


 1101              		.align	2
 1102              		.global	UART1_IRQHandler
 1103              		.code	16
 1104              		.thumb_func
 1105              		.type	UART1_IRQHandler, %function
 1106              	UART1_IRQHandler:
 1107              	.LFB22:
 416:../../cpu/arm/mkl25z/./serial.c **** 
 417:../../cpu/arm/mkl25z/./serial.c **** void UART1_IRQHandler(void)					/* UART1 Interrupt Handler 		*/													
 418:../../cpu/arm/mkl25z/./serial.c **** {
 1108              		.loc 1 418 0
 1109              		.cfi_startproc
 1110 03b0 08B5     		push	{r3, lr}	@
 1111              	.LCFI10:
 1112              		.cfi_def_cfa_offset 8
 1113              		.cfi_offset 3, -8
 1114              		.cfi_offset 14, -4
 419:../../cpu/arm/mkl25z/./serial.c ****   register uint16_t UART1_IntStatReg = UART1_S1;			/* Copy of UART_S1, register for speed.								*
 1115              		.loc 1 419 0
 1116 03b2 0F4B     		ldr	r3, .L87	@ tmp122,
 1117 03b4 5B68     		ldr	r3, [r3, #4]	@ tmp123,
 1118 03b6 DBB2     		uxtb	r3, r3	@ D.5572, tmp123
 1119              	.LVL71:
 420:../../cpu/arm/mkl25z/./serial.c **** 			/* Check for error flags 		*/
 421:../../cpu/arm/mkl25z/./serial.c **** 	if (UART1_IntStatReg & (UART_S1_OR_MASK | UART_S1_NF_MASK | UART_S1_FE_MASK | UART_S1_PF_MASK)) 		
 1120              		.loc 1 421 0
 1121 03b8 1A07     		lsl	r2, r3, #28	@, D.5572,
 1122 03ba 05D0     		beq	.L84	@,
 422:../../cpu/arm/mkl25z/./serial.c **** 	{	
 423:../../cpu/arm/mkl25z/./serial.c **** 		UART1_S1 = (uint8_t)UART_S1_Err;					/* Write to status register to acknowledge error.					*/
 1123              		.loc 1 423 0
 1124 03bc 0C4A     		ldr	r2, .L87	@ tmp130,
 1125 03be 0F21     		mov	r1, #15	@ tmp131,
 1126 03c0 1171     		strb	r1, [r2, #4]	@ tmp131, MEM[(volatile struct UART_MemMap *)1074180096B].S1
 424:../../cpu/arm/mkl25z/./serial.c **** 		(void) UART1_D;										/* Dummy read of input data.										*/
 1127              		.loc 1 424 0
 1128 03c2 5268     		ldr	r2, [r2, #4]	@ tmp134,
 425:../../cpu/arm/mkl25z/./serial.c **** 		UART1_IntStatReg &= (uint8_t)~UART_S1_RDRF_MASK;	/* Clear RDRF flag so that data is junked.						
 1129              		.loc 1 425 0
 1130 03c4 2022     		mov	r2, #32	@ tmp137,
 1131 03c6 9343     		bic	r3, r2	@ UART1_IntStatReg, tmp137
 1132              	.LVL72:
 1133              	.L84:
 426:../../cpu/arm/mkl25z/./serial.c **** 	}
 427:../../cpu/arm/mkl25z/./serial.c **** 	if (UART1_C2 & UART_C2_TIE_MASK)															/* TX Interrupt enabled 		*/
 1134              		.loc 1 427 0
 1135 03c8 094A     		ldr	r2, .L87	@ tmp140,
 1136 03ca 1268     		ldr	r2, [r2]	@ tmp141,
 1137 03cc 002A     		cmp	r2, #0	@ tmp141,
 1138 03ce 04DA     		bge	.L85	@,
 428:../../cpu/arm/mkl25z/./serial.c **** 	{
 429:../../cpu/arm/mkl25z/./serial.c **** 		UART1_C2 &= (uint8_t)~UART_C2_TIE_MASK;				/* We should never get here, disable TX interrupt					
 1139              		.loc 1 429 0
 1140 03d0 074A     		ldr	r2, .L87	@ tmp145,
 1141 03d2 1168     		ldr	r1, [r2]	@ tmp146,
 1142 03d4 4900     		lsl	r1, r1, #1	@ tmp151, tmp146,
 1143 03d6 490E     		lsr	r1, r1, #25	@ D.5572, tmp151,
ARM GAS  /tmp/ccGhjqcS.s 			page 29


 1144 03d8 D170     		strb	r1, [r2, #3]	@ D.5572, MEM[(volatile struct UART_MemMap *)1074180096B].C2
 1145              	.L85:
 430:../../cpu/arm/mkl25z/./serial.c **** 	}
 431:../../cpu/arm/mkl25z/./serial.c **** 	if (UART1_IntStatReg & UART_S1_RDRF_MASK)													/* RX Interrupt 				*/
 1146              		.loc 1 431 0
 1147 03da 9A06     		lsl	r2, r3, #26	@, UART1_IntStatReg,
 1148 03dc 07D5     		bpl	.L82	@,
 1149              	.LBB6:
 432:../../cpu/arm/mkl25z/./serial.c **** 	{
 433:../../cpu/arm/mkl25z/./serial.c **** 		register uint8_t inChar = UART1_D;					/* Read input data													*/
 1150              		.loc 1 433 0
 1151 03de 044B     		ldr	r3, .L87	@ tmp160,
 1152              	.LVL73:
 1153 03e0 5868     		ldr	r0, [r3, #4]	@ tmp161,
 1154 03e2 000E     		lsr	r0, r0, #24	@ inChar, tmp161,
 1155              	.LVL74:
 434:../../cpu/arm/mkl25z/./serial.c **** 		if (UART1_callback != NULL)							/* If a call back function has been registered						*/
 1156              		.loc 1 434 0
 1157 03e4 034B     		ldr	r3, .L87+4	@ tmp163,
 1158 03e6 5B68     		ldr	r3, [r3, #4]	@ UART1_callback.9, UART1_callback
 1159 03e8 002B     		cmp	r3, #0	@ UART1_callback.9,
 1160 03ea 00D0     		beq	.L82	@,
 435:../../cpu/arm/mkl25z/./serial.c **** 		{
 436:../../cpu/arm/mkl25z/./serial.c **** 			(*UART1_callback)(inChar);						/* Call it and send received character								*/
 1161              		.loc 1 436 0
 1162 03ec 9847     		blx	r3	@ UART1_callback.9
 1163              	.LVL75:
 1164              	.L82:
 1165              	.LBE6:
 437:../../cpu/arm/mkl25z/./serial.c **** 		}
 438:../../cpu/arm/mkl25z/./serial.c **** 		else												/* else																*/
 439:../../cpu/arm/mkl25z/./serial.c **** 		{
 440:../../cpu/arm/mkl25z/./serial.c **** 			#ifdef DEBUG									/* Break if in debug, otherwise do nothing.							*/
 441:../../cpu/arm/mkl25z/./serial.c **** 			__asm("bkpt");
 442:../../cpu/arm/mkl25z/./serial.c **** 			#endif
 443:../../cpu/arm/mkl25z/./serial.c **** 		}
 444:../../cpu/arm/mkl25z/./serial.c **** 	}
 445:../../cpu/arm/mkl25z/./serial.c **** }
 1166              		.loc 1 445 0
 1167              		@ sp needed	@
 1168 03ee 08BD     		pop	{r3, pc}
 1169              	.L88:
 1170              		.align	2
 1171              	.L87:
 1172 03f0 00B00640 		.word	1074180096
 1173 03f4 00000000 		.word	.LANCHOR0
 1174              		.cfi_endproc
 1175              	.LFE22:
 1176              		.size	UART1_IRQHandler, .-UART1_IRQHandler
 1177              		.align	2
 1178              		.global	UART2_IRQHandler
 1179              		.code	16
 1180              		.thumb_func
 1181              		.type	UART2_IRQHandler, %function
 1182              	UART2_IRQHandler:
 1183              	.LFB23:
 446:../../cpu/arm/mkl25z/./serial.c **** 
ARM GAS  /tmp/ccGhjqcS.s 			page 30


 447:../../cpu/arm/mkl25z/./serial.c **** void UART2_IRQHandler(void)					/* UART2 Interrupt Handler 		*/													
 448:../../cpu/arm/mkl25z/./serial.c **** {
 1184              		.loc 1 448 0
 1185              		.cfi_startproc
 1186 03f8 08B5     		push	{r3, lr}	@
 1187              	.LCFI11:
 1188              		.cfi_def_cfa_offset 8
 1189              		.cfi_offset 3, -8
 1190              		.cfi_offset 14, -4
 449:../../cpu/arm/mkl25z/./serial.c ****   register uint16_t UART2_IntStatReg = UART2_S1;			/* Copy of UART_S1, register for speed.								*
 1191              		.loc 1 449 0
 1192 03fa 0F4B     		ldr	r3, .L94	@ tmp122,
 1193 03fc 5B68     		ldr	r3, [r3, #4]	@ tmp123,
 1194 03fe DBB2     		uxtb	r3, r3	@ D.5577, tmp123
 1195              	.LVL76:
 450:../../cpu/arm/mkl25z/./serial.c **** 			/* Check for error flags 		*/
 451:../../cpu/arm/mkl25z/./serial.c **** 	if (UART2_IntStatReg & (UART_S1_OR_MASK | UART_S1_NF_MASK | UART_S1_FE_MASK | UART_S1_PF_MASK)) 		
 1196              		.loc 1 451 0
 1197 0400 1A07     		lsl	r2, r3, #28	@, D.5577,
 1198 0402 05D0     		beq	.L91	@,
 452:../../cpu/arm/mkl25z/./serial.c **** 	{	
 453:../../cpu/arm/mkl25z/./serial.c **** 		UART2_S1 = (uint8_t)UART_S1_Err;					/* Write to status register to acknowledge error.					*/
 1199              		.loc 1 453 0
 1200 0404 0C4A     		ldr	r2, .L94	@ tmp130,
 1201 0406 0F21     		mov	r1, #15	@ tmp131,
 1202 0408 1171     		strb	r1, [r2, #4]	@ tmp131, MEM[(volatile struct UART_MemMap *)1074184192B].S1
 454:../../cpu/arm/mkl25z/./serial.c **** 		(void) UART2_D;										/* Dummy read of input data.										*/
 1203              		.loc 1 454 0
 1204 040a 5268     		ldr	r2, [r2, #4]	@ tmp134,
 455:../../cpu/arm/mkl25z/./serial.c **** 		UART2_IntStatReg &= (uint8_t)~UART_S1_RDRF_MASK;	/* Clear RDRF flag so that data is junked.						
 1205              		.loc 1 455 0
 1206 040c 2022     		mov	r2, #32	@ tmp137,
 1207 040e 9343     		bic	r3, r2	@ UART2_IntStatReg, tmp137
 1208              	.LVL77:
 1209              	.L91:
 456:../../cpu/arm/mkl25z/./serial.c **** 	}
 457:../../cpu/arm/mkl25z/./serial.c **** 	if (UART2_C2 & UART_C2_TIE_MASK)															/* TX Interrupt enabled 		*/
 1210              		.loc 1 457 0
 1211 0410 094A     		ldr	r2, .L94	@ tmp140,
 1212 0412 1268     		ldr	r2, [r2]	@ tmp141,
 1213 0414 002A     		cmp	r2, #0	@ tmp141,
 1214 0416 04DA     		bge	.L92	@,
 458:../../cpu/arm/mkl25z/./serial.c **** 	{
 459:../../cpu/arm/mkl25z/./serial.c **** 		UART2_C2 &= (uint8_t)~UART_C2_TIE_MASK;				/* We should never get here, disable TX interrupt					
 1215              		.loc 1 459 0
 1216 0418 074A     		ldr	r2, .L94	@ tmp145,
 1217 041a 1168     		ldr	r1, [r2]	@ tmp146,
 1218 041c 4900     		lsl	r1, r1, #1	@ tmp151, tmp146,
 1219 041e 490E     		lsr	r1, r1, #25	@ D.5577, tmp151,
 1220 0420 D170     		strb	r1, [r2, #3]	@ D.5577, MEM[(volatile struct UART_MemMap *)1074184192B].C2
 1221              	.L92:
 460:../../cpu/arm/mkl25z/./serial.c **** 	}
 461:../../cpu/arm/mkl25z/./serial.c **** 	if (UART2_IntStatReg & UART_S1_RDRF_MASK)													/* RX Interrupt 				*/
 1222              		.loc 1 461 0
 1223 0422 9A06     		lsl	r2, r3, #26	@, UART2_IntStatReg,
 1224 0424 07D5     		bpl	.L89	@,
 1225              	.LBB7:
ARM GAS  /tmp/ccGhjqcS.s 			page 31


 462:../../cpu/arm/mkl25z/./serial.c **** 	{
 463:../../cpu/arm/mkl25z/./serial.c **** 		register uint8_t inChar = UART2_D;					/* Read input data													*/
 1226              		.loc 1 463 0
 1227 0426 044B     		ldr	r3, .L94	@ tmp160,
 1228              	.LVL78:
 1229 0428 5868     		ldr	r0, [r3, #4]	@ tmp161,
 1230 042a 000E     		lsr	r0, r0, #24	@ inChar, tmp161,
 1231              	.LVL79:
 464:../../cpu/arm/mkl25z/./serial.c **** 		if (UART2_callback != NULL)							/* If a call back function has been registered						*/
 1232              		.loc 1 464 0
 1233 042c 034B     		ldr	r3, .L94+4	@ tmp163,
 1234 042e 9B68     		ldr	r3, [r3, #8]	@ UART2_callback.11, UART2_callback
 1235 0430 002B     		cmp	r3, #0	@ UART2_callback.11,
 1236 0432 00D0     		beq	.L89	@,
 465:../../cpu/arm/mkl25z/./serial.c **** 		{
 466:../../cpu/arm/mkl25z/./serial.c **** 			(*UART2_callback)(inChar);						/* Call it and send received character								*/
 1237              		.loc 1 466 0
 1238 0434 9847     		blx	r3	@ UART2_callback.11
 1239              	.LVL80:
 1240              	.L89:
 1241              	.LBE7:
 467:../../cpu/arm/mkl25z/./serial.c **** 		}
 468:../../cpu/arm/mkl25z/./serial.c **** 		else												/* else																*/
 469:../../cpu/arm/mkl25z/./serial.c **** 		{
 470:../../cpu/arm/mkl25z/./serial.c **** 			#ifdef DEBUG									/* Break if in debug, otherwise do nothing.							*/
 471:../../cpu/arm/mkl25z/./serial.c **** 			__asm("bkpt");
 472:../../cpu/arm/mkl25z/./serial.c **** 			#endif
 473:../../cpu/arm/mkl25z/./serial.c **** 		}
 474:../../cpu/arm/mkl25z/./serial.c **** 	}
 475:../../cpu/arm/mkl25z/./serial.c **** }
 1242              		.loc 1 475 0
 1243              		@ sp needed	@
 1244 0436 08BD     		pop	{r3, pc}
 1245              	.L95:
 1246              		.align	2
 1247              	.L94:
 1248 0438 00C00640 		.word	1074184192
 1249 043c 00000000 		.word	.LANCHOR0
 1250              		.cfi_endproc
 1251              	.LFE23:
 1252              		.size	UART2_IRQHandler, .-UART2_IRQHandler
 1253              		.bss
 1254              		.align	2
 1255              		.set	.LANCHOR0,. + 0
 1256              		.type	UART0_callback, %object
 1257              		.size	UART0_callback, 4
 1258              	UART0_callback:
 1259 0000 00000000 		.space	4
 1260              		.type	UART1_callback, %object
 1261              		.size	UART1_callback, 4
 1262              	UART1_callback:
 1263 0004 00000000 		.space	4
 1264              		.type	UART2_callback, %object
 1265              		.size	UART2_callback, 4
 1266              	UART2_callback:
 1267 0008 00000000 		.space	4
 1268              		.text
ARM GAS  /tmp/ccGhjqcS.s 			page 32


 1269              	.Letext0:
 1270              		.file 2 "/home/glacsweb/arm-gcc/ARM_GCC_Support/ewl/EWL_C/include/cstdint"
 1271              		.file 3 "../../cpu/arm/mkl25z/MKL25Z4.h"
 1272              		.file 4 "../../cpu/arm/mkl25z/./nvic.h"
 1273              		.section	.debug_info,"",%progbits
 1274              	.Ldebug_info0:
 1275 0000 AB0A0000 		.4byte	0xaab
 1276 0004 0200     		.2byte	0x2
 1277 0006 00000000 		.4byte	.Ldebug_abbrev0
 1278 000a 04       		.byte	0x4
 1279 000b 01       		.uleb128 0x1
 1280 000c 34040000 		.4byte	.LASF94
 1281 0010 01       		.byte	0x1
 1282 0011 BE040000 		.4byte	.LASF95
 1283 0015 FE030000 		.4byte	.LASF96
 1284 0019 00000000 		.4byte	.Ltext0
 1285 001d 40040000 		.4byte	.Letext0
 1286 0021 00000000 		.4byte	.Ldebug_line0
 1287 0025 02       		.uleb128 0x2
 1288 0026 04       		.byte	0x4
 1289 0027 05       		.byte	0x5
 1290 0028 696E7400 		.ascii	"int\000"
 1291 002c 03       		.uleb128 0x3
 1292 002d 04       		.byte	0x4
 1293 002e 05       		.byte	0x5
 1294 002f 69010000 		.4byte	.LASF0
 1295 0033 03       		.uleb128 0x3
 1296 0034 04       		.byte	0x4
 1297 0035 07       		.byte	0x7
 1298 0036 77020000 		.4byte	.LASF1
 1299 003a 03       		.uleb128 0x3
 1300 003b 01       		.byte	0x1
 1301 003c 06       		.byte	0x6
 1302 003d 22020000 		.4byte	.LASF2
 1303 0041 03       		.uleb128 0x3
 1304 0042 02       		.byte	0x2
 1305 0043 05       		.byte	0x5
 1306 0044 74000000 		.4byte	.LASF3
 1307 0048 03       		.uleb128 0x3
 1308 0049 08       		.byte	0x8
 1309 004a 05       		.byte	0x5
 1310 004b 54010000 		.4byte	.LASF4
 1311 004f 04       		.uleb128 0x4
 1312 0050 DE000000 		.4byte	.LASF6
 1313 0054 02       		.byte	0x2
 1314 0055 2A       		.byte	0x2a
 1315 0056 5A000000 		.4byte	0x5a
 1316 005a 03       		.uleb128 0x3
 1317 005b 01       		.byte	0x1
 1318 005c 08       		.byte	0x8
 1319 005d 0F020000 		.4byte	.LASF5
 1320 0061 04       		.uleb128 0x4
 1321 0062 EF020000 		.4byte	.LASF7
 1322 0066 02       		.byte	0x2
 1323 0067 2B       		.byte	0x2b
 1324 0068 6C000000 		.4byte	0x6c
 1325 006c 03       		.uleb128 0x3
ARM GAS  /tmp/ccGhjqcS.s 			page 33


 1326 006d 02       		.byte	0x2
 1327 006e 07       		.byte	0x7
 1328 006f B7020000 		.4byte	.LASF8
 1329 0073 04       		.uleb128 0x4
 1330 0074 5E020000 		.4byte	.LASF9
 1331 0078 02       		.byte	0x2
 1332 0079 2C       		.byte	0x2c
 1333 007a 7E000000 		.4byte	0x7e
 1334 007e 03       		.uleb128 0x3
 1335 007f 04       		.byte	0x4
 1336 0080 07       		.byte	0x7
 1337 0081 9D020000 		.4byte	.LASF10
 1338 0085 03       		.uleb128 0x3
 1339 0086 08       		.byte	0x8
 1340 0087 07       		.byte	0x7
 1341 0088 41020000 		.4byte	.LASF11
 1342 008c 03       		.uleb128 0x3
 1343 008d 01       		.byte	0x1
 1344 008e 08       		.byte	0x8
 1345 008f EA020000 		.4byte	.LASF12
 1346 0093 05       		.uleb128 0x5
 1347 0094 04       		.byte	0x4
 1348 0095 03       		.uleb128 0x3
 1349 0096 04       		.byte	0x4
 1350 0097 07       		.byte	0x7
 1351 0098 7E000000 		.4byte	.LASF13
 1352 009c 06       		.uleb128 0x6
 1353 009d 4F000000 		.4byte	0x4f
 1354 00a1 AC000000 		.4byte	0xac
 1355 00a5 07       		.uleb128 0x7
 1356 00a6 95000000 		.4byte	0x95
 1357 00aa 03       		.byte	0x3
 1358 00ab 00       		.byte	0
 1359 00ac 06       		.uleb128 0x6
 1360 00ad 4F000000 		.4byte	0x4f
 1361 00b1 BC000000 		.4byte	0xbc
 1362 00b5 07       		.uleb128 0x7
 1363 00b6 95000000 		.4byte	0x95
 1364 00ba 17       		.byte	0x17
 1365 00bb 00       		.byte	0
 1366 00bc 06       		.uleb128 0x6
 1367 00bd 4F000000 		.4byte	0x4f
 1368 00c1 CC000000 		.4byte	0xcc
 1369 00c5 07       		.uleb128 0x7
 1370 00c6 95000000 		.4byte	0x95
 1371 00ca 07       		.byte	0x7
 1372 00cb 00       		.byte	0
 1373 00cc 06       		.uleb128 0x6
 1374 00cd 4F000000 		.4byte	0x4f
 1375 00d1 DC000000 		.4byte	0xdc
 1376 00d5 07       		.uleb128 0x7
 1377 00d6 95000000 		.4byte	0x95
 1378 00da 9B       		.byte	0x9b
 1379 00db 00       		.byte	0
 1380 00dc 08       		.uleb128 0x8
 1381 00dd 91020000 		.4byte	.LASF19
 1382 00e1 A4       		.byte	0xa4
ARM GAS  /tmp/ccGhjqcS.s 			page 34


 1383 00e2 03       		.byte	0x3
 1384 00e3 870F     		.2byte	0xf87
 1385 00e5 39010000 		.4byte	0x139
 1386 00e9 09       		.uleb128 0x9
 1387 00ea 50435200 		.ascii	"PCR\000"
 1388 00ee 03       		.byte	0x3
 1389 00ef 880F     		.2byte	0xf88
 1390 00f1 39010000 		.4byte	0x139
 1391 00f5 02       		.byte	0x2
 1392 00f6 23       		.byte	0x23
 1393 00f7 00       		.uleb128 0
 1394 00f8 0A       		.uleb128 0xa
 1395 00f9 58020000 		.4byte	.LASF14
 1396 00fd 03       		.byte	0x3
 1397 00fe 890F     		.2byte	0xf89
 1398 0100 73000000 		.4byte	0x73
 1399 0104 03       		.byte	0x3
 1400 0105 23       		.byte	0x23
 1401 0106 8001     		.uleb128 0x80
 1402 0108 0A       		.uleb128 0xa
 1403 0109 EE010000 		.4byte	.LASF15
 1404 010d 03       		.byte	0x3
 1405 010e 8A0F     		.2byte	0xf8a
 1406 0110 73000000 		.4byte	0x73
 1407 0114 03       		.byte	0x3
 1408 0115 23       		.byte	0x23
 1409 0116 8401     		.uleb128 0x84
 1410 0118 0A       		.uleb128 0xa
 1411 0119 A2030000 		.4byte	.LASF16
 1412 011d 03       		.byte	0x3
 1413 011e 8B0F     		.2byte	0xf8b
 1414 0120 AC000000 		.4byte	0xac
 1415 0124 03       		.byte	0x3
 1416 0125 23       		.byte	0x23
 1417 0126 8801     		.uleb128 0x88
 1418 0128 0A       		.uleb128 0xa
 1419 0129 42050000 		.4byte	.LASF17
 1420 012d 03       		.byte	0x3
 1421 012e 8C0F     		.2byte	0xf8c
 1422 0130 73000000 		.4byte	0x73
 1423 0134 03       		.byte	0x3
 1424 0135 23       		.byte	0x23
 1425 0136 A001     		.uleb128 0xa0
 1426 0138 00       		.byte	0
 1427 0139 06       		.uleb128 0x6
 1428 013a 73000000 		.4byte	0x73
 1429 013e 49010000 		.4byte	0x149
 1430 0142 07       		.uleb128 0x7
 1431 0143 95000000 		.4byte	0x95
 1432 0147 1F       		.byte	0x1f
 1433 0148 00       		.byte	0
 1434 0149 0B       		.uleb128 0xb
 1435 014a 09030000 		.4byte	.LASF18
 1436 014e 03       		.byte	0x3
 1437 014f 8D0F     		.2byte	0xf8d
 1438 0151 55010000 		.4byte	0x155
 1439 0155 0C       		.uleb128 0xc
ARM GAS  /tmp/ccGhjqcS.s 			page 35


 1440 0156 04       		.byte	0x4
 1441 0157 5B010000 		.4byte	0x15b
 1442 015b 0D       		.uleb128 0xd
 1443 015c DC000000 		.4byte	0xdc
 1444 0160 0E       		.uleb128 0xe
 1445 0161 8C030000 		.4byte	.LASF20
 1446 0165 0811     		.2byte	0x1108
 1447 0167 03       		.byte	0x3
 1448 0168 5113     		.2byte	0x1351
 1449 016a 1C030000 		.4byte	0x31c
 1450 016e 0A       		.uleb128 0xa
 1451 016f 38030000 		.4byte	.LASF21
 1452 0173 03       		.byte	0x3
 1453 0174 5213     		.2byte	0x1352
 1454 0176 73000000 		.4byte	0x73
 1455 017a 02       		.byte	0x2
 1456 017b 23       		.byte	0x23
 1457 017c 00       		.uleb128 0
 1458 017d 0A       		.uleb128 0xa
 1459 017e 85010000 		.4byte	.LASF22
 1460 0182 03       		.byte	0x3
 1461 0183 5313     		.2byte	0x1353
 1462 0185 73000000 		.4byte	0x73
 1463 0189 02       		.byte	0x2
 1464 018a 23       		.byte	0x23
 1465 018b 04       		.uleb128 0x4
 1466 018c 0A       		.uleb128 0xa
 1467 018d A2030000 		.4byte	.LASF16
 1468 0191 03       		.byte	0x3
 1469 0192 5413     		.2byte	0x1354
 1470 0194 1C030000 		.4byte	0x31c
 1471 0198 02       		.byte	0x2
 1472 0199 23       		.byte	0x23
 1473 019a 08       		.uleb128 0x8
 1474 019b 0A       		.uleb128 0xa
 1475 019c B3010000 		.4byte	.LASF23
 1476 01a0 03       		.byte	0x3
 1477 01a1 5513     		.2byte	0x1355
 1478 01a3 73000000 		.4byte	0x73
 1479 01a7 03       		.byte	0x3
 1480 01a8 23       		.byte	0x23
 1481 01a9 8420     		.uleb128 0x1004
 1482 01ab 0A       		.uleb128 0xa
 1483 01ac AD030000 		.4byte	.LASF24
 1484 01b0 03       		.byte	0x3
 1485 01b1 5613     		.2byte	0x1356
 1486 01b3 9C000000 		.4byte	0x9c
 1487 01b7 03       		.byte	0x3
 1488 01b8 23       		.byte	0x23
 1489 01b9 8820     		.uleb128 0x1008
 1490 01bb 0A       		.uleb128 0xa
 1491 01bc 62030000 		.4byte	.LASF25
 1492 01c0 03       		.byte	0x3
 1493 01c1 5713     		.2byte	0x1357
 1494 01c3 73000000 		.4byte	0x73
 1495 01c7 03       		.byte	0x3
 1496 01c8 23       		.byte	0x23
ARM GAS  /tmp/ccGhjqcS.s 			page 36


 1497 01c9 8C20     		.uleb128 0x100c
 1498 01cb 0A       		.uleb128 0xa
 1499 01cc 00000000 		.4byte	.LASF26
 1500 01d0 03       		.byte	0x3
 1501 01d1 5813     		.2byte	0x1358
 1502 01d3 73000000 		.4byte	0x73
 1503 01d7 03       		.byte	0x3
 1504 01d8 23       		.byte	0x23
 1505 01d9 9020     		.uleb128 0x1010
 1506 01db 0A       		.uleb128 0xa
 1507 01dc B8030000 		.4byte	.LASF27
 1508 01e0 03       		.byte	0x3
 1509 01e1 5913     		.2byte	0x1359
 1510 01e3 9C000000 		.4byte	0x9c
 1511 01e7 03       		.byte	0x3
 1512 01e8 23       		.byte	0x23
 1513 01e9 9420     		.uleb128 0x1014
 1514 01eb 0A       		.uleb128 0xa
 1515 01ec 01020000 		.4byte	.LASF28
 1516 01f0 03       		.byte	0x3
 1517 01f1 5A13     		.2byte	0x135a
 1518 01f3 73000000 		.4byte	0x73
 1519 01f7 03       		.byte	0x3
 1520 01f8 23       		.byte	0x23
 1521 01f9 9820     		.uleb128 0x1018
 1522 01fb 0A       		.uleb128 0xa
 1523 01fc C3030000 		.4byte	.LASF29
 1524 0200 03       		.byte	0x3
 1525 0201 5B13     		.2byte	0x135b
 1526 0203 BC000000 		.4byte	0xbc
 1527 0207 03       		.byte	0x3
 1528 0208 23       		.byte	0x23
 1529 0209 9C20     		.uleb128 0x101c
 1530 020b 0A       		.uleb128 0xa
 1531 020c 4F000000 		.4byte	.LASF30
 1532 0210 03       		.byte	0x3
 1533 0211 5C13     		.2byte	0x135c
 1534 0213 73000000 		.4byte	0x73
 1535 0217 03       		.byte	0x3
 1536 0218 23       		.byte	0x23
 1537 0219 A420     		.uleb128 0x1024
 1538 021b 0A       		.uleb128 0xa
 1539 021c 17050000 		.4byte	.LASF31
 1540 0220 03       		.byte	0x3
 1541 0221 5D13     		.2byte	0x135d
 1542 0223 2D030000 		.4byte	0x32d
 1543 0227 03       		.byte	0x3
 1544 0228 23       		.byte	0x23
 1545 0229 A820     		.uleb128 0x1028
 1546 022b 0A       		.uleb128 0xa
 1547 022c 8E010000 		.4byte	.LASF32
 1548 0230 03       		.byte	0x3
 1549 0231 5E13     		.2byte	0x135e
 1550 0233 73000000 		.4byte	0x73
 1551 0237 03       		.byte	0x3
 1552 0238 23       		.byte	0x23
 1553 0239 B420     		.uleb128 0x1034
ARM GAS  /tmp/ccGhjqcS.s 			page 37


 1554 023b 0A       		.uleb128 0xa
 1555 023c 94010000 		.4byte	.LASF33
 1556 0240 03       		.byte	0x3
 1557 0241 5F13     		.2byte	0x135f
 1558 0243 73000000 		.4byte	0x73
 1559 0247 03       		.byte	0x3
 1560 0248 23       		.byte	0x23
 1561 0249 B820     		.uleb128 0x1038
 1562 024b 0A       		.uleb128 0xa
 1563 024c 9A010000 		.4byte	.LASF34
 1564 0250 03       		.byte	0x3
 1565 0251 6013     		.2byte	0x1360
 1566 0253 73000000 		.4byte	0x73
 1567 0257 03       		.byte	0x3
 1568 0258 23       		.byte	0x23
 1569 0259 BC20     		.uleb128 0x103c
 1570 025b 0A       		.uleb128 0xa
 1571 025c A0010000 		.4byte	.LASF35
 1572 0260 03       		.byte	0x3
 1573 0261 6113     		.2byte	0x1361
 1574 0263 73000000 		.4byte	0x73
 1575 0267 03       		.byte	0x3
 1576 0268 23       		.byte	0x23
 1577 0269 C020     		.uleb128 0x1040
 1578 026b 0A       		.uleb128 0xa
 1579 026c 07020000 		.4byte	.LASF36
 1580 0270 03       		.byte	0x3
 1581 0271 6213     		.2byte	0x1362
 1582 0273 73000000 		.4byte	0x73
 1583 0277 03       		.byte	0x3
 1584 0278 23       		.byte	0x23
 1585 0279 C420     		.uleb128 0x1044
 1586 027b 0A       		.uleb128 0xa
 1587 027c E1030000 		.4byte	.LASF37
 1588 0280 03       		.byte	0x3
 1589 0281 6313     		.2byte	0x1363
 1590 0283 9C000000 		.4byte	0x9c
 1591 0287 03       		.byte	0x3
 1592 0288 23       		.byte	0x23
 1593 0289 C820     		.uleb128 0x1048
 1594 028b 0A       		.uleb128 0xa
 1595 028c 06000000 		.4byte	.LASF38
 1596 0290 03       		.byte	0x3
 1597 0291 6413     		.2byte	0x1364
 1598 0293 73000000 		.4byte	0x73
 1599 0297 03       		.byte	0x3
 1600 0298 23       		.byte	0x23
 1601 0299 CC20     		.uleb128 0x104c
 1602 029b 0A       		.uleb128 0xa
 1603 029c 0C000000 		.4byte	.LASF39
 1604 02a0 03       		.byte	0x3
 1605 02a1 6513     		.2byte	0x1365
 1606 02a3 73000000 		.4byte	0x73
 1607 02a7 03       		.byte	0x3
 1608 02a8 23       		.byte	0x23
 1609 02a9 D020     		.uleb128 0x1050
 1610 02ab 0A       		.uleb128 0xa
ARM GAS  /tmp/ccGhjqcS.s 			page 38


 1611 02ac EC030000 		.4byte	.LASF40
 1612 02b0 03       		.byte	0x3
 1613 02b1 6613     		.2byte	0x1366
 1614 02b3 9C000000 		.4byte	0x9c
 1615 02b7 03       		.byte	0x3
 1616 02b8 23       		.byte	0x23
 1617 02b9 D420     		.uleb128 0x1054
 1618 02bb 0A       		.uleb128 0xa
 1619 02bc 79030000 		.4byte	.LASF41
 1620 02c0 03       		.byte	0x3
 1621 02c1 6713     		.2byte	0x1367
 1622 02c3 73000000 		.4byte	0x73
 1623 02c7 03       		.byte	0x3
 1624 02c8 23       		.byte	0x23
 1625 02c9 D820     		.uleb128 0x1058
 1626 02cb 0A       		.uleb128 0xa
 1627 02cc E8010000 		.4byte	.LASF42
 1628 02d0 03       		.byte	0x3
 1629 02d1 6813     		.2byte	0x1368
 1630 02d3 73000000 		.4byte	0x73
 1631 02d7 03       		.byte	0x3
 1632 02d8 23       		.byte	0x23
 1633 02d9 DC20     		.uleb128 0x105c
 1634 02db 0A       		.uleb128 0xa
 1635 02dc 3E030000 		.4byte	.LASF43
 1636 02e0 03       		.byte	0x3
 1637 02e1 6913     		.2byte	0x1369
 1638 02e3 73000000 		.4byte	0x73
 1639 02e7 03       		.byte	0x3
 1640 02e8 23       		.byte	0x23
 1641 02e9 E020     		.uleb128 0x1060
 1642 02eb 0A       		.uleb128 0xa
 1643 02ec B9010000 		.4byte	.LASF44
 1644 02f0 03       		.byte	0x3
 1645 02f1 6A13     		.2byte	0x136a
 1646 02f3 CC000000 		.4byte	0xcc
 1647 02f7 03       		.byte	0x3
 1648 02f8 23       		.byte	0x23
 1649 02f9 E420     		.uleb128 0x1064
 1650 02fb 0A       		.uleb128 0xa
 1651 02fc 1D020000 		.4byte	.LASF45
 1652 0300 03       		.byte	0x3
 1653 0301 6B13     		.2byte	0x136b
 1654 0303 73000000 		.4byte	0x73
 1655 0307 03       		.byte	0x3
 1656 0308 23       		.byte	0x23
 1657 0309 8022     		.uleb128 0x1100
 1658 030b 0A       		.uleb128 0xa
 1659 030c F7030000 		.4byte	.LASF46
 1660 0310 03       		.byte	0x3
 1661 0311 6C13     		.2byte	0x136c
 1662 0313 73000000 		.4byte	0x73
 1663 0317 03       		.byte	0x3
 1664 0318 23       		.byte	0x23
 1665 0319 8422     		.uleb128 0x1104
 1666 031b 00       		.byte	0
 1667 031c 06       		.uleb128 0x6
ARM GAS  /tmp/ccGhjqcS.s 			page 39


 1668 031d 4F000000 		.4byte	0x4f
 1669 0321 2D030000 		.4byte	0x32d
 1670 0325 0F       		.uleb128 0xf
 1671 0326 95000000 		.4byte	0x95
 1672 032a FB0F     		.2byte	0xffb
 1673 032c 00       		.byte	0
 1674 032d 06       		.uleb128 0x6
 1675 032e 4F000000 		.4byte	0x4f
 1676 0332 3D030000 		.4byte	0x33d
 1677 0336 07       		.uleb128 0x7
 1678 0337 95000000 		.4byte	0x95
 1679 033b 0B       		.byte	0xb
 1680 033c 00       		.byte	0
 1681 033d 0B       		.uleb128 0xb
 1682 033e 54030000 		.4byte	.LASF47
 1683 0342 03       		.byte	0x3
 1684 0343 6D13     		.2byte	0x136d
 1685 0345 49030000 		.4byte	0x349
 1686 0349 0C       		.uleb128 0xc
 1687 034a 04       		.byte	0x4
 1688 034b 4F030000 		.4byte	0x34f
 1689 034f 0D       		.uleb128 0xd
 1690 0350 60010000 		.4byte	0x160
 1691 0354 08       		.uleb128 0x8
 1692 0355 43000000 		.4byte	.LASF48
 1693 0359 09       		.byte	0x9
 1694 035a 03       		.byte	0x3
 1695 035b 7C17     		.2byte	0x177c
 1696 035d E1030000 		.4byte	0x3e1
 1697 0361 09       		.uleb128 0x9
 1698 0362 42444800 		.ascii	"BDH\000"
 1699 0366 03       		.byte	0x3
 1700 0367 7D17     		.2byte	0x177d
 1701 0369 4F000000 		.4byte	0x4f
 1702 036d 02       		.byte	0x2
 1703 036e 23       		.byte	0x23
 1704 036f 00       		.uleb128 0
 1705 0370 09       		.uleb128 0x9
 1706 0371 42444C00 		.ascii	"BDL\000"
 1707 0375 03       		.byte	0x3
 1708 0376 7E17     		.2byte	0x177e
 1709 0378 4F000000 		.4byte	0x4f
 1710 037c 02       		.byte	0x2
 1711 037d 23       		.byte	0x23
 1712 037e 01       		.uleb128 0x1
 1713 037f 09       		.uleb128 0x9
 1714 0380 433100   		.ascii	"C1\000"
 1715 0383 03       		.byte	0x3
 1716 0384 7F17     		.2byte	0x177f
 1717 0386 4F000000 		.4byte	0x4f
 1718 038a 02       		.byte	0x2
 1719 038b 23       		.byte	0x23
 1720 038c 02       		.uleb128 0x2
 1721 038d 09       		.uleb128 0x9
 1722 038e 433200   		.ascii	"C2\000"
 1723 0391 03       		.byte	0x3
 1724 0392 8017     		.2byte	0x1780
ARM GAS  /tmp/ccGhjqcS.s 			page 40


 1725 0394 4F000000 		.4byte	0x4f
 1726 0398 02       		.byte	0x2
 1727 0399 23       		.byte	0x23
 1728 039a 03       		.uleb128 0x3
 1729 039b 09       		.uleb128 0x9
 1730 039c 533100   		.ascii	"S1\000"
 1731 039f 03       		.byte	0x3
 1732 03a0 8117     		.2byte	0x1781
 1733 03a2 4F000000 		.4byte	0x4f
 1734 03a6 02       		.byte	0x2
 1735 03a7 23       		.byte	0x23
 1736 03a8 04       		.uleb128 0x4
 1737 03a9 09       		.uleb128 0x9
 1738 03aa 533200   		.ascii	"S2\000"
 1739 03ad 03       		.byte	0x3
 1740 03ae 8217     		.2byte	0x1782
 1741 03b0 4F000000 		.4byte	0x4f
 1742 03b4 02       		.byte	0x2
 1743 03b5 23       		.byte	0x23
 1744 03b6 05       		.uleb128 0x5
 1745 03b7 09       		.uleb128 0x9
 1746 03b8 433300   		.ascii	"C3\000"
 1747 03bb 03       		.byte	0x3
 1748 03bc 8317     		.2byte	0x1783
 1749 03be 4F000000 		.4byte	0x4f
 1750 03c2 02       		.byte	0x2
 1751 03c3 23       		.byte	0x23
 1752 03c4 06       		.uleb128 0x6
 1753 03c5 09       		.uleb128 0x9
 1754 03c6 4400     		.ascii	"D\000"
 1755 03c8 03       		.byte	0x3
 1756 03c9 8417     		.2byte	0x1784
 1757 03cb 4F000000 		.4byte	0x4f
 1758 03cf 02       		.byte	0x2
 1759 03d0 23       		.byte	0x23
 1760 03d1 07       		.uleb128 0x7
 1761 03d2 09       		.uleb128 0x9
 1762 03d3 433400   		.ascii	"C4\000"
 1763 03d6 03       		.byte	0x3
 1764 03d7 8517     		.2byte	0x1785
 1765 03d9 4F000000 		.4byte	0x4f
 1766 03dd 02       		.byte	0x2
 1767 03de 23       		.byte	0x23
 1768 03df 08       		.uleb128 0x8
 1769 03e0 00       		.byte	0
 1770 03e1 0B       		.uleb128 0xb
 1771 03e2 B2000000 		.4byte	.LASF49
 1772 03e6 03       		.byte	0x3
 1773 03e7 8617     		.2byte	0x1786
 1774 03e9 ED030000 		.4byte	0x3ed
 1775 03ed 0C       		.uleb128 0xc
 1776 03ee 04       		.byte	0x4
 1777 03ef F3030000 		.4byte	0x3f3
 1778 03f3 0D       		.uleb128 0xd
 1779 03f4 54030000 		.4byte	0x354
 1780 03f8 08       		.uleb128 0x8
 1781 03f9 F4010000 		.4byte	.LASF50
ARM GAS  /tmp/ccGhjqcS.s 			page 41


 1782 03fd 0C       		.byte	0xc
 1783 03fe 03       		.byte	0x3
 1784 03ff 6418     		.2byte	0x1864
 1785 0401 B1040000 		.4byte	0x4b1
 1786 0405 09       		.uleb128 0x9
 1787 0406 42444800 		.ascii	"BDH\000"
 1788 040a 03       		.byte	0x3
 1789 040b 6518     		.2byte	0x1865
 1790 040d 4F000000 		.4byte	0x4f
 1791 0411 02       		.byte	0x2
 1792 0412 23       		.byte	0x23
 1793 0413 00       		.uleb128 0
 1794 0414 09       		.uleb128 0x9
 1795 0415 42444C00 		.ascii	"BDL\000"
 1796 0419 03       		.byte	0x3
 1797 041a 6618     		.2byte	0x1866
 1798 041c 4F000000 		.4byte	0x4f
 1799 0420 02       		.byte	0x2
 1800 0421 23       		.byte	0x23
 1801 0422 01       		.uleb128 0x1
 1802 0423 09       		.uleb128 0x9
 1803 0424 433100   		.ascii	"C1\000"
 1804 0427 03       		.byte	0x3
 1805 0428 6718     		.2byte	0x1867
 1806 042a 4F000000 		.4byte	0x4f
 1807 042e 02       		.byte	0x2
 1808 042f 23       		.byte	0x23
 1809 0430 02       		.uleb128 0x2
 1810 0431 09       		.uleb128 0x9
 1811 0432 433200   		.ascii	"C2\000"
 1812 0435 03       		.byte	0x3
 1813 0436 6818     		.2byte	0x1868
 1814 0438 4F000000 		.4byte	0x4f
 1815 043c 02       		.byte	0x2
 1816 043d 23       		.byte	0x23
 1817 043e 03       		.uleb128 0x3
 1818 043f 09       		.uleb128 0x9
 1819 0440 533100   		.ascii	"S1\000"
 1820 0443 03       		.byte	0x3
 1821 0444 6918     		.2byte	0x1869
 1822 0446 4F000000 		.4byte	0x4f
 1823 044a 02       		.byte	0x2
 1824 044b 23       		.byte	0x23
 1825 044c 04       		.uleb128 0x4
 1826 044d 09       		.uleb128 0x9
 1827 044e 533200   		.ascii	"S2\000"
 1828 0451 03       		.byte	0x3
 1829 0452 6A18     		.2byte	0x186a
 1830 0454 4F000000 		.4byte	0x4f
 1831 0458 02       		.byte	0x2
 1832 0459 23       		.byte	0x23
 1833 045a 05       		.uleb128 0x5
 1834 045b 09       		.uleb128 0x9
 1835 045c 433300   		.ascii	"C3\000"
 1836 045f 03       		.byte	0x3
 1837 0460 6B18     		.2byte	0x186b
 1838 0462 4F000000 		.4byte	0x4f
ARM GAS  /tmp/ccGhjqcS.s 			page 42


 1839 0466 02       		.byte	0x2
 1840 0467 23       		.byte	0x23
 1841 0468 06       		.uleb128 0x6
 1842 0469 09       		.uleb128 0x9
 1843 046a 4400     		.ascii	"D\000"
 1844 046c 03       		.byte	0x3
 1845 046d 6C18     		.2byte	0x186c
 1846 046f 4F000000 		.4byte	0x4f
 1847 0473 02       		.byte	0x2
 1848 0474 23       		.byte	0x23
 1849 0475 07       		.uleb128 0x7
 1850 0476 09       		.uleb128 0x9
 1851 0477 4D413100 		.ascii	"MA1\000"
 1852 047b 03       		.byte	0x3
 1853 047c 6D18     		.2byte	0x186d
 1854 047e 4F000000 		.4byte	0x4f
 1855 0482 02       		.byte	0x2
 1856 0483 23       		.byte	0x23
 1857 0484 08       		.uleb128 0x8
 1858 0485 09       		.uleb128 0x9
 1859 0486 4D413200 		.ascii	"MA2\000"
 1860 048a 03       		.byte	0x3
 1861 048b 6E18     		.2byte	0x186e
 1862 048d 4F000000 		.4byte	0x4f
 1863 0491 02       		.byte	0x2
 1864 0492 23       		.byte	0x23
 1865 0493 09       		.uleb128 0x9
 1866 0494 09       		.uleb128 0x9
 1867 0495 433400   		.ascii	"C4\000"
 1868 0498 03       		.byte	0x3
 1869 0499 6F18     		.2byte	0x186f
 1870 049b 4F000000 		.4byte	0x4f
 1871 049f 02       		.byte	0x2
 1872 04a0 23       		.byte	0x23
 1873 04a1 0A       		.uleb128 0xa
 1874 04a2 09       		.uleb128 0x9
 1875 04a3 433500   		.ascii	"C5\000"
 1876 04a6 03       		.byte	0x3
 1877 04a7 7018     		.2byte	0x1870
 1878 04a9 4F000000 		.4byte	0x4f
 1879 04ad 02       		.byte	0x2
 1880 04ae 23       		.byte	0x23
 1881 04af 0B       		.uleb128 0xb
 1882 04b0 00       		.byte	0
 1883 04b1 0B       		.uleb128 0xb
 1884 04b2 67020000 		.4byte	.LASF51
 1885 04b6 03       		.byte	0x3
 1886 04b7 7118     		.2byte	0x1871
 1887 04b9 BD040000 		.4byte	0x4bd
 1888 04bd 0C       		.uleb128 0xc
 1889 04be 04       		.byte	0x4
 1890 04bf C3040000 		.4byte	0x4c3
 1891 04c3 0D       		.uleb128 0xd
 1892 04c4 F8030000 		.4byte	0x3f8
 1893 04c8 10       		.uleb128 0x10
 1894 04c9 01       		.byte	0x1
 1895 04ca 97030000 		.4byte	.LASF52
ARM GAS  /tmp/ccGhjqcS.s 			page 43


 1896 04ce 01       		.byte	0x1
 1897 04cf 6C       		.byte	0x6c
 1898 04d0 01       		.byte	0x1
 1899 04d1 00000000 		.4byte	.LFB1
 1900 04d5 E0000000 		.4byte	.LFE1
 1901 04d9 00000000 		.4byte	.LLST0
 1902 04dd 01       		.byte	0x1
 1903 04de 33050000 		.4byte	0x533
 1904 04e2 11       		.uleb128 0x11
 1905 04e3 D4010000 		.4byte	.LASF54
 1906 04e7 01       		.byte	0x1
 1907 04e8 6C       		.byte	0x6c
 1908 04e9 73000000 		.4byte	0x73
 1909 04ed 20000000 		.4byte	.LLST1
 1910 04f1 12       		.uleb128 0x12
 1911 04f2 06000000 		.4byte	.LBB2
 1912 04f6 B8000000 		.4byte	.LBE2
 1913 04fa 13       		.uleb128 0x13
 1914 04fb 2C040000 		.4byte	.LASF55
 1915 04ff 01       		.byte	0x1
 1916 0500 70       		.byte	0x70
 1917 0501 61000000 		.4byte	0x61
 1918 0505 4C000000 		.4byte	.LLST2
 1919 0509 14       		.uleb128 0x14
 1920 050a 3C000000 		.4byte	.LVL2
 1921 050e 850A0000 		.4byte	0xa85
 1922 0512 22050000 		.4byte	0x522
 1923 0516 15       		.uleb128 0x15
 1924 0517 01       		.byte	0x1
 1925 0518 51       		.byte	0x51
 1926 0519 02       		.byte	0x2
 1927 051a 09       		.byte	0x9
 1928 051b 80       		.byte	0x80
 1929 051c 15       		.uleb128 0x15
 1930 051d 01       		.byte	0x1
 1931 051e 50       		.byte	0x50
 1932 051f 01       		.byte	0x1
 1933 0520 3C       		.byte	0x3c
 1934 0521 00       		.byte	0
 1935 0522 16       		.uleb128 0x16
 1936 0523 42000000 		.4byte	.LVL3
 1937 0527 9E0A0000 		.4byte	0xa9e
 1938 052b 15       		.uleb128 0x15
 1939 052c 01       		.byte	0x1
 1940 052d 50       		.byte	0x50
 1941 052e 01       		.byte	0x1
 1942 052f 3C       		.byte	0x3c
 1943 0530 00       		.byte	0
 1944 0531 00       		.byte	0
 1945 0532 00       		.byte	0
 1946 0533 10       		.uleb128 0x10
 1947 0534 01       		.byte	0x1
 1948 0535 DD010000 		.4byte	.LASF53
 1949 0539 01       		.byte	0x1
 1950 053a A4       		.byte	0xa4
 1951 053b 01       		.byte	0x1
 1952 053c E0000000 		.4byte	.LFB2
ARM GAS  /tmp/ccGhjqcS.s 			page 44


 1953 0540 60010000 		.4byte	.LFE2
 1954 0544 5F000000 		.4byte	.LLST3
 1955 0548 01       		.byte	0x1
 1956 0549 9E050000 		.4byte	0x59e
 1957 054d 11       		.uleb128 0x11
 1958 054e D4010000 		.4byte	.LASF54
 1959 0552 01       		.byte	0x1
 1960 0553 A4       		.byte	0xa4
 1961 0554 73000000 		.4byte	0x73
 1962 0558 7F000000 		.4byte	.LLST4
 1963 055c 12       		.uleb128 0x12
 1964 055d E6000000 		.4byte	.LBB3
 1965 0561 46010000 		.4byte	.LBE3
 1966 0565 13       		.uleb128 0x13
 1967 0566 2C040000 		.4byte	.LASF55
 1968 056a 01       		.byte	0x1
 1969 056b A8       		.byte	0xa8
 1970 056c 61000000 		.4byte	0x61
 1971 0570 AB000000 		.4byte	.LLST5
 1972 0574 14       		.uleb128 0x14
 1973 0575 0E010000 		.4byte	.LVL9
 1974 0579 850A0000 		.4byte	0xa85
 1975 057d 8D050000 		.4byte	0x58d
 1976 0581 15       		.uleb128 0x15
 1977 0582 01       		.byte	0x1
 1978 0583 51       		.byte	0x51
 1979 0584 02       		.byte	0x2
 1980 0585 09       		.byte	0x9
 1981 0586 80       		.byte	0x80
 1982 0587 15       		.uleb128 0x15
 1983 0588 01       		.byte	0x1
 1984 0589 50       		.byte	0x50
 1985 058a 01       		.byte	0x1
 1986 058b 3D       		.byte	0x3d
 1987 058c 00       		.byte	0
 1988 058d 16       		.uleb128 0x16
 1989 058e 14010000 		.4byte	.LVL10
 1990 0592 9E0A0000 		.4byte	0xa9e
 1991 0596 15       		.uleb128 0x15
 1992 0597 01       		.byte	0x1
 1993 0598 50       		.byte	0x50
 1994 0599 01       		.byte	0x1
 1995 059a 3D       		.byte	0x3d
 1996 059b 00       		.byte	0
 1997 059c 00       		.byte	0
 1998 059d 00       		.byte	0
 1999 059e 10       		.uleb128 0x10
 2000 059f 01       		.byte	0x1
 2001 05a0 EE040000 		.4byte	.LASF56
 2002 05a4 01       		.byte	0x1
 2003 05a5 D2       		.byte	0xd2
 2004 05a6 01       		.byte	0x1
 2005 05a7 60010000 		.4byte	.LFB3
 2006 05ab E0010000 		.4byte	.LFE3
 2007 05af BE000000 		.4byte	.LLST6
 2008 05b3 01       		.byte	0x1
 2009 05b4 09060000 		.4byte	0x609
ARM GAS  /tmp/ccGhjqcS.s 			page 45


 2010 05b8 11       		.uleb128 0x11
 2011 05b9 D4010000 		.4byte	.LASF54
 2012 05bd 01       		.byte	0x1
 2013 05be D2       		.byte	0xd2
 2014 05bf 73000000 		.4byte	0x73
 2015 05c3 DE000000 		.4byte	.LLST7
 2016 05c7 12       		.uleb128 0x12
 2017 05c8 66010000 		.4byte	.LBB4
 2018 05cc C6010000 		.4byte	.LBE4
 2019 05d0 13       		.uleb128 0x13
 2020 05d1 2C040000 		.4byte	.LASF55
 2021 05d5 01       		.byte	0x1
 2022 05d6 D6       		.byte	0xd6
 2023 05d7 61000000 		.4byte	0x61
 2024 05db 0A010000 		.4byte	.LLST8
 2025 05df 14       		.uleb128 0x14
 2026 05e0 8E010000 		.4byte	.LVL16
 2027 05e4 850A0000 		.4byte	0xa85
 2028 05e8 F8050000 		.4byte	0x5f8
 2029 05ec 15       		.uleb128 0x15
 2030 05ed 01       		.byte	0x1
 2031 05ee 51       		.byte	0x51
 2032 05ef 02       		.byte	0x2
 2033 05f0 09       		.byte	0x9
 2034 05f1 80       		.byte	0x80
 2035 05f2 15       		.uleb128 0x15
 2036 05f3 01       		.byte	0x1
 2037 05f4 50       		.byte	0x50
 2038 05f5 01       		.byte	0x1
 2039 05f6 3E       		.byte	0x3e
 2040 05f7 00       		.byte	0
 2041 05f8 16       		.uleb128 0x16
 2042 05f9 94010000 		.4byte	.LVL17
 2043 05fd 9E0A0000 		.4byte	0xa9e
 2044 0601 15       		.uleb128 0x15
 2045 0602 01       		.byte	0x1
 2046 0603 50       		.byte	0x50
 2047 0604 01       		.byte	0x1
 2048 0605 3E       		.byte	0x3e
 2049 0606 00       		.byte	0
 2050 0607 00       		.byte	0
 2051 0608 00       		.byte	0
 2052 0609 17       		.uleb128 0x17
 2053 060a 01       		.byte	0x1
 2054 060b F9040000 		.4byte	.LASF57
 2055 060f 01       		.byte	0x1
 2056 0610 64       		.byte	0x64
 2057 0611 01       		.byte	0x1
 2058 0612 E0010000 		.4byte	.LFB0
 2059 0616 F8010000 		.4byte	.LFE0
 2060 061a 1D010000 		.4byte	.LLST9
 2061 061e 01       		.byte	0x1
 2062 061f 8A060000 		.4byte	0x68a
 2063 0623 11       		.uleb128 0x11
 2064 0624 C1000000 		.4byte	.LASF58
 2065 0628 01       		.byte	0x1
 2066 0629 64       		.byte	0x64
ARM GAS  /tmp/ccGhjqcS.s 			page 46


 2067 062a 73000000 		.4byte	0x73
 2068 062e 3D010000 		.4byte	.LLST10
 2069 0632 11       		.uleb128 0x11
 2070 0633 DB020000 		.4byte	.LASF59
 2071 0637 01       		.byte	0x1
 2072 0638 64       		.byte	0x64
 2073 0639 73000000 		.4byte	0x73
 2074 063d 5E010000 		.4byte	.LLST11
 2075 0641 11       		.uleb128 0x11
 2076 0642 23000000 		.4byte	.LASF60
 2077 0646 01       		.byte	0x1
 2078 0647 64       		.byte	0x64
 2079 0648 73000000 		.4byte	0x73
 2080 064c 8A010000 		.4byte	.LLST12
 2081 0650 14       		.uleb128 0x14
 2082 0651 EA010000 		.4byte	.LVL22
 2083 0655 C8040000 		.4byte	0x4c8
 2084 0659 65060000 		.4byte	0x665
 2085 065d 15       		.uleb128 0x15
 2086 065e 01       		.byte	0x1
 2087 065f 50       		.byte	0x50
 2088 0660 03       		.byte	0x3
 2089 0661 F3       		.byte	0xf3
 2090 0662 01       		.uleb128 0x1
 2091 0663 50       		.byte	0x50
 2092 0664 00       		.byte	0
 2093 0665 14       		.uleb128 0x14
 2094 0666 F0010000 		.4byte	.LVL23
 2095 066a 33050000 		.4byte	0x533
 2096 066e 79060000 		.4byte	0x679
 2097 0672 15       		.uleb128 0x15
 2098 0673 01       		.byte	0x1
 2099 0674 50       		.byte	0x50
 2100 0675 02       		.byte	0x2
 2101 0676 75       		.byte	0x75
 2102 0677 00       		.sleb128 0
 2103 0678 00       		.byte	0
 2104 0679 16       		.uleb128 0x16
 2105 067a F6010000 		.4byte	.LVL24
 2106 067e 9E050000 		.4byte	0x59e
 2107 0682 15       		.uleb128 0x15
 2108 0683 01       		.byte	0x1
 2109 0684 50       		.byte	0x50
 2110 0685 02       		.byte	0x2
 2111 0686 74       		.byte	0x74
 2112 0687 00       		.sleb128 0
 2113 0688 00       		.byte	0
 2114 0689 00       		.byte	0
 2115 068a 18       		.uleb128 0x18
 2116 068b 01       		.byte	0x1
 2117 068c CE030000 		.4byte	.LASF61
 2118 0690 01       		.byte	0x1
 2119 0691 FF       		.byte	0xff
 2120 0692 01       		.byte	0x1
 2121 0693 F8010000 		.4byte	.LFB4
 2122 0697 04020000 		.4byte	.LFE4
 2123 069b 02       		.byte	0x2
ARM GAS  /tmp/ccGhjqcS.s 			page 47


 2124 069c 7D       		.byte	0x7d
 2125 069d 00       		.sleb128 0
 2126 069e 01       		.byte	0x1
 2127 069f B1060000 		.4byte	0x6b1
 2128 06a3 19       		.uleb128 0x19
 2129 06a4 9F000000 		.4byte	.LASF62
 2130 06a8 01       		.byte	0x1
 2131 06a9 FF       		.byte	0xff
 2132 06aa 93000000 		.4byte	0x93
 2133 06ae 01       		.byte	0x1
 2134 06af 50       		.byte	0x50
 2135 06b0 00       		.byte	0
 2136 06b1 1A       		.uleb128 0x1a
 2137 06b2 01       		.byte	0x1
 2138 06b3 87000000 		.4byte	.LASF63
 2139 06b7 01       		.byte	0x1
 2140 06b8 0401     		.2byte	0x104
 2141 06ba 01       		.byte	0x1
 2142 06bb 04020000 		.4byte	.LFB5
 2143 06bf 10020000 		.4byte	.LFE5
 2144 06c3 02       		.byte	0x2
 2145 06c4 7D       		.byte	0x7d
 2146 06c5 00       		.sleb128 0
 2147 06c6 01       		.byte	0x1
 2148 06c7 DA060000 		.4byte	0x6da
 2149 06cb 1B       		.uleb128 0x1b
 2150 06cc 2E020000 		.4byte	.LASF64
 2151 06d0 01       		.byte	0x1
 2152 06d1 0401     		.2byte	0x104
 2153 06d3 93000000 		.4byte	0x93
 2154 06d7 01       		.byte	0x1
 2155 06d8 50       		.byte	0x50
 2156 06d9 00       		.byte	0
 2157 06da 1A       		.uleb128 0x1a
 2158 06db 01       		.byte	0x1
 2159 06dc 2F050000 		.4byte	.LASF65
 2160 06e0 01       		.byte	0x1
 2161 06e1 0901     		.2byte	0x109
 2162 06e3 01       		.byte	0x1
 2163 06e4 10020000 		.4byte	.LFB6
 2164 06e8 1C020000 		.4byte	.LFE6
 2165 06ec 02       		.byte	0x2
 2166 06ed 7D       		.byte	0x7d
 2167 06ee 00       		.sleb128 0
 2168 06ef 01       		.byte	0x1
 2169 06f0 03070000 		.4byte	0x703
 2170 06f4 1B       		.uleb128 0x1b
 2171 06f5 72010000 		.4byte	.LASF66
 2172 06f9 01       		.byte	0x1
 2173 06fa 0901     		.2byte	0x109
 2174 06fc 93000000 		.4byte	0x93
 2175 0700 01       		.byte	0x1
 2176 0701 50       		.byte	0x50
 2177 0702 00       		.byte	0
 2178 0703 1A       		.uleb128 0x1a
 2179 0704 01       		.byte	0x1
 2180 0705 D0000000 		.4byte	.LASF67
ARM GAS  /tmp/ccGhjqcS.s 			page 48


 2181 0709 01       		.byte	0x1
 2182 070a 1F01     		.2byte	0x11f
 2183 070c 01       		.byte	0x1
 2184 070d 1C020000 		.4byte	.LFB8
 2185 0711 30020000 		.4byte	.LFE8
 2186 0715 02       		.byte	0x2
 2187 0716 7D       		.byte	0x7d
 2188 0717 00       		.sleb128 0
 2189 0718 01       		.byte	0x1
 2190 0719 2C070000 		.4byte	0x72c
 2191 071d 1B       		.uleb128 0x1b
 2192 071e 3E010000 		.4byte	.LASF68
 2193 0722 01       		.byte	0x1
 2194 0723 1F01     		.2byte	0x11f
 2195 0725 8C000000 		.4byte	0x8c
 2196 0729 01       		.byte	0x1
 2197 072a 50       		.byte	0x50
 2198 072b 00       		.byte	0
 2199 072c 1A       		.uleb128 0x1a
 2200 072d 01       		.byte	0x1
 2201 072e F4000000 		.4byte	.LASF69
 2202 0732 01       		.byte	0x1
 2203 0733 2601     		.2byte	0x126
 2204 0735 01       		.byte	0x1
 2205 0736 30020000 		.4byte	.LFB9
 2206 073a 44020000 		.4byte	.LFE9
 2207 073e 02       		.byte	0x2
 2208 073f 7D       		.byte	0x7d
 2209 0740 00       		.sleb128 0
 2210 0741 01       		.byte	0x1
 2211 0742 55070000 		.4byte	0x755
 2212 0746 1B       		.uleb128 0x1b
 2213 0747 3E010000 		.4byte	.LASF68
 2214 074b 01       		.byte	0x1
 2215 074c 2601     		.2byte	0x126
 2216 074e 8C000000 		.4byte	0x8c
 2217 0752 01       		.byte	0x1
 2218 0753 50       		.byte	0x50
 2219 0754 00       		.byte	0
 2220 0755 1A       		.uleb128 0x1a
 2221 0756 01       		.byte	0x1
 2222 0757 30010000 		.4byte	.LASF70
 2223 075b 01       		.byte	0x1
 2224 075c 2D01     		.2byte	0x12d
 2225 075e 01       		.byte	0x1
 2226 075f 44020000 		.4byte	.LFB10
 2227 0763 58020000 		.4byte	.LFE10
 2228 0767 02       		.byte	0x2
 2229 0768 7D       		.byte	0x7d
 2230 0769 00       		.sleb128 0
 2231 076a 01       		.byte	0x1
 2232 076b 7E070000 		.4byte	0x77e
 2233 076f 1B       		.uleb128 0x1b
 2234 0770 3E010000 		.4byte	.LASF68
 2235 0774 01       		.byte	0x1
 2236 0775 2D01     		.2byte	0x12d
 2237 0777 8C000000 		.4byte	0x8c
ARM GAS  /tmp/ccGhjqcS.s 			page 49


 2238 077b 01       		.byte	0x1
 2239 077c 50       		.byte	0x50
 2240 077d 00       		.byte	0
 2241 077e 1C       		.uleb128 0x1c
 2242 077f 01       		.byte	0x1
 2243 0780 22050000 		.4byte	.LASF71
 2244 0784 01       		.byte	0x1
 2245 0785 1101     		.2byte	0x111
 2246 0787 01       		.byte	0x1
 2247 0788 58020000 		.4byte	.LFB7
 2248 078c 80020000 		.4byte	.LFE7
 2249 0790 B6010000 		.4byte	.LLST13
 2250 0794 01       		.byte	0x1
 2251 0795 D5070000 		.4byte	0x7d5
 2252 0799 1D       		.uleb128 0x1d
 2253 079a 9A000000 		.4byte	.LASF72
 2254 079e 01       		.byte	0x1
 2255 079f 1101     		.2byte	0x111
 2256 07a1 4F000000 		.4byte	0x4f
 2257 07a5 D6010000 		.4byte	.LLST14
 2258 07a9 1D       		.uleb128 0x1d
 2259 07aa AF020000 		.4byte	.LASF73
 2260 07ae 01       		.byte	0x1
 2261 07af 1101     		.2byte	0x111
 2262 07b1 8C000000 		.4byte	0x8c
 2263 07b5 29020000 		.4byte	.LLST15
 2264 07b9 1E       		.uleb128 0x1e
 2265 07ba 6E020000 		.4byte	.LVL35
 2266 07be 03070000 		.4byte	0x703
 2267 07c2 1E       		.uleb128 0x1e
 2268 07c3 76020000 		.4byte	.LVL38
 2269 07c7 2C070000 		.4byte	0x72c
 2270 07cb 1E       		.uleb128 0x1e
 2271 07cc 7E020000 		.4byte	.LVL41
 2272 07d0 55070000 		.4byte	0x755
 2273 07d4 00       		.byte	0
 2274 07d5 1C       		.uleb128 0x1c
 2275 07d6 01       		.byte	0x1
 2276 07d7 63000000 		.4byte	.LASF74
 2277 07db 01       		.byte	0x1
 2278 07dc 4501     		.2byte	0x145
 2279 07de 01       		.byte	0x1
 2280 07df 80020000 		.4byte	.LFB12
 2281 07e3 98020000 		.4byte	.LFE12
 2282 07e7 7C020000 		.4byte	.LLST16
 2283 07eb 01       		.byte	0x1
 2284 07ec 0A080000 		.4byte	0x80a
 2285 07f0 1F       		.uleb128 0x1f
 2286 07f1 73747200 		.ascii	"str\000"
 2287 07f5 01       		.byte	0x1
 2288 07f6 4501     		.2byte	0x145
 2289 07f8 0A080000 		.4byte	0x80a
 2290 07fc 9C020000 		.4byte	.LLST17
 2291 0800 1E       		.uleb128 0x1e
 2292 0801 90020000 		.4byte	.LVL45
 2293 0805 03070000 		.4byte	0x703
 2294 0809 00       		.byte	0
ARM GAS  /tmp/ccGhjqcS.s 			page 50


 2295 080a 0C       		.uleb128 0xc
 2296 080b 04       		.byte	0x4
 2297 080c 10080000 		.4byte	0x810
 2298 0810 20       		.uleb128 0x20
 2299 0811 5A000000 		.4byte	0x5a
 2300 0815 1C       		.uleb128 0x1c
 2301 0816 01       		.byte	0x1
 2302 0817 CA020000 		.4byte	.LASF75
 2303 081b 01       		.byte	0x1
 2304 081c 4D01     		.2byte	0x14d
 2305 081e 01       		.byte	0x1
 2306 081f 98020000 		.4byte	.LFB13
 2307 0823 B0020000 		.4byte	.LFE13
 2308 0827 BA020000 		.4byte	.LLST18
 2309 082b 01       		.byte	0x1
 2310 082c 4A080000 		.4byte	0x84a
 2311 0830 1F       		.uleb128 0x1f
 2312 0831 73747200 		.ascii	"str\000"
 2313 0835 01       		.byte	0x1
 2314 0836 4D01     		.2byte	0x14d
 2315 0838 0A080000 		.4byte	0x80a
 2316 083c DA020000 		.4byte	.LLST19
 2317 0840 1E       		.uleb128 0x1e
 2318 0841 A8020000 		.4byte	.LVL50
 2319 0845 2C070000 		.4byte	0x72c
 2320 0849 00       		.byte	0
 2321 084a 1C       		.uleb128 0x1c
 2322 084b 01       		.byte	0x1
 2323 084c F8020000 		.4byte	.LASF76
 2324 0850 01       		.byte	0x1
 2325 0851 5501     		.2byte	0x155
 2326 0853 01       		.byte	0x1
 2327 0854 B0020000 		.4byte	.LFB14
 2328 0858 C8020000 		.4byte	.LFE14
 2329 085c F8020000 		.4byte	.LLST20
 2330 0860 01       		.byte	0x1
 2331 0861 7F080000 		.4byte	0x87f
 2332 0865 1F       		.uleb128 0x1f
 2333 0866 73747200 		.ascii	"str\000"
 2334 086a 01       		.byte	0x1
 2335 086b 5501     		.2byte	0x155
 2336 086d 0A080000 		.4byte	0x80a
 2337 0871 18030000 		.4byte	.LLST21
 2338 0875 1E       		.uleb128 0x1e
 2339 0876 C0020000 		.4byte	.LVL55
 2340 087a 55070000 		.4byte	0x755
 2341 087e 00       		.byte	0
 2342 087f 1C       		.uleb128 0x1c
 2343 0880 01       		.byte	0x1
 2344 0881 DE040000 		.4byte	.LASF77
 2345 0885 01       		.byte	0x1
 2346 0886 3601     		.2byte	0x136
 2347 0888 01       		.byte	0x1
 2348 0889 C8020000 		.4byte	.LFB11
 2349 088d F0020000 		.4byte	.LFE11
 2350 0891 36030000 		.4byte	.LLST22
 2351 0895 01       		.byte	0x1
ARM GAS  /tmp/ccGhjqcS.s 			page 51


 2352 0896 F6080000 		.4byte	0x8f6
 2353 089a 1D       		.uleb128 0x1d
 2354 089b 9A000000 		.4byte	.LASF72
 2355 089f 01       		.byte	0x1
 2356 08a0 3601     		.2byte	0x136
 2357 08a2 4F000000 		.4byte	0x4f
 2358 08a6 56030000 		.4byte	.LLST23
 2359 08aa 1F       		.uleb128 0x1f
 2360 08ab 73747200 		.ascii	"str\000"
 2361 08af 01       		.byte	0x1
 2362 08b0 3601     		.2byte	0x136
 2363 08b2 0A080000 		.4byte	0x80a
 2364 08b6 A9030000 		.4byte	.LLST24
 2365 08ba 14       		.uleb128 0x14
 2366 08bb DE020000 		.4byte	.LVL59
 2367 08bf D5070000 		.4byte	0x7d5
 2368 08c3 CF080000 		.4byte	0x8cf
 2369 08c7 15       		.uleb128 0x15
 2370 08c8 01       		.byte	0x1
 2371 08c9 50       		.byte	0x50
 2372 08ca 03       		.byte	0x3
 2373 08cb F3       		.byte	0xf3
 2374 08cc 01       		.uleb128 0x1
 2375 08cd 51       		.byte	0x51
 2376 08ce 00       		.byte	0
 2377 08cf 14       		.uleb128 0x14
 2378 08d0 E6020000 		.4byte	.LVL62
 2379 08d4 15080000 		.4byte	0x815
 2380 08d8 E4080000 		.4byte	0x8e4
 2381 08dc 15       		.uleb128 0x15
 2382 08dd 01       		.byte	0x1
 2383 08de 50       		.byte	0x50
 2384 08df 03       		.byte	0x3
 2385 08e0 F3       		.byte	0xf3
 2386 08e1 01       		.uleb128 0x1
 2387 08e2 51       		.byte	0x51
 2388 08e3 00       		.byte	0
 2389 08e4 16       		.uleb128 0x16
 2390 08e5 EE020000 		.4byte	.LVL65
 2391 08e9 4A080000 		.4byte	0x84a
 2392 08ed 15       		.uleb128 0x15
 2393 08ee 01       		.byte	0x1
 2394 08ef 50       		.byte	0x50
 2395 08f0 03       		.byte	0x3
 2396 08f1 F3       		.byte	0xf3
 2397 08f2 01       		.uleb128 0x1
 2398 08f3 51       		.byte	0x51
 2399 08f4 00       		.byte	0
 2400 08f5 00       		.byte	0
 2401 08f6 21       		.uleb128 0x21
 2402 08f7 01       		.byte	0x1
 2403 08f8 84020000 		.4byte	.LASF78
 2404 08fc 01       		.byte	0x1
 2405 08fd 6001     		.2byte	0x160
 2406 08ff 01       		.byte	0x1
 2407 0900 F0020000 		.4byte	.LFB15
 2408 0904 04030000 		.4byte	.LFE15
ARM GAS  /tmp/ccGhjqcS.s 			page 52


 2409 0908 02       		.byte	0x2
 2410 0909 7D       		.byte	0x7d
 2411 090a 00       		.sleb128 0
 2412 090b 01       		.byte	0x1
 2413 090c 21       		.uleb128 0x21
 2414 090d 01       		.byte	0x1
 2415 090e A6010000 		.4byte	.LASF79
 2416 0912 01       		.byte	0x1
 2417 0913 6501     		.2byte	0x165
 2418 0915 01       		.byte	0x1
 2419 0916 04030000 		.4byte	.LFB16
 2420 091a 18030000 		.4byte	.LFE16
 2421 091e 02       		.byte	0x2
 2422 091f 7D       		.byte	0x7d
 2423 0920 00       		.sleb128 0
 2424 0921 01       		.byte	0x1
 2425 0922 21       		.uleb128 0x21
 2426 0923 01       		.byte	0x1
 2427 0924 7F030000 		.4byte	.LASF80
 2428 0928 01       		.byte	0x1
 2429 0929 6A01     		.2byte	0x16a
 2430 092b 01       		.byte	0x1
 2431 092c 18030000 		.4byte	.LFB17
 2432 0930 2C030000 		.4byte	.LFE17
 2433 0934 02       		.byte	0x2
 2434 0935 7D       		.byte	0x7d
 2435 0936 00       		.sleb128 0
 2436 0937 01       		.byte	0x1
 2437 0938 21       		.uleb128 0x21
 2438 0939 01       		.byte	0x1
 2439 093a E6000000 		.4byte	.LASF81
 2440 093e 01       		.byte	0x1
 2441 093f 7001     		.2byte	0x170
 2442 0941 01       		.byte	0x1
 2443 0942 2C030000 		.4byte	.LFB18
 2444 0946 40030000 		.4byte	.LFE18
 2445 094a 02       		.byte	0x2
 2446 094b 7D       		.byte	0x7d
 2447 094c 00       		.sleb128 0
 2448 094d 01       		.byte	0x1
 2449 094e 21       		.uleb128 0x21
 2450 094f 01       		.byte	0x1
 2451 0950 22010000 		.4byte	.LASF82
 2452 0954 01       		.byte	0x1
 2453 0955 7501     		.2byte	0x175
 2454 0957 01       		.byte	0x1
 2455 0958 40030000 		.4byte	.LFB19
 2456 095c 54030000 		.4byte	.LFE19
 2457 0960 02       		.byte	0x2
 2458 0961 7D       		.byte	0x7d
 2459 0962 00       		.sleb128 0
 2460 0963 01       		.byte	0x1
 2461 0964 21       		.uleb128 0x21
 2462 0965 01       		.byte	0x1
 2463 0966 46010000 		.4byte	.LASF83
 2464 096a 01       		.byte	0x1
 2465 096b 7A01     		.2byte	0x17a
ARM GAS  /tmp/ccGhjqcS.s 			page 53


 2466 096d 01       		.byte	0x1
 2467 096e 54030000 		.4byte	.LFB20
 2468 0972 68030000 		.4byte	.LFE20
 2469 0976 02       		.byte	0x2
 2470 0977 7D       		.byte	0x7d
 2471 0978 00       		.sleb128 0
 2472 0979 01       		.byte	0x1
 2473 097a 22       		.uleb128 0x22
 2474 097b 01       		.byte	0x1
 2475 097c 32000000 		.4byte	.LASF84
 2476 0980 01       		.byte	0x1
 2477 0981 8201     		.2byte	0x182
 2478 0983 01       		.byte	0x1
 2479 0984 68030000 		.4byte	.LFB21
 2480 0988 B0030000 		.4byte	.LFE21
 2481 098c FC030000 		.4byte	.LLST25
 2482 0990 01       		.byte	0x1
 2483 0991 BC090000 		.4byte	0x9bc
 2484 0995 23       		.uleb128 0x23
 2485 0996 43030000 		.4byte	.LASF85
 2486 099a 01       		.byte	0x1
 2487 099b 8401     		.2byte	0x184
 2488 099d 61000000 		.4byte	0x61
 2489 09a1 1C040000 		.4byte	.LLST26
 2490 09a5 12       		.uleb128 0x12
 2491 09a6 96030000 		.4byte	.LBB5
 2492 09aa A6030000 		.4byte	.LBE5
 2493 09ae 24       		.uleb128 0x24
 2494 09af 62010000 		.4byte	.LASF88
 2495 09b3 01       		.byte	0x1
 2496 09b4 9201     		.2byte	0x192
 2497 09b6 4F000000 		.4byte	0x4f
 2498 09ba 00       		.byte	0
 2499 09bb 00       		.byte	0
 2500 09bc 22       		.uleb128 0x22
 2501 09bd 01       		.byte	0x1
 2502 09be 68030000 		.4byte	.LASF86
 2503 09c2 01       		.byte	0x1
 2504 09c3 A101     		.2byte	0x1a1
 2505 09c5 01       		.byte	0x1
 2506 09c6 B0030000 		.4byte	.LFB22
 2507 09ca F8030000 		.4byte	.LFE22
 2508 09ce 3F040000 		.4byte	.LLST27
 2509 09d2 01       		.byte	0x1
 2510 09d3 FE090000 		.4byte	0x9fe
 2511 09d7 23       		.uleb128 0x23
 2512 09d8 12000000 		.4byte	.LASF87
 2513 09dc 01       		.byte	0x1
 2514 09dd A301     		.2byte	0x1a3
 2515 09df 61000000 		.4byte	0x61
 2516 09e3 5F040000 		.4byte	.LLST28
 2517 09e7 12       		.uleb128 0x12
 2518 09e8 DE030000 		.4byte	.LBB6
 2519 09ec EE030000 		.4byte	.LBE6
 2520 09f0 24       		.uleb128 0x24
 2521 09f1 62010000 		.4byte	.LASF88
 2522 09f5 01       		.byte	0x1
ARM GAS  /tmp/ccGhjqcS.s 			page 54


 2523 09f6 B101     		.2byte	0x1b1
 2524 09f8 4F000000 		.4byte	0x4f
 2525 09fc 00       		.byte	0
 2526 09fd 00       		.byte	0
 2527 09fe 22       		.uleb128 0x22
 2528 09ff 01       		.byte	0x1
 2529 0a00 02010000 		.4byte	.LASF89
 2530 0a04 01       		.byte	0x1
 2531 0a05 BF01     		.2byte	0x1bf
 2532 0a07 01       		.byte	0x1
 2533 0a08 F8030000 		.4byte	.LFB23
 2534 0a0c 40040000 		.4byte	.LFE23
 2535 0a10 82040000 		.4byte	.LLST29
 2536 0a14 01       		.byte	0x1
 2537 0a15 400A0000 		.4byte	0xa40
 2538 0a19 23       		.uleb128 0x23
 2539 0a1a 27030000 		.4byte	.LASF90
 2540 0a1e 01       		.byte	0x1
 2541 0a1f C101     		.2byte	0x1c1
 2542 0a21 61000000 		.4byte	0x61
 2543 0a25 A2040000 		.4byte	.LLST30
 2544 0a29 12       		.uleb128 0x12
 2545 0a2a 26040000 		.4byte	.LBB7
 2546 0a2e 36040000 		.4byte	.LBE7
 2547 0a32 24       		.uleb128 0x24
 2548 0a33 62010000 		.4byte	.LASF88
 2549 0a37 01       		.byte	0x1
 2550 0a38 CF01     		.2byte	0x1cf
 2551 0a3a 4F000000 		.4byte	0x4f
 2552 0a3e 00       		.byte	0
 2553 0a3f 00       		.byte	0
 2554 0a40 25       		.uleb128 0x25
 2555 0a41 01       		.byte	0x1
 2556 0a42 4C0A0000 		.4byte	0xa4c
 2557 0a46 26       		.uleb128 0x26
 2558 0a47 8C000000 		.4byte	0x8c
 2559 0a4b 00       		.byte	0
 2560 0a4c 27       		.uleb128 0x27
 2561 0a4d 13010000 		.4byte	.LASF91
 2562 0a51 01       		.byte	0x1
 2563 0a52 5C       		.byte	0x5c
 2564 0a53 5D0A0000 		.4byte	0xa5d
 2565 0a57 05       		.byte	0x5
 2566 0a58 03       		.byte	0x3
 2567 0a59 00000000 		.4byte	UART0_callback
 2568 0a5d 0C       		.uleb128 0xc
 2569 0a5e 04       		.byte	0x4
 2570 0a5f 400A0000 		.4byte	0xa40
 2571 0a63 27       		.uleb128 0x27
 2572 0a64 18030000 		.4byte	.LASF92
 2573 0a68 01       		.byte	0x1
 2574 0a69 5D       		.byte	0x5d
 2575 0a6a 5D0A0000 		.4byte	0xa5d
 2576 0a6e 05       		.byte	0x5
 2577 0a6f 03       		.byte	0x3
 2578 0a70 04000000 		.4byte	UART1_callback
 2579 0a74 27       		.uleb128 0x27
ARM GAS  /tmp/ccGhjqcS.s 			page 55


 2580 0a75 54000000 		.4byte	.LASF93
 2581 0a79 01       		.byte	0x1
 2582 0a7a 5E       		.byte	0x5e
 2583 0a7b 5D0A0000 		.4byte	0xa5d
 2584 0a7f 05       		.byte	0x5
 2585 0a80 03       		.byte	0x3
 2586 0a81 08000000 		.4byte	UART2_callback
 2587 0a85 28       		.uleb128 0x28
 2588 0a86 01       		.byte	0x1
 2589 0a87 05050000 		.4byte	.LASF97
 2590 0a8b 04       		.byte	0x4
 2591 0a8c 5A       		.byte	0x5a
 2592 0a8d 01       		.byte	0x1
 2593 0a8e 01       		.byte	0x1
 2594 0a8f 9E0A0000 		.4byte	0xa9e
 2595 0a93 26       		.uleb128 0x26
 2596 0a94 73000000 		.4byte	0x73
 2597 0a98 26       		.uleb128 0x26
 2598 0a99 4F000000 		.4byte	0x4f
 2599 0a9d 00       		.byte	0
 2600 0a9e 29       		.uleb128 0x29
 2601 0a9f 01       		.byte	0x1
 2602 0aa0 C4010000 		.4byte	.LASF98
 2603 0aa4 04       		.byte	0x4
 2604 0aa5 52       		.byte	0x52
 2605 0aa6 01       		.byte	0x1
 2606 0aa7 01       		.byte	0x1
 2607 0aa8 26       		.uleb128 0x26
 2608 0aa9 73000000 		.4byte	0x73
 2609 0aad 00       		.byte	0
 2610 0aae 00       		.byte	0
 2611              		.section	.debug_abbrev,"",%progbits
 2612              	.Ldebug_abbrev0:
 2613 0000 01       		.uleb128 0x1
 2614 0001 11       		.uleb128 0x11
 2615 0002 01       		.byte	0x1
 2616 0003 25       		.uleb128 0x25
 2617 0004 0E       		.uleb128 0xe
 2618 0005 13       		.uleb128 0x13
 2619 0006 0B       		.uleb128 0xb
 2620 0007 03       		.uleb128 0x3
 2621 0008 0E       		.uleb128 0xe
 2622 0009 1B       		.uleb128 0x1b
 2623 000a 0E       		.uleb128 0xe
 2624 000b 11       		.uleb128 0x11
 2625 000c 01       		.uleb128 0x1
 2626 000d 12       		.uleb128 0x12
 2627 000e 01       		.uleb128 0x1
 2628 000f 10       		.uleb128 0x10
 2629 0010 06       		.uleb128 0x6
 2630 0011 00       		.byte	0
 2631 0012 00       		.byte	0
 2632 0013 02       		.uleb128 0x2
 2633 0014 24       		.uleb128 0x24
 2634 0015 00       		.byte	0
 2635 0016 0B       		.uleb128 0xb
 2636 0017 0B       		.uleb128 0xb
ARM GAS  /tmp/ccGhjqcS.s 			page 56


 2637 0018 3E       		.uleb128 0x3e
 2638 0019 0B       		.uleb128 0xb
 2639 001a 03       		.uleb128 0x3
 2640 001b 08       		.uleb128 0x8
 2641 001c 00       		.byte	0
 2642 001d 00       		.byte	0
 2643 001e 03       		.uleb128 0x3
 2644 001f 24       		.uleb128 0x24
 2645 0020 00       		.byte	0
 2646 0021 0B       		.uleb128 0xb
 2647 0022 0B       		.uleb128 0xb
 2648 0023 3E       		.uleb128 0x3e
 2649 0024 0B       		.uleb128 0xb
 2650 0025 03       		.uleb128 0x3
 2651 0026 0E       		.uleb128 0xe
 2652 0027 00       		.byte	0
 2653 0028 00       		.byte	0
 2654 0029 04       		.uleb128 0x4
 2655 002a 16       		.uleb128 0x16
 2656 002b 00       		.byte	0
 2657 002c 03       		.uleb128 0x3
 2658 002d 0E       		.uleb128 0xe
 2659 002e 3A       		.uleb128 0x3a
 2660 002f 0B       		.uleb128 0xb
 2661 0030 3B       		.uleb128 0x3b
 2662 0031 0B       		.uleb128 0xb
 2663 0032 49       		.uleb128 0x49
 2664 0033 13       		.uleb128 0x13
 2665 0034 00       		.byte	0
 2666 0035 00       		.byte	0
 2667 0036 05       		.uleb128 0x5
 2668 0037 0F       		.uleb128 0xf
 2669 0038 00       		.byte	0
 2670 0039 0B       		.uleb128 0xb
 2671 003a 0B       		.uleb128 0xb
 2672 003b 00       		.byte	0
 2673 003c 00       		.byte	0
 2674 003d 06       		.uleb128 0x6
 2675 003e 01       		.uleb128 0x1
 2676 003f 01       		.byte	0x1
 2677 0040 49       		.uleb128 0x49
 2678 0041 13       		.uleb128 0x13
 2679 0042 01       		.uleb128 0x1
 2680 0043 13       		.uleb128 0x13
 2681 0044 00       		.byte	0
 2682 0045 00       		.byte	0
 2683 0046 07       		.uleb128 0x7
 2684 0047 21       		.uleb128 0x21
 2685 0048 00       		.byte	0
 2686 0049 49       		.uleb128 0x49
 2687 004a 13       		.uleb128 0x13
 2688 004b 2F       		.uleb128 0x2f
 2689 004c 0B       		.uleb128 0xb
 2690 004d 00       		.byte	0
 2691 004e 00       		.byte	0
 2692 004f 08       		.uleb128 0x8
 2693 0050 13       		.uleb128 0x13
ARM GAS  /tmp/ccGhjqcS.s 			page 57


 2694 0051 01       		.byte	0x1
 2695 0052 03       		.uleb128 0x3
 2696 0053 0E       		.uleb128 0xe
 2697 0054 0B       		.uleb128 0xb
 2698 0055 0B       		.uleb128 0xb
 2699 0056 3A       		.uleb128 0x3a
 2700 0057 0B       		.uleb128 0xb
 2701 0058 3B       		.uleb128 0x3b
 2702 0059 05       		.uleb128 0x5
 2703 005a 01       		.uleb128 0x1
 2704 005b 13       		.uleb128 0x13
 2705 005c 00       		.byte	0
 2706 005d 00       		.byte	0
 2707 005e 09       		.uleb128 0x9
 2708 005f 0D       		.uleb128 0xd
 2709 0060 00       		.byte	0
 2710 0061 03       		.uleb128 0x3
 2711 0062 08       		.uleb128 0x8
 2712 0063 3A       		.uleb128 0x3a
 2713 0064 0B       		.uleb128 0xb
 2714 0065 3B       		.uleb128 0x3b
 2715 0066 05       		.uleb128 0x5
 2716 0067 49       		.uleb128 0x49
 2717 0068 13       		.uleb128 0x13
 2718 0069 38       		.uleb128 0x38
 2719 006a 0A       		.uleb128 0xa
 2720 006b 00       		.byte	0
 2721 006c 00       		.byte	0
 2722 006d 0A       		.uleb128 0xa
 2723 006e 0D       		.uleb128 0xd
 2724 006f 00       		.byte	0
 2725 0070 03       		.uleb128 0x3
 2726 0071 0E       		.uleb128 0xe
 2727 0072 3A       		.uleb128 0x3a
 2728 0073 0B       		.uleb128 0xb
 2729 0074 3B       		.uleb128 0x3b
 2730 0075 05       		.uleb128 0x5
 2731 0076 49       		.uleb128 0x49
 2732 0077 13       		.uleb128 0x13
 2733 0078 38       		.uleb128 0x38
 2734 0079 0A       		.uleb128 0xa
 2735 007a 00       		.byte	0
 2736 007b 00       		.byte	0
 2737 007c 0B       		.uleb128 0xb
 2738 007d 16       		.uleb128 0x16
 2739 007e 00       		.byte	0
 2740 007f 03       		.uleb128 0x3
 2741 0080 0E       		.uleb128 0xe
 2742 0081 3A       		.uleb128 0x3a
 2743 0082 0B       		.uleb128 0xb
 2744 0083 3B       		.uleb128 0x3b
 2745 0084 05       		.uleb128 0x5
 2746 0085 49       		.uleb128 0x49
 2747 0086 13       		.uleb128 0x13
 2748 0087 00       		.byte	0
 2749 0088 00       		.byte	0
 2750 0089 0C       		.uleb128 0xc
ARM GAS  /tmp/ccGhjqcS.s 			page 58


 2751 008a 0F       		.uleb128 0xf
 2752 008b 00       		.byte	0
 2753 008c 0B       		.uleb128 0xb
 2754 008d 0B       		.uleb128 0xb
 2755 008e 49       		.uleb128 0x49
 2756 008f 13       		.uleb128 0x13
 2757 0090 00       		.byte	0
 2758 0091 00       		.byte	0
 2759 0092 0D       		.uleb128 0xd
 2760 0093 35       		.uleb128 0x35
 2761 0094 00       		.byte	0
 2762 0095 49       		.uleb128 0x49
 2763 0096 13       		.uleb128 0x13
 2764 0097 00       		.byte	0
 2765 0098 00       		.byte	0
 2766 0099 0E       		.uleb128 0xe
 2767 009a 13       		.uleb128 0x13
 2768 009b 01       		.byte	0x1
 2769 009c 03       		.uleb128 0x3
 2770 009d 0E       		.uleb128 0xe
 2771 009e 0B       		.uleb128 0xb
 2772 009f 05       		.uleb128 0x5
 2773 00a0 3A       		.uleb128 0x3a
 2774 00a1 0B       		.uleb128 0xb
 2775 00a2 3B       		.uleb128 0x3b
 2776 00a3 05       		.uleb128 0x5
 2777 00a4 01       		.uleb128 0x1
 2778 00a5 13       		.uleb128 0x13
 2779 00a6 00       		.byte	0
 2780 00a7 00       		.byte	0
 2781 00a8 0F       		.uleb128 0xf
 2782 00a9 21       		.uleb128 0x21
 2783 00aa 00       		.byte	0
 2784 00ab 49       		.uleb128 0x49
 2785 00ac 13       		.uleb128 0x13
 2786 00ad 2F       		.uleb128 0x2f
 2787 00ae 05       		.uleb128 0x5
 2788 00af 00       		.byte	0
 2789 00b0 00       		.byte	0
 2790 00b1 10       		.uleb128 0x10
 2791 00b2 2E       		.uleb128 0x2e
 2792 00b3 01       		.byte	0x1
 2793 00b4 3F       		.uleb128 0x3f
 2794 00b5 0C       		.uleb128 0xc
 2795 00b6 03       		.uleb128 0x3
 2796 00b7 0E       		.uleb128 0xe
 2797 00b8 3A       		.uleb128 0x3a
 2798 00b9 0B       		.uleb128 0xb
 2799 00ba 3B       		.uleb128 0x3b
 2800 00bb 0B       		.uleb128 0xb
 2801 00bc 27       		.uleb128 0x27
 2802 00bd 0C       		.uleb128 0xc
 2803 00be 11       		.uleb128 0x11
 2804 00bf 01       		.uleb128 0x1
 2805 00c0 12       		.uleb128 0x12
 2806 00c1 01       		.uleb128 0x1
 2807 00c2 40       		.uleb128 0x40
ARM GAS  /tmp/ccGhjqcS.s 			page 59


 2808 00c3 06       		.uleb128 0x6
 2809 00c4 9642     		.uleb128 0x2116
 2810 00c6 0C       		.uleb128 0xc
 2811 00c7 01       		.uleb128 0x1
 2812 00c8 13       		.uleb128 0x13
 2813 00c9 00       		.byte	0
 2814 00ca 00       		.byte	0
 2815 00cb 11       		.uleb128 0x11
 2816 00cc 05       		.uleb128 0x5
 2817 00cd 00       		.byte	0
 2818 00ce 03       		.uleb128 0x3
 2819 00cf 0E       		.uleb128 0xe
 2820 00d0 3A       		.uleb128 0x3a
 2821 00d1 0B       		.uleb128 0xb
 2822 00d2 3B       		.uleb128 0x3b
 2823 00d3 0B       		.uleb128 0xb
 2824 00d4 49       		.uleb128 0x49
 2825 00d5 13       		.uleb128 0x13
 2826 00d6 02       		.uleb128 0x2
 2827 00d7 06       		.uleb128 0x6
 2828 00d8 00       		.byte	0
 2829 00d9 00       		.byte	0
 2830 00da 12       		.uleb128 0x12
 2831 00db 0B       		.uleb128 0xb
 2832 00dc 01       		.byte	0x1
 2833 00dd 11       		.uleb128 0x11
 2834 00de 01       		.uleb128 0x1
 2835 00df 12       		.uleb128 0x12
 2836 00e0 01       		.uleb128 0x1
 2837 00e1 00       		.byte	0
 2838 00e2 00       		.byte	0
 2839 00e3 13       		.uleb128 0x13
 2840 00e4 34       		.uleb128 0x34
 2841 00e5 00       		.byte	0
 2842 00e6 03       		.uleb128 0x3
 2843 00e7 0E       		.uleb128 0xe
 2844 00e8 3A       		.uleb128 0x3a
 2845 00e9 0B       		.uleb128 0xb
 2846 00ea 3B       		.uleb128 0x3b
 2847 00eb 0B       		.uleb128 0xb
 2848 00ec 49       		.uleb128 0x49
 2849 00ed 13       		.uleb128 0x13
 2850 00ee 02       		.uleb128 0x2
 2851 00ef 06       		.uleb128 0x6
 2852 00f0 00       		.byte	0
 2853 00f1 00       		.byte	0
 2854 00f2 14       		.uleb128 0x14
 2855 00f3 898201   		.uleb128 0x4109
 2856 00f6 01       		.byte	0x1
 2857 00f7 11       		.uleb128 0x11
 2858 00f8 01       		.uleb128 0x1
 2859 00f9 31       		.uleb128 0x31
 2860 00fa 13       		.uleb128 0x13
 2861 00fb 01       		.uleb128 0x1
 2862 00fc 13       		.uleb128 0x13
 2863 00fd 00       		.byte	0
 2864 00fe 00       		.byte	0
ARM GAS  /tmp/ccGhjqcS.s 			page 60


 2865 00ff 15       		.uleb128 0x15
 2866 0100 8A8201   		.uleb128 0x410a
 2867 0103 00       		.byte	0
 2868 0104 02       		.uleb128 0x2
 2869 0105 0A       		.uleb128 0xa
 2870 0106 9142     		.uleb128 0x2111
 2871 0108 0A       		.uleb128 0xa
 2872 0109 00       		.byte	0
 2873 010a 00       		.byte	0
 2874 010b 16       		.uleb128 0x16
 2875 010c 898201   		.uleb128 0x4109
 2876 010f 01       		.byte	0x1
 2877 0110 11       		.uleb128 0x11
 2878 0111 01       		.uleb128 0x1
 2879 0112 31       		.uleb128 0x31
 2880 0113 13       		.uleb128 0x13
 2881 0114 00       		.byte	0
 2882 0115 00       		.byte	0
 2883 0116 17       		.uleb128 0x17
 2884 0117 2E       		.uleb128 0x2e
 2885 0118 01       		.byte	0x1
 2886 0119 3F       		.uleb128 0x3f
 2887 011a 0C       		.uleb128 0xc
 2888 011b 03       		.uleb128 0x3
 2889 011c 0E       		.uleb128 0xe
 2890 011d 3A       		.uleb128 0x3a
 2891 011e 0B       		.uleb128 0xb
 2892 011f 3B       		.uleb128 0x3b
 2893 0120 0B       		.uleb128 0xb
 2894 0121 27       		.uleb128 0x27
 2895 0122 0C       		.uleb128 0xc
 2896 0123 11       		.uleb128 0x11
 2897 0124 01       		.uleb128 0x1
 2898 0125 12       		.uleb128 0x12
 2899 0126 01       		.uleb128 0x1
 2900 0127 40       		.uleb128 0x40
 2901 0128 06       		.uleb128 0x6
 2902 0129 9742     		.uleb128 0x2117
 2903 012b 0C       		.uleb128 0xc
 2904 012c 01       		.uleb128 0x1
 2905 012d 13       		.uleb128 0x13
 2906 012e 00       		.byte	0
 2907 012f 00       		.byte	0
 2908 0130 18       		.uleb128 0x18
 2909 0131 2E       		.uleb128 0x2e
 2910 0132 01       		.byte	0x1
 2911 0133 3F       		.uleb128 0x3f
 2912 0134 0C       		.uleb128 0xc
 2913 0135 03       		.uleb128 0x3
 2914 0136 0E       		.uleb128 0xe
 2915 0137 3A       		.uleb128 0x3a
 2916 0138 0B       		.uleb128 0xb
 2917 0139 3B       		.uleb128 0x3b
 2918 013a 0B       		.uleb128 0xb
 2919 013b 27       		.uleb128 0x27
 2920 013c 0C       		.uleb128 0xc
 2921 013d 11       		.uleb128 0x11
ARM GAS  /tmp/ccGhjqcS.s 			page 61


 2922 013e 01       		.uleb128 0x1
 2923 013f 12       		.uleb128 0x12
 2924 0140 01       		.uleb128 0x1
 2925 0141 40       		.uleb128 0x40
 2926 0142 0A       		.uleb128 0xa
 2927 0143 9742     		.uleb128 0x2117
 2928 0145 0C       		.uleb128 0xc
 2929 0146 01       		.uleb128 0x1
 2930 0147 13       		.uleb128 0x13
 2931 0148 00       		.byte	0
 2932 0149 00       		.byte	0
 2933 014a 19       		.uleb128 0x19
 2934 014b 05       		.uleb128 0x5
 2935 014c 00       		.byte	0
 2936 014d 03       		.uleb128 0x3
 2937 014e 0E       		.uleb128 0xe
 2938 014f 3A       		.uleb128 0x3a
 2939 0150 0B       		.uleb128 0xb
 2940 0151 3B       		.uleb128 0x3b
 2941 0152 0B       		.uleb128 0xb
 2942 0153 49       		.uleb128 0x49
 2943 0154 13       		.uleb128 0x13
 2944 0155 02       		.uleb128 0x2
 2945 0156 0A       		.uleb128 0xa
 2946 0157 00       		.byte	0
 2947 0158 00       		.byte	0
 2948 0159 1A       		.uleb128 0x1a
 2949 015a 2E       		.uleb128 0x2e
 2950 015b 01       		.byte	0x1
 2951 015c 3F       		.uleb128 0x3f
 2952 015d 0C       		.uleb128 0xc
 2953 015e 03       		.uleb128 0x3
 2954 015f 0E       		.uleb128 0xe
 2955 0160 3A       		.uleb128 0x3a
 2956 0161 0B       		.uleb128 0xb
 2957 0162 3B       		.uleb128 0x3b
 2958 0163 05       		.uleb128 0x5
 2959 0164 27       		.uleb128 0x27
 2960 0165 0C       		.uleb128 0xc
 2961 0166 11       		.uleb128 0x11
 2962 0167 01       		.uleb128 0x1
 2963 0168 12       		.uleb128 0x12
 2964 0169 01       		.uleb128 0x1
 2965 016a 40       		.uleb128 0x40
 2966 016b 0A       		.uleb128 0xa
 2967 016c 9742     		.uleb128 0x2117
 2968 016e 0C       		.uleb128 0xc
 2969 016f 01       		.uleb128 0x1
 2970 0170 13       		.uleb128 0x13
 2971 0171 00       		.byte	0
 2972 0172 00       		.byte	0
 2973 0173 1B       		.uleb128 0x1b
 2974 0174 05       		.uleb128 0x5
 2975 0175 00       		.byte	0
 2976 0176 03       		.uleb128 0x3
 2977 0177 0E       		.uleb128 0xe
 2978 0178 3A       		.uleb128 0x3a
ARM GAS  /tmp/ccGhjqcS.s 			page 62


 2979 0179 0B       		.uleb128 0xb
 2980 017a 3B       		.uleb128 0x3b
 2981 017b 05       		.uleb128 0x5
 2982 017c 49       		.uleb128 0x49
 2983 017d 13       		.uleb128 0x13
 2984 017e 02       		.uleb128 0x2
 2985 017f 0A       		.uleb128 0xa
 2986 0180 00       		.byte	0
 2987 0181 00       		.byte	0
 2988 0182 1C       		.uleb128 0x1c
 2989 0183 2E       		.uleb128 0x2e
 2990 0184 01       		.byte	0x1
 2991 0185 3F       		.uleb128 0x3f
 2992 0186 0C       		.uleb128 0xc
 2993 0187 03       		.uleb128 0x3
 2994 0188 0E       		.uleb128 0xe
 2995 0189 3A       		.uleb128 0x3a
 2996 018a 0B       		.uleb128 0xb
 2997 018b 3B       		.uleb128 0x3b
 2998 018c 05       		.uleb128 0x5
 2999 018d 27       		.uleb128 0x27
 3000 018e 0C       		.uleb128 0xc
 3001 018f 11       		.uleb128 0x11
 3002 0190 01       		.uleb128 0x1
 3003 0191 12       		.uleb128 0x12
 3004 0192 01       		.uleb128 0x1
 3005 0193 40       		.uleb128 0x40
 3006 0194 06       		.uleb128 0x6
 3007 0195 9742     		.uleb128 0x2117
 3008 0197 0C       		.uleb128 0xc
 3009 0198 01       		.uleb128 0x1
 3010 0199 13       		.uleb128 0x13
 3011 019a 00       		.byte	0
 3012 019b 00       		.byte	0
 3013 019c 1D       		.uleb128 0x1d
 3014 019d 05       		.uleb128 0x5
 3015 019e 00       		.byte	0
 3016 019f 03       		.uleb128 0x3
 3017 01a0 0E       		.uleb128 0xe
 3018 01a1 3A       		.uleb128 0x3a
 3019 01a2 0B       		.uleb128 0xb
 3020 01a3 3B       		.uleb128 0x3b
 3021 01a4 05       		.uleb128 0x5
 3022 01a5 49       		.uleb128 0x49
 3023 01a6 13       		.uleb128 0x13
 3024 01a7 02       		.uleb128 0x2
 3025 01a8 06       		.uleb128 0x6
 3026 01a9 00       		.byte	0
 3027 01aa 00       		.byte	0
 3028 01ab 1E       		.uleb128 0x1e
 3029 01ac 898201   		.uleb128 0x4109
 3030 01af 00       		.byte	0
 3031 01b0 11       		.uleb128 0x11
 3032 01b1 01       		.uleb128 0x1
 3033 01b2 31       		.uleb128 0x31
 3034 01b3 13       		.uleb128 0x13
 3035 01b4 00       		.byte	0
ARM GAS  /tmp/ccGhjqcS.s 			page 63


 3036 01b5 00       		.byte	0
 3037 01b6 1F       		.uleb128 0x1f
 3038 01b7 05       		.uleb128 0x5
 3039 01b8 00       		.byte	0
 3040 01b9 03       		.uleb128 0x3
 3041 01ba 08       		.uleb128 0x8
 3042 01bb 3A       		.uleb128 0x3a
 3043 01bc 0B       		.uleb128 0xb
 3044 01bd 3B       		.uleb128 0x3b
 3045 01be 05       		.uleb128 0x5
 3046 01bf 49       		.uleb128 0x49
 3047 01c0 13       		.uleb128 0x13
 3048 01c1 02       		.uleb128 0x2
 3049 01c2 06       		.uleb128 0x6
 3050 01c3 00       		.byte	0
 3051 01c4 00       		.byte	0
 3052 01c5 20       		.uleb128 0x20
 3053 01c6 26       		.uleb128 0x26
 3054 01c7 00       		.byte	0
 3055 01c8 49       		.uleb128 0x49
 3056 01c9 13       		.uleb128 0x13
 3057 01ca 00       		.byte	0
 3058 01cb 00       		.byte	0
 3059 01cc 21       		.uleb128 0x21
 3060 01cd 2E       		.uleb128 0x2e
 3061 01ce 00       		.byte	0
 3062 01cf 3F       		.uleb128 0x3f
 3063 01d0 0C       		.uleb128 0xc
 3064 01d1 03       		.uleb128 0x3
 3065 01d2 0E       		.uleb128 0xe
 3066 01d3 3A       		.uleb128 0x3a
 3067 01d4 0B       		.uleb128 0xb
 3068 01d5 3B       		.uleb128 0x3b
 3069 01d6 05       		.uleb128 0x5
 3070 01d7 27       		.uleb128 0x27
 3071 01d8 0C       		.uleb128 0xc
 3072 01d9 11       		.uleb128 0x11
 3073 01da 01       		.uleb128 0x1
 3074 01db 12       		.uleb128 0x12
 3075 01dc 01       		.uleb128 0x1
 3076 01dd 40       		.uleb128 0x40
 3077 01de 0A       		.uleb128 0xa
 3078 01df 9742     		.uleb128 0x2117
 3079 01e1 0C       		.uleb128 0xc
 3080 01e2 00       		.byte	0
 3081 01e3 00       		.byte	0
 3082 01e4 22       		.uleb128 0x22
 3083 01e5 2E       		.uleb128 0x2e
 3084 01e6 01       		.byte	0x1
 3085 01e7 3F       		.uleb128 0x3f
 3086 01e8 0C       		.uleb128 0xc
 3087 01e9 03       		.uleb128 0x3
 3088 01ea 0E       		.uleb128 0xe
 3089 01eb 3A       		.uleb128 0x3a
 3090 01ec 0B       		.uleb128 0xb
 3091 01ed 3B       		.uleb128 0x3b
 3092 01ee 05       		.uleb128 0x5
ARM GAS  /tmp/ccGhjqcS.s 			page 64


 3093 01ef 27       		.uleb128 0x27
 3094 01f0 0C       		.uleb128 0xc
 3095 01f1 11       		.uleb128 0x11
 3096 01f2 01       		.uleb128 0x1
 3097 01f3 12       		.uleb128 0x12
 3098 01f4 01       		.uleb128 0x1
 3099 01f5 40       		.uleb128 0x40
 3100 01f6 06       		.uleb128 0x6
 3101 01f7 9642     		.uleb128 0x2116
 3102 01f9 0C       		.uleb128 0xc
 3103 01fa 01       		.uleb128 0x1
 3104 01fb 13       		.uleb128 0x13
 3105 01fc 00       		.byte	0
 3106 01fd 00       		.byte	0
 3107 01fe 23       		.uleb128 0x23
 3108 01ff 34       		.uleb128 0x34
 3109 0200 00       		.byte	0
 3110 0201 03       		.uleb128 0x3
 3111 0202 0E       		.uleb128 0xe
 3112 0203 3A       		.uleb128 0x3a
 3113 0204 0B       		.uleb128 0xb
 3114 0205 3B       		.uleb128 0x3b
 3115 0206 05       		.uleb128 0x5
 3116 0207 49       		.uleb128 0x49
 3117 0208 13       		.uleb128 0x13
 3118 0209 02       		.uleb128 0x2
 3119 020a 06       		.uleb128 0x6
 3120 020b 00       		.byte	0
 3121 020c 00       		.byte	0
 3122 020d 24       		.uleb128 0x24
 3123 020e 34       		.uleb128 0x34
 3124 020f 00       		.byte	0
 3125 0210 03       		.uleb128 0x3
 3126 0211 0E       		.uleb128 0xe
 3127 0212 3A       		.uleb128 0x3a
 3128 0213 0B       		.uleb128 0xb
 3129 0214 3B       		.uleb128 0x3b
 3130 0215 05       		.uleb128 0x5
 3131 0216 49       		.uleb128 0x49
 3132 0217 13       		.uleb128 0x13
 3133 0218 00       		.byte	0
 3134 0219 00       		.byte	0
 3135 021a 25       		.uleb128 0x25
 3136 021b 15       		.uleb128 0x15
 3137 021c 01       		.byte	0x1
 3138 021d 27       		.uleb128 0x27
 3139 021e 0C       		.uleb128 0xc
 3140 021f 01       		.uleb128 0x1
 3141 0220 13       		.uleb128 0x13
 3142 0221 00       		.byte	0
 3143 0222 00       		.byte	0
 3144 0223 26       		.uleb128 0x26
 3145 0224 05       		.uleb128 0x5
 3146 0225 00       		.byte	0
 3147 0226 49       		.uleb128 0x49
 3148 0227 13       		.uleb128 0x13
 3149 0228 00       		.byte	0
ARM GAS  /tmp/ccGhjqcS.s 			page 65


 3150 0229 00       		.byte	0
 3151 022a 27       		.uleb128 0x27
 3152 022b 34       		.uleb128 0x34
 3153 022c 00       		.byte	0
 3154 022d 03       		.uleb128 0x3
 3155 022e 0E       		.uleb128 0xe
 3156 022f 3A       		.uleb128 0x3a
 3157 0230 0B       		.uleb128 0xb
 3158 0231 3B       		.uleb128 0x3b
 3159 0232 0B       		.uleb128 0xb
 3160 0233 49       		.uleb128 0x49
 3161 0234 13       		.uleb128 0x13
 3162 0235 02       		.uleb128 0x2
 3163 0236 0A       		.uleb128 0xa
 3164 0237 00       		.byte	0
 3165 0238 00       		.byte	0
 3166 0239 28       		.uleb128 0x28
 3167 023a 2E       		.uleb128 0x2e
 3168 023b 01       		.byte	0x1
 3169 023c 3F       		.uleb128 0x3f
 3170 023d 0C       		.uleb128 0xc
 3171 023e 03       		.uleb128 0x3
 3172 023f 0E       		.uleb128 0xe
 3173 0240 3A       		.uleb128 0x3a
 3174 0241 0B       		.uleb128 0xb
 3175 0242 3B       		.uleb128 0x3b
 3176 0243 0B       		.uleb128 0xb
 3177 0244 27       		.uleb128 0x27
 3178 0245 0C       		.uleb128 0xc
 3179 0246 3C       		.uleb128 0x3c
 3180 0247 0C       		.uleb128 0xc
 3181 0248 01       		.uleb128 0x1
 3182 0249 13       		.uleb128 0x13
 3183 024a 00       		.byte	0
 3184 024b 00       		.byte	0
 3185 024c 29       		.uleb128 0x29
 3186 024d 2E       		.uleb128 0x2e
 3187 024e 01       		.byte	0x1
 3188 024f 3F       		.uleb128 0x3f
 3189 0250 0C       		.uleb128 0xc
 3190 0251 03       		.uleb128 0x3
 3191 0252 0E       		.uleb128 0xe
 3192 0253 3A       		.uleb128 0x3a
 3193 0254 0B       		.uleb128 0xb
 3194 0255 3B       		.uleb128 0x3b
 3195 0256 0B       		.uleb128 0xb
 3196 0257 27       		.uleb128 0x27
 3197 0258 0C       		.uleb128 0xc
 3198 0259 3C       		.uleb128 0x3c
 3199 025a 0C       		.uleb128 0xc
 3200 025b 00       		.byte	0
 3201 025c 00       		.byte	0
 3202 025d 00       		.byte	0
 3203              		.section	.debug_loc,"",%progbits
 3204              	.Ldebug_loc0:
 3205              	.LLST0:
 3206 0000 00000000 		.4byte	.LFB1-.Ltext0
ARM GAS  /tmp/ccGhjqcS.s 			page 66


 3207 0004 02000000 		.4byte	.LCFI0-.Ltext0
 3208 0008 0200     		.2byte	0x2
 3209 000a 7D       		.byte	0x7d
 3210 000b 00       		.sleb128 0
 3211 000c 02000000 		.4byte	.LCFI0-.Ltext0
 3212 0010 E0000000 		.4byte	.LFE1-.Ltext0
 3213 0014 0200     		.2byte	0x2
 3214 0016 7D       		.byte	0x7d
 3215 0017 10       		.sleb128 16
 3216 0018 00000000 		.4byte	0
 3217 001c 00000000 		.4byte	0
 3218              	.LLST1:
 3219 0020 00000000 		.4byte	.LVL0-.Ltext0
 3220 0024 0C000000 		.4byte	.LVL1-.Ltext0
 3221 0028 0100     		.2byte	0x1
 3222 002a 50       		.byte	0x50
 3223 002b 0C000000 		.4byte	.LVL1-.Ltext0
 3224 002f B8000000 		.4byte	.LVL6-.Ltext0
 3225 0033 0100     		.2byte	0x1
 3226 0035 56       		.byte	0x56
 3227 0036 B8000000 		.4byte	.LVL6-.Ltext0
 3228 003a E0000000 		.4byte	.LFE1-.Ltext0
 3229 003e 0400     		.2byte	0x4
 3230 0040 F3       		.byte	0xf3
 3231 0041 01       		.uleb128 0x1
 3232 0042 50       		.byte	0x50
 3233 0043 9F       		.byte	0x9f
 3234 0044 00000000 		.4byte	0
 3235 0048 00000000 		.4byte	0
 3236              	.LLST2:
 3237 004c 62000000 		.4byte	.LVL4-.Ltext0
 3238 0050 6C000000 		.4byte	.LVL5-.Ltext0
 3239 0054 0100     		.2byte	0x1
 3240 0056 50       		.byte	0x50
 3241 0057 00000000 		.4byte	0
 3242 005b 00000000 		.4byte	0
 3243              	.LLST3:
 3244 005f E0000000 		.4byte	.LFB2-.Ltext0
 3245 0063 E2000000 		.4byte	.LCFI1-.Ltext0
 3246 0067 0200     		.2byte	0x2
 3247 0069 7D       		.byte	0x7d
 3248 006a 00       		.sleb128 0
 3249 006b E2000000 		.4byte	.LCFI1-.Ltext0
 3250 006f 60010000 		.4byte	.LFE2-.Ltext0
 3251 0073 0200     		.2byte	0x2
 3252 0075 7D       		.byte	0x7d
 3253 0076 10       		.sleb128 16
 3254 0077 00000000 		.4byte	0
 3255 007b 00000000 		.4byte	0
 3256              	.LLST4:
 3257 007f E0000000 		.4byte	.LVL7-.Ltext0
 3258 0083 EC000000 		.4byte	.LVL8-.Ltext0
 3259 0087 0100     		.2byte	0x1
 3260 0089 50       		.byte	0x50
 3261 008a EC000000 		.4byte	.LVL8-.Ltext0
 3262 008e 46010000 		.4byte	.LVL13-.Ltext0
 3263 0092 0100     		.2byte	0x1
ARM GAS  /tmp/ccGhjqcS.s 			page 67


 3264 0094 56       		.byte	0x56
 3265 0095 46010000 		.4byte	.LVL13-.Ltext0
 3266 0099 60010000 		.4byte	.LFE2-.Ltext0
 3267 009d 0400     		.2byte	0x4
 3268 009f F3       		.byte	0xf3
 3269 00a0 01       		.uleb128 0x1
 3270 00a1 50       		.byte	0x50
 3271 00a2 9F       		.byte	0x9f
 3272 00a3 00000000 		.4byte	0
 3273 00a7 00000000 		.4byte	0
 3274              	.LLST5:
 3275 00ab 30010000 		.4byte	.LVL11-.Ltext0
 3276 00af 38010000 		.4byte	.LVL12-.Ltext0
 3277 00b3 0100     		.2byte	0x1
 3278 00b5 50       		.byte	0x50
 3279 00b6 00000000 		.4byte	0
 3280 00ba 00000000 		.4byte	0
 3281              	.LLST6:
 3282 00be 60010000 		.4byte	.LFB3-.Ltext0
 3283 00c2 62010000 		.4byte	.LCFI2-.Ltext0
 3284 00c6 0200     		.2byte	0x2
 3285 00c8 7D       		.byte	0x7d
 3286 00c9 00       		.sleb128 0
 3287 00ca 62010000 		.4byte	.LCFI2-.Ltext0
 3288 00ce E0010000 		.4byte	.LFE3-.Ltext0
 3289 00d2 0200     		.2byte	0x2
 3290 00d4 7D       		.byte	0x7d
 3291 00d5 10       		.sleb128 16
 3292 00d6 00000000 		.4byte	0
 3293 00da 00000000 		.4byte	0
 3294              	.LLST7:
 3295 00de 60010000 		.4byte	.LVL14-.Ltext0
 3296 00e2 6C010000 		.4byte	.LVL15-.Ltext0
 3297 00e6 0100     		.2byte	0x1
 3298 00e8 50       		.byte	0x50
 3299 00e9 6C010000 		.4byte	.LVL15-.Ltext0
 3300 00ed C6010000 		.4byte	.LVL20-.Ltext0
 3301 00f1 0100     		.2byte	0x1
 3302 00f3 56       		.byte	0x56
 3303 00f4 C6010000 		.4byte	.LVL20-.Ltext0
 3304 00f8 E0010000 		.4byte	.LFE3-.Ltext0
 3305 00fc 0400     		.2byte	0x4
 3306 00fe F3       		.byte	0xf3
 3307 00ff 01       		.uleb128 0x1
 3308 0100 50       		.byte	0x50
 3309 0101 9F       		.byte	0x9f
 3310 0102 00000000 		.4byte	0
 3311 0106 00000000 		.4byte	0
 3312              	.LLST8:
 3313 010a B0010000 		.4byte	.LVL18-.Ltext0
 3314 010e B8010000 		.4byte	.LVL19-.Ltext0
 3315 0112 0100     		.2byte	0x1
 3316 0114 50       		.byte	0x50
 3317 0115 00000000 		.4byte	0
 3318 0119 00000000 		.4byte	0
 3319              	.LLST9:
 3320 011d E0010000 		.4byte	.LFB0-.Ltext0
ARM GAS  /tmp/ccGhjqcS.s 			page 68


 3321 0121 E2010000 		.4byte	.LCFI3-.Ltext0
 3322 0125 0200     		.2byte	0x2
 3323 0127 7D       		.byte	0x7d
 3324 0128 00       		.sleb128 0
 3325 0129 E2010000 		.4byte	.LCFI3-.Ltext0
 3326 012d F8010000 		.4byte	.LFE0-.Ltext0
 3327 0131 0200     		.2byte	0x2
 3328 0133 7D       		.byte	0x7d
 3329 0134 10       		.sleb128 16
 3330 0135 00000000 		.4byte	0
 3331 0139 00000000 		.4byte	0
 3332              	.LLST10:
 3333 013d E0010000 		.4byte	.LVL21-.Ltext0
 3334 0141 E9010000 		.4byte	.LVL22-1-.Ltext0
 3335 0145 0100     		.2byte	0x1
 3336 0147 50       		.byte	0x50
 3337 0148 E9010000 		.4byte	.LVL22-1-.Ltext0
 3338 014c F8010000 		.4byte	.LFE0-.Ltext0
 3339 0150 0400     		.2byte	0x4
 3340 0152 F3       		.byte	0xf3
 3341 0153 01       		.uleb128 0x1
 3342 0154 50       		.byte	0x50
 3343 0155 9F       		.byte	0x9f
 3344 0156 00000000 		.4byte	0
 3345 015a 00000000 		.4byte	0
 3346              	.LLST11:
 3347 015e E0010000 		.4byte	.LVL21-.Ltext0
 3348 0162 E9010000 		.4byte	.LVL22-1-.Ltext0
 3349 0166 0100     		.2byte	0x1
 3350 0168 51       		.byte	0x51
 3351 0169 E9010000 		.4byte	.LVL22-1-.Ltext0
 3352 016d F6010000 		.4byte	.LVL26-.Ltext0
 3353 0171 0100     		.2byte	0x1
 3354 0173 55       		.byte	0x55
 3355 0174 F6010000 		.4byte	.LVL26-.Ltext0
 3356 0178 F8010000 		.4byte	.LFE0-.Ltext0
 3357 017c 0400     		.2byte	0x4
 3358 017e F3       		.byte	0xf3
 3359 017f 01       		.uleb128 0x1
 3360 0180 51       		.byte	0x51
 3361 0181 9F       		.byte	0x9f
 3362 0182 00000000 		.4byte	0
 3363 0186 00000000 		.4byte	0
 3364              	.LLST12:
 3365 018a E0010000 		.4byte	.LVL21-.Ltext0
 3366 018e E9010000 		.4byte	.LVL22-1-.Ltext0
 3367 0192 0100     		.2byte	0x1
 3368 0194 52       		.byte	0x52
 3369 0195 E9010000 		.4byte	.LVL22-1-.Ltext0
 3370 0199 F6010000 		.4byte	.LVL25-.Ltext0
 3371 019d 0100     		.2byte	0x1
 3372 019f 54       		.byte	0x54
 3373 01a0 F6010000 		.4byte	.LVL25-.Ltext0
 3374 01a4 F8010000 		.4byte	.LFE0-.Ltext0
 3375 01a8 0400     		.2byte	0x4
 3376 01aa F3       		.byte	0xf3
 3377 01ab 01       		.uleb128 0x1
ARM GAS  /tmp/ccGhjqcS.s 			page 69


 3378 01ac 52       		.byte	0x52
 3379 01ad 9F       		.byte	0x9f
 3380 01ae 00000000 		.4byte	0
 3381 01b2 00000000 		.4byte	0
 3382              	.LLST13:
 3383 01b6 58020000 		.4byte	.LFB7-.Ltext0
 3384 01ba 5A020000 		.4byte	.LCFI4-.Ltext0
 3385 01be 0200     		.2byte	0x2
 3386 01c0 7D       		.byte	0x7d
 3387 01c1 00       		.sleb128 0
 3388 01c2 5A020000 		.4byte	.LCFI4-.Ltext0
 3389 01c6 80020000 		.4byte	.LFE7-.Ltext0
 3390 01ca 0200     		.2byte	0x2
 3391 01cc 7D       		.byte	0x7d
 3392 01cd 08       		.sleb128 8
 3393 01ce 00000000 		.4byte	0
 3394 01d2 00000000 		.4byte	0
 3395              	.LLST14:
 3396 01d6 58020000 		.4byte	.LVL33-.Ltext0
 3397 01da 6A020000 		.4byte	.LVL34-.Ltext0
 3398 01de 0100     		.2byte	0x1
 3399 01e0 50       		.byte	0x50
 3400 01e1 6A020000 		.4byte	.LVL34-.Ltext0
 3401 01e5 70020000 		.4byte	.LVL36-.Ltext0
 3402 01e9 0400     		.2byte	0x4
 3403 01eb F3       		.byte	0xf3
 3404 01ec 01       		.uleb128 0x1
 3405 01ed 50       		.byte	0x50
 3406 01ee 9F       		.byte	0x9f
 3407 01ef 70020000 		.4byte	.LVL36-.Ltext0
 3408 01f3 72020000 		.4byte	.LVL37-.Ltext0
 3409 01f7 0100     		.2byte	0x1
 3410 01f9 50       		.byte	0x50
 3411 01fa 72020000 		.4byte	.LVL37-.Ltext0
 3412 01fe 78020000 		.4byte	.LVL39-.Ltext0
 3413 0202 0400     		.2byte	0x4
 3414 0204 F3       		.byte	0xf3
 3415 0205 01       		.uleb128 0x1
 3416 0206 50       		.byte	0x50
 3417 0207 9F       		.byte	0x9f
 3418 0208 78020000 		.4byte	.LVL39-.Ltext0
 3419 020c 7A020000 		.4byte	.LVL40-.Ltext0
 3420 0210 0100     		.2byte	0x1
 3421 0212 50       		.byte	0x50
 3422 0213 7A020000 		.4byte	.LVL40-.Ltext0
 3423 0217 80020000 		.4byte	.LFE7-.Ltext0
 3424 021b 0400     		.2byte	0x4
 3425 021d F3       		.byte	0xf3
 3426 021e 01       		.uleb128 0x1
 3427 021f 50       		.byte	0x50
 3428 0220 9F       		.byte	0x9f
 3429 0221 00000000 		.4byte	0
 3430 0225 00000000 		.4byte	0
 3431              	.LLST15:
 3432 0229 58020000 		.4byte	.LVL33-.Ltext0
 3433 022d 6D020000 		.4byte	.LVL35-1-.Ltext0
 3434 0231 0100     		.2byte	0x1
ARM GAS  /tmp/ccGhjqcS.s 			page 70


 3435 0233 51       		.byte	0x51
 3436 0234 6D020000 		.4byte	.LVL35-1-.Ltext0
 3437 0238 70020000 		.4byte	.LVL36-.Ltext0
 3438 023c 0400     		.2byte	0x4
 3439 023e F3       		.byte	0xf3
 3440 023f 01       		.uleb128 0x1
 3441 0240 51       		.byte	0x51
 3442 0241 9F       		.byte	0x9f
 3443 0242 70020000 		.4byte	.LVL36-.Ltext0
 3444 0246 75020000 		.4byte	.LVL38-1-.Ltext0
 3445 024a 0100     		.2byte	0x1
 3446 024c 51       		.byte	0x51
 3447 024d 75020000 		.4byte	.LVL38-1-.Ltext0
 3448 0251 78020000 		.4byte	.LVL39-.Ltext0
 3449 0255 0400     		.2byte	0x4
 3450 0257 F3       		.byte	0xf3
 3451 0258 01       		.uleb128 0x1
 3452 0259 51       		.byte	0x51
 3453 025a 9F       		.byte	0x9f
 3454 025b 78020000 		.4byte	.LVL39-.Ltext0
 3455 025f 7D020000 		.4byte	.LVL41-1-.Ltext0
 3456 0263 0100     		.2byte	0x1
 3457 0265 51       		.byte	0x51
 3458 0266 7D020000 		.4byte	.LVL41-1-.Ltext0
 3459 026a 80020000 		.4byte	.LFE7-.Ltext0
 3460 026e 0400     		.2byte	0x4
 3461 0270 F3       		.byte	0xf3
 3462 0271 01       		.uleb128 0x1
 3463 0272 51       		.byte	0x51
 3464 0273 9F       		.byte	0x9f
 3465 0274 00000000 		.4byte	0
 3466 0278 00000000 		.4byte	0
 3467              	.LLST16:
 3468 027c 80020000 		.4byte	.LFB12-.Ltext0
 3469 0280 82020000 		.4byte	.LCFI5-.Ltext0
 3470 0284 0200     		.2byte	0x2
 3471 0286 7D       		.byte	0x7d
 3472 0287 00       		.sleb128 0
 3473 0288 82020000 		.4byte	.LCFI5-.Ltext0
 3474 028c 98020000 		.4byte	.LFE12-.Ltext0
 3475 0290 0200     		.2byte	0x2
 3476 0292 7D       		.byte	0x7d
 3477 0293 08       		.sleb128 8
 3478 0294 00000000 		.4byte	0
 3479 0298 00000000 		.4byte	0
 3480              	.LLST17:
 3481 029c 80020000 		.4byte	.LVL42-.Ltext0
 3482 02a0 86020000 		.4byte	.LVL43-.Ltext0
 3483 02a4 0100     		.2byte	0x1
 3484 02a6 50       		.byte	0x50
 3485 02a7 86020000 		.4byte	.LVL43-.Ltext0
 3486 02ab 96020000 		.4byte	.LVL46-.Ltext0
 3487 02af 0100     		.2byte	0x1
 3488 02b1 54       		.byte	0x54
 3489 02b2 00000000 		.4byte	0
 3490 02b6 00000000 		.4byte	0
 3491              	.LLST18:
ARM GAS  /tmp/ccGhjqcS.s 			page 71


 3492 02ba 98020000 		.4byte	.LFB13-.Ltext0
 3493 02be 9A020000 		.4byte	.LCFI6-.Ltext0
 3494 02c2 0200     		.2byte	0x2
 3495 02c4 7D       		.byte	0x7d
 3496 02c5 00       		.sleb128 0
 3497 02c6 9A020000 		.4byte	.LCFI6-.Ltext0
 3498 02ca B0020000 		.4byte	.LFE13-.Ltext0
 3499 02ce 0200     		.2byte	0x2
 3500 02d0 7D       		.byte	0x7d
 3501 02d1 08       		.sleb128 8
 3502 02d2 00000000 		.4byte	0
 3503 02d6 00000000 		.4byte	0
 3504              	.LLST19:
 3505 02da 98020000 		.4byte	.LVL47-.Ltext0
 3506 02de 9E020000 		.4byte	.LVL48-.Ltext0
 3507 02e2 0100     		.2byte	0x1
 3508 02e4 50       		.byte	0x50
 3509 02e5 9E020000 		.4byte	.LVL48-.Ltext0
 3510 02e9 AE020000 		.4byte	.LVL51-.Ltext0
 3511 02ed 0100     		.2byte	0x1
 3512 02ef 54       		.byte	0x54
 3513 02f0 00000000 		.4byte	0
 3514 02f4 00000000 		.4byte	0
 3515              	.LLST20:
 3516 02f8 B0020000 		.4byte	.LFB14-.Ltext0
 3517 02fc B2020000 		.4byte	.LCFI7-.Ltext0
 3518 0300 0200     		.2byte	0x2
 3519 0302 7D       		.byte	0x7d
 3520 0303 00       		.sleb128 0
 3521 0304 B2020000 		.4byte	.LCFI7-.Ltext0
 3522 0308 C8020000 		.4byte	.LFE14-.Ltext0
 3523 030c 0200     		.2byte	0x2
 3524 030e 7D       		.byte	0x7d
 3525 030f 08       		.sleb128 8
 3526 0310 00000000 		.4byte	0
 3527 0314 00000000 		.4byte	0
 3528              	.LLST21:
 3529 0318 B0020000 		.4byte	.LVL52-.Ltext0
 3530 031c B6020000 		.4byte	.LVL53-.Ltext0
 3531 0320 0100     		.2byte	0x1
 3532 0322 50       		.byte	0x50
 3533 0323 B6020000 		.4byte	.LVL53-.Ltext0
 3534 0327 C6020000 		.4byte	.LVL56-.Ltext0
 3535 032b 0100     		.2byte	0x1
 3536 032d 54       		.byte	0x54
 3537 032e 00000000 		.4byte	0
 3538 0332 00000000 		.4byte	0
 3539              	.LLST22:
 3540 0336 C8020000 		.4byte	.LFB11-.Ltext0
 3541 033a CA020000 		.4byte	.LCFI8-.Ltext0
 3542 033e 0200     		.2byte	0x2
 3543 0340 7D       		.byte	0x7d
 3544 0341 00       		.sleb128 0
 3545 0342 CA020000 		.4byte	.LCFI8-.Ltext0
 3546 0346 F0020000 		.4byte	.LFE11-.Ltext0
 3547 034a 0200     		.2byte	0x2
 3548 034c 7D       		.byte	0x7d
ARM GAS  /tmp/ccGhjqcS.s 			page 72


 3549 034d 08       		.sleb128 8
 3550 034e 00000000 		.4byte	0
 3551 0352 00000000 		.4byte	0
 3552              	.LLST23:
 3553 0356 C8020000 		.4byte	.LVL57-.Ltext0
 3554 035a DA020000 		.4byte	.LVL58-.Ltext0
 3555 035e 0100     		.2byte	0x1
 3556 0360 50       		.byte	0x50
 3557 0361 DA020000 		.4byte	.LVL58-.Ltext0
 3558 0365 E0020000 		.4byte	.LVL60-.Ltext0
 3559 0369 0400     		.2byte	0x4
 3560 036b F3       		.byte	0xf3
 3561 036c 01       		.uleb128 0x1
 3562 036d 50       		.byte	0x50
 3563 036e 9F       		.byte	0x9f
 3564 036f E0020000 		.4byte	.LVL60-.Ltext0
 3565 0373 E2020000 		.4byte	.LVL61-.Ltext0
 3566 0377 0100     		.2byte	0x1
 3567 0379 50       		.byte	0x50
 3568 037a E2020000 		.4byte	.LVL61-.Ltext0
 3569 037e E8020000 		.4byte	.LVL63-.Ltext0
 3570 0382 0400     		.2byte	0x4
 3571 0384 F3       		.byte	0xf3
 3572 0385 01       		.uleb128 0x1
 3573 0386 50       		.byte	0x50
 3574 0387 9F       		.byte	0x9f
 3575 0388 E8020000 		.4byte	.LVL63-.Ltext0
 3576 038c EA020000 		.4byte	.LVL64-.Ltext0
 3577 0390 0100     		.2byte	0x1
 3578 0392 50       		.byte	0x50
 3579 0393 EA020000 		.4byte	.LVL64-.Ltext0
 3580 0397 F0020000 		.4byte	.LFE11-.Ltext0
 3581 039b 0400     		.2byte	0x4
 3582 039d F3       		.byte	0xf3
 3583 039e 01       		.uleb128 0x1
 3584 039f 50       		.byte	0x50
 3585 03a0 9F       		.byte	0x9f
 3586 03a1 00000000 		.4byte	0
 3587 03a5 00000000 		.4byte	0
 3588              	.LLST24:
 3589 03a9 C8020000 		.4byte	.LVL57-.Ltext0
 3590 03ad DD020000 		.4byte	.LVL59-1-.Ltext0
 3591 03b1 0100     		.2byte	0x1
 3592 03b3 51       		.byte	0x51
 3593 03b4 DD020000 		.4byte	.LVL59-1-.Ltext0
 3594 03b8 E0020000 		.4byte	.LVL60-.Ltext0
 3595 03bc 0400     		.2byte	0x4
 3596 03be F3       		.byte	0xf3
 3597 03bf 01       		.uleb128 0x1
 3598 03c0 51       		.byte	0x51
 3599 03c1 9F       		.byte	0x9f
 3600 03c2 E0020000 		.4byte	.LVL60-.Ltext0
 3601 03c6 E5020000 		.4byte	.LVL62-1-.Ltext0
 3602 03ca 0100     		.2byte	0x1
 3603 03cc 51       		.byte	0x51
 3604 03cd E5020000 		.4byte	.LVL62-1-.Ltext0
 3605 03d1 E8020000 		.4byte	.LVL63-.Ltext0
ARM GAS  /tmp/ccGhjqcS.s 			page 73


 3606 03d5 0400     		.2byte	0x4
 3607 03d7 F3       		.byte	0xf3
 3608 03d8 01       		.uleb128 0x1
 3609 03d9 51       		.byte	0x51
 3610 03da 9F       		.byte	0x9f
 3611 03db E8020000 		.4byte	.LVL63-.Ltext0
 3612 03df ED020000 		.4byte	.LVL65-1-.Ltext0
 3613 03e3 0100     		.2byte	0x1
 3614 03e5 51       		.byte	0x51
 3615 03e6 ED020000 		.4byte	.LVL65-1-.Ltext0
 3616 03ea F0020000 		.4byte	.LFE11-.Ltext0
 3617 03ee 0400     		.2byte	0x4
 3618 03f0 F3       		.byte	0xf3
 3619 03f1 01       		.uleb128 0x1
 3620 03f2 51       		.byte	0x51
 3621 03f3 9F       		.byte	0x9f
 3622 03f4 00000000 		.4byte	0
 3623 03f8 00000000 		.4byte	0
 3624              	.LLST25:
 3625 03fc 68030000 		.4byte	.LFB21-.Ltext0
 3626 0400 6A030000 		.4byte	.LCFI9-.Ltext0
 3627 0404 0200     		.2byte	0x2
 3628 0406 7D       		.byte	0x7d
 3629 0407 00       		.sleb128 0
 3630 0408 6A030000 		.4byte	.LCFI9-.Ltext0
 3631 040c B0030000 		.4byte	.LFE21-.Ltext0
 3632 0410 0200     		.2byte	0x2
 3633 0412 7D       		.byte	0x7d
 3634 0413 08       		.sleb128 8
 3635 0414 00000000 		.4byte	0
 3636 0418 00000000 		.4byte	0
 3637              	.LLST26:
 3638 041c 70030000 		.4byte	.LVL66-.Ltext0
 3639 0420 80030000 		.4byte	.LVL67-.Ltext0
 3640 0424 0600     		.2byte	0x6
 3641 0426 73       		.byte	0x73
 3642 0427 00       		.sleb128 0
 3643 0428 08       		.byte	0x8
 3644 0429 FF       		.byte	0xff
 3645 042a 1A       		.byte	0x1a
 3646 042b 9F       		.byte	0x9f
 3647 042c 80030000 		.4byte	.LVL67-.Ltext0
 3648 0430 98030000 		.4byte	.LVL68-.Ltext0
 3649 0434 0100     		.2byte	0x1
 3650 0436 53       		.byte	0x53
 3651 0437 00000000 		.4byte	0
 3652 043b 00000000 		.4byte	0
 3653              	.LLST27:
 3654 043f B0030000 		.4byte	.LFB22-.Ltext0
 3655 0443 B2030000 		.4byte	.LCFI10-.Ltext0
 3656 0447 0200     		.2byte	0x2
 3657 0449 7D       		.byte	0x7d
 3658 044a 00       		.sleb128 0
 3659 044b B2030000 		.4byte	.LCFI10-.Ltext0
 3660 044f F8030000 		.4byte	.LFE22-.Ltext0
 3661 0453 0200     		.2byte	0x2
 3662 0455 7D       		.byte	0x7d
ARM GAS  /tmp/ccGhjqcS.s 			page 74


 3663 0456 08       		.sleb128 8
 3664 0457 00000000 		.4byte	0
 3665 045b 00000000 		.4byte	0
 3666              	.LLST28:
 3667 045f B8030000 		.4byte	.LVL71-.Ltext0
 3668 0463 C8030000 		.4byte	.LVL72-.Ltext0
 3669 0467 0600     		.2byte	0x6
 3670 0469 73       		.byte	0x73
 3671 046a 00       		.sleb128 0
 3672 046b 08       		.byte	0x8
 3673 046c FF       		.byte	0xff
 3674 046d 1A       		.byte	0x1a
 3675 046e 9F       		.byte	0x9f
 3676 046f C8030000 		.4byte	.LVL72-.Ltext0
 3677 0473 E0030000 		.4byte	.LVL73-.Ltext0
 3678 0477 0100     		.2byte	0x1
 3679 0479 53       		.byte	0x53
 3680 047a 00000000 		.4byte	0
 3681 047e 00000000 		.4byte	0
 3682              	.LLST29:
 3683 0482 F8030000 		.4byte	.LFB23-.Ltext0
 3684 0486 FA030000 		.4byte	.LCFI11-.Ltext0
 3685 048a 0200     		.2byte	0x2
 3686 048c 7D       		.byte	0x7d
 3687 048d 00       		.sleb128 0
 3688 048e FA030000 		.4byte	.LCFI11-.Ltext0
 3689 0492 40040000 		.4byte	.LFE23-.Ltext0
 3690 0496 0200     		.2byte	0x2
 3691 0498 7D       		.byte	0x7d
 3692 0499 08       		.sleb128 8
 3693 049a 00000000 		.4byte	0
 3694 049e 00000000 		.4byte	0
 3695              	.LLST30:
 3696 04a2 00040000 		.4byte	.LVL76-.Ltext0
 3697 04a6 10040000 		.4byte	.LVL77-.Ltext0
 3698 04aa 0600     		.2byte	0x6
 3699 04ac 73       		.byte	0x73
 3700 04ad 00       		.sleb128 0
 3701 04ae 08       		.byte	0x8
 3702 04af FF       		.byte	0xff
 3703 04b0 1A       		.byte	0x1a
 3704 04b1 9F       		.byte	0x9f
 3705 04b2 10040000 		.4byte	.LVL77-.Ltext0
 3706 04b6 28040000 		.4byte	.LVL78-.Ltext0
 3707 04ba 0100     		.2byte	0x1
 3708 04bc 53       		.byte	0x53
 3709 04bd 00000000 		.4byte	0
 3710 04c1 00000000 		.4byte	0
 3711              		.section	.debug_aranges,"",%progbits
 3712 0000 1C000000 		.4byte	0x1c
 3713 0004 0200     		.2byte	0x2
 3714 0006 00000000 		.4byte	.Ldebug_info0
 3715 000a 04       		.byte	0x4
 3716 000b 00       		.byte	0
 3717 000c 0000     		.2byte	0
 3718 000e 0000     		.2byte	0
 3719 0010 00000000 		.4byte	.Ltext0
ARM GAS  /tmp/ccGhjqcS.s 			page 75


 3720 0014 40040000 		.4byte	.Letext0-.Ltext0
 3721 0018 00000000 		.4byte	0
 3722 001c 00000000 		.4byte	0
 3723              		.section	.debug_line,"",%progbits
 3724              	.Ldebug_line0:
 3725 0000 9D010000 		.section	.debug_str,"MS",%progbits,1
 3725      0200A600 
 3725      00000201 
 3725      FB0E0D00 
 3725      01010101 
 3726              	.LASF26:
 3727 0000 534F5054 		.ascii	"SOPT5\000"
 3727      3500
 3728              	.LASF38:
 3729 0006 46434647 		.ascii	"FCFG1\000"
 3729      3100
 3730              	.LASF39:
 3731 000c 46434647 		.ascii	"FCFG2\000"
 3731      3200
 3732              	.LASF87:
 3733 0012 55415254 		.ascii	"UART1_IntStatReg\000"
 3733      315F496E 
 3733      74537461 
 3733      74526567 
 3733      00
 3734              	.LASF60:
 3735 0023 55415254 		.ascii	"UART2_baudrate\000"
 3735      325F6261 
 3735      75647261 
 3735      746500
 3736              	.LASF84:
 3737 0032 55415254 		.ascii	"UART0_IRQHandler\000"
 3737      305F4952 
 3737      5148616E 
 3737      646C6572 
 3737      00
 3738              	.LASF48:
 3739 0043 55415254 		.ascii	"UART_MemMap\000"
 3739      5F4D656D 
 3739      4D617000 
 3740              	.LASF30:
 3741 004f 53444944 		.ascii	"SDID\000"
 3741      00
 3742              	.LASF93:
 3743 0054 55415254 		.ascii	"UART2_callback\000"
 3743      325F6361 
 3743      6C6C6261 
 3743      636B00
 3744              	.LASF74:
 3745 0063 55415254 		.ascii	"UART0_SendString\000"
 3745      305F5365 
 3745      6E645374 
 3745      72696E67 
 3745      00
 3746              	.LASF3:
 3747 0074 73686F72 		.ascii	"short int\000"
 3747      7420696E 
ARM GAS  /tmp/ccGhjqcS.s 			page 76


 3747      7400
 3748              	.LASF13:
 3749 007e 73697A65 		.ascii	"sizetype\000"
 3749      74797065 
 3749      00
 3750              	.LASF63:
 3751 0087 55415254 		.ascii	"UART1_reg_callback\000"
 3751      315F7265 
 3751      675F6361 
 3751      6C6C6261 
 3751      636B00
 3752              	.LASF72:
 3753 009a 75617274 		.ascii	"uart\000"
 3753      00
 3754              	.LASF62:
 3755 009f 55415254 		.ascii	"UART0_Callback_Ptr\000"
 3755      305F4361 
 3755      6C6C6261 
 3755      636B5F50 
 3755      747200
 3756              	.LASF49:
 3757 00b2 55415254 		.ascii	"UART_MemMapPtr\000"
 3757      5F4D656D 
 3757      4D617050 
 3757      747200
 3758              	.LASF58:
 3759 00c1 55415254 		.ascii	"UART0_baudrate\000"
 3759      305F6261 
 3759      75647261 
 3759      746500
 3760              	.LASF67:
 3761 00d0 55415254 		.ascii	"UART0_PutChar\000"
 3761      305F5075 
 3761      74436861 
 3761      7200
 3762              	.LASF6:
 3763 00de 75696E74 		.ascii	"uint8_t\000"
 3763      385F7400 
 3764              	.LASF81:
 3765 00e6 55415254 		.ascii	"UART0_IRQ_dis\000"
 3765      305F4952 
 3765      515F6469 
 3765      7300
 3766              	.LASF69:
 3767 00f4 55415254 		.ascii	"UART1_PutChar\000"
 3767      315F5075 
 3767      74436861 
 3767      7200
 3768              	.LASF89:
 3769 0102 55415254 		.ascii	"UART2_IRQHandler\000"
 3769      325F4952 
 3769      5148616E 
 3769      646C6572 
 3769      00
 3770              	.LASF91:
 3771 0113 55415254 		.ascii	"UART0_callback\000"
 3771      305F6361 
ARM GAS  /tmp/ccGhjqcS.s 			page 77


 3771      6C6C6261 
 3771      636B00
 3772              	.LASF82:
 3773 0122 55415254 		.ascii	"UART1_IRQ_dis\000"
 3773      315F4952 
 3773      515F6469 
 3773      7300
 3774              	.LASF70:
 3775 0130 55415254 		.ascii	"UART2_PutChar\000"
 3775      325F5075 
 3775      74436861 
 3775      7200
 3776              	.LASF68:
 3777 013e 6F757443 		.ascii	"outChar\000"
 3777      68617200 
 3778              	.LASF83:
 3779 0146 55415254 		.ascii	"UART2_IRQ_dis\000"
 3779      325F4952 
 3779      515F6469 
 3779      7300
 3780              	.LASF4:
 3781 0154 6C6F6E67 		.ascii	"long long int\000"
 3781      206C6F6E 
 3781      6720696E 
 3781      7400
 3782              	.LASF88:
 3783 0162 696E4368 		.ascii	"inChar\000"
 3783      617200
 3784              	.LASF0:
 3785 0169 6C6F6E67 		.ascii	"long int\000"
 3785      20696E74 
 3785      00
 3786              	.LASF66:
 3787 0172 55415254 		.ascii	"UART2_Callback_Ptr\000"
 3787      325F4361 
 3787      6C6C6261 
 3787      636B5F50 
 3787      747200
 3788              	.LASF22:
 3789 0185 534F5054 		.ascii	"SOPT1CFG\000"
 3789      31434647 
 3789      00
 3790              	.LASF32:
 3791 018e 53434743 		.ascii	"SCGC4\000"
 3791      3400
 3792              	.LASF33:
 3793 0194 53434743 		.ascii	"SCGC5\000"
 3793      3500
 3794              	.LASF34:
 3795 019a 53434743 		.ascii	"SCGC6\000"
 3795      3600
 3796              	.LASF35:
 3797 01a0 53434743 		.ascii	"SCGC7\000"
 3797      3700
 3798              	.LASF79:
 3799 01a6 55415254 		.ascii	"UART1_IRQ_en\000"
 3799      315F4952 
ARM GAS  /tmp/ccGhjqcS.s 			page 78


 3799      515F656E 
 3799      00
 3800              	.LASF23:
 3801 01b3 534F5054 		.ascii	"SOPT2\000"
 3801      3200
 3802              	.LASF44:
 3803 01b9 52455345 		.ascii	"RESERVED_7\000"
 3803      52564544 
 3803      5F3700
 3804              	.LASF98:
 3805 01c4 4E564943 		.ascii	"NVIC_ENABLE_INT\000"
 3805      5F454E41 
 3805      424C455F 
 3805      494E5400 
 3806              	.LASF54:
 3807 01d4 62617564 		.ascii	"baudrate\000"
 3807      72617465 
 3807      00
 3808              	.LASF53:
 3809 01dd 55415254 		.ascii	"UART1_init\000"
 3809      315F696E 
 3809      697400
 3810              	.LASF42:
 3811 01e8 5549444D 		.ascii	"UIDML\000"
 3811      4C00
 3812              	.LASF15:
 3813 01ee 47504348 		.ascii	"GPCHR\000"
 3813      5200
 3814              	.LASF50:
 3815 01f4 55415254 		.ascii	"UART0_MemMap\000"
 3815      305F4D65 
 3815      6D4D6170 
 3815      00
 3816              	.LASF28:
 3817 0201 534F5054 		.ascii	"SOPT7\000"
 3817      3700
 3818              	.LASF36:
 3819 0207 434C4B44 		.ascii	"CLKDIV1\000"
 3819      49563100 
 3820              	.LASF5:
 3821 020f 756E7369 		.ascii	"unsigned char\000"
 3821      676E6564 
 3821      20636861 
 3821      7200
 3822              	.LASF45:
 3823 021d 434F5043 		.ascii	"COPC\000"
 3823      00
 3824              	.LASF2:
 3825 0222 7369676E 		.ascii	"signed char\000"
 3825      65642063 
 3825      68617200 
 3826              	.LASF64:
 3827 022e 55415254 		.ascii	"UART1_Callback_Ptr\000"
 3827      315F4361 
 3827      6C6C6261 
 3827      636B5F50 
 3827      747200
ARM GAS  /tmp/ccGhjqcS.s 			page 79


 3828              	.LASF11:
 3829 0241 6C6F6E67 		.ascii	"long long unsigned int\000"
 3829      206C6F6E 
 3829      6720756E 
 3829      7369676E 
 3829      65642069 
 3830              	.LASF14:
 3831 0258 4750434C 		.ascii	"GPCLR\000"
 3831      5200
 3832              	.LASF9:
 3833 025e 75696E74 		.ascii	"uint32_t\000"
 3833      33325F74 
 3833      00
 3834              	.LASF51:
 3835 0267 55415254 		.ascii	"UART0_MemMapPtr\000"
 3835      305F4D65 
 3835      6D4D6170 
 3835      50747200 
 3836              	.LASF1:
 3837 0277 756E7369 		.ascii	"unsigned int\000"
 3837      676E6564 
 3837      20696E74 
 3837      00
 3838              	.LASF78:
 3839 0284 55415254 		.ascii	"UART0_IRQ_en\000"
 3839      305F4952 
 3839      515F656E 
 3839      00
 3840              	.LASF19:
 3841 0291 504F5254 		.ascii	"PORT_MemMap\000"
 3841      5F4D656D 
 3841      4D617000 
 3842              	.LASF10:
 3843 029d 6C6F6E67 		.ascii	"long unsigned int\000"
 3843      20756E73 
 3843      69676E65 
 3843      6420696E 
 3843      7400
 3844              	.LASF73:
 3845 02af 6F757463 		.ascii	"outchar\000"
 3845      68617200 
 3846              	.LASF8:
 3847 02b7 73686F72 		.ascii	"short unsigned int\000"
 3847      7420756E 
 3847      7369676E 
 3847      65642069 
 3847      6E7400
 3848              	.LASF75:
 3849 02ca 55415254 		.ascii	"UART1_SendString\000"
 3849      315F5365 
 3849      6E645374 
 3849      72696E67 
 3849      00
 3850              	.LASF59:
 3851 02db 55415254 		.ascii	"UART1_baudrate\000"
 3851      315F6261 
 3851      75647261 
ARM GAS  /tmp/ccGhjqcS.s 			page 80


 3851      746500
 3852              	.LASF12:
 3853 02ea 63686172 		.ascii	"char\000"
 3853      00
 3854              	.LASF7:
 3855 02ef 75696E74 		.ascii	"uint16_t\000"
 3855      31365F74 
 3855      00
 3856              	.LASF76:
 3857 02f8 55415254 		.ascii	"UART2_SendString\000"
 3857      325F5365 
 3857      6E645374 
 3857      72696E67 
 3857      00
 3858              	.LASF18:
 3859 0309 504F5254 		.ascii	"PORT_MemMapPtr\000"
 3859      5F4D656D 
 3859      4D617050 
 3859      747200
 3860              	.LASF92:
 3861 0318 55415254 		.ascii	"UART1_callback\000"
 3861      315F6361 
 3861      6C6C6261 
 3861      636B00
 3862              	.LASF90:
 3863 0327 55415254 		.ascii	"UART2_IntStatReg\000"
 3863      325F496E 
 3863      74537461 
 3863      74526567 
 3863      00
 3864              	.LASF21:
 3865 0338 534F5054 		.ascii	"SOPT1\000"
 3865      3100
 3866              	.LASF43:
 3867 033e 5549444C 		.ascii	"UIDL\000"
 3867      00
 3868              	.LASF85:
 3869 0343 55415254 		.ascii	"UART0_IntStatReg\000"
 3869      305F496E 
 3869      74537461 
 3869      74526567 
 3869      00
 3870              	.LASF47:
 3871 0354 53494D5F 		.ascii	"SIM_MemMapPtr\000"
 3871      4D656D4D 
 3871      61705074 
 3871      7200
 3872              	.LASF25:
 3873 0362 534F5054 		.ascii	"SOPT4\000"
 3873      3400
 3874              	.LASF86:
 3875 0368 55415254 		.ascii	"UART1_IRQHandler\000"
 3875      315F4952 
 3875      5148616E 
 3875      646C6572 
 3875      00
 3876              	.LASF41:
ARM GAS  /tmp/ccGhjqcS.s 			page 81


 3877 0379 5549444D 		.ascii	"UIDMH\000"
 3877      4800
 3878              	.LASF80:
 3879 037f 55415254 		.ascii	"UART2_IRQ_en\000"
 3879      325F4952 
 3879      515F656E 
 3879      00
 3880              	.LASF20:
 3881 038c 53494D5F 		.ascii	"SIM_MemMap\000"
 3881      4D656D4D 
 3881      617000
 3882              	.LASF52:
 3883 0397 55415254 		.ascii	"UART0_init\000"
 3883      305F696E 
 3883      697400
 3884              	.LASF16:
 3885 03a2 52455345 		.ascii	"RESERVED_0\000"
 3885      52564544 
 3885      5F3000
 3886              	.LASF24:
 3887 03ad 52455345 		.ascii	"RESERVED_1\000"
 3887      52564544 
 3887      5F3100
 3888              	.LASF27:
 3889 03b8 52455345 		.ascii	"RESERVED_2\000"
 3889      52564544 
 3889      5F3200
 3890              	.LASF29:
 3891 03c3 52455345 		.ascii	"RESERVED_3\000"
 3891      52564544 
 3891      5F3300
 3892              	.LASF61:
 3893 03ce 55415254 		.ascii	"UART0_reg_callback\000"
 3893      305F7265 
 3893      675F6361 
 3893      6C6C6261 
 3893      636B00
 3894              	.LASF37:
 3895 03e1 52455345 		.ascii	"RESERVED_5\000"
 3895      52564544 
 3895      5F3500
 3896              	.LASF40:
 3897 03ec 52455345 		.ascii	"RESERVED_6\000"
 3897      52564544 
 3897      5F3600
 3898              	.LASF46:
 3899 03f7 53525643 		.ascii	"SRVCOP\000"
 3899      4F5000
 3900              	.LASF96:
 3901 03fe 2F686F6D 		.ascii	"/home/glacsweb/glacsweb/contiki/examples/rime\000"
 3901      652F676C 
 3901      61637377 
 3901      65622F67 
 3901      6C616373 
 3902              	.LASF55:
 3903 042c 62617564 		.ascii	"bauddiv\000"
 3903      64697600 
ARM GAS  /tmp/ccGhjqcS.s 			page 82


 3904              	.LASF94:
 3905 0434 474E5520 		.ascii	"GNU C 4.8.3 20131129 (release) [ARM/embedded-4_8-br"
 3905      4320342E 
 3905      382E3320 
 3905      32303133 
 3905      31313239 
 3906 0467 616E6368 		.ascii	"anch revision 205641] -mcpu=cortex-m0plus -mthumb -"
 3906      20726576 
 3906      6973696F 
 3906      6E203230 
 3906      35363431 
 3907 049a 67647761 		.ascii	"gdwarf-2 -g -O -fomit-frame-pointer\000"
 3907      72662D32 
 3907      202D6720 
 3907      2D4F202D 
 3907      666F6D69 
 3908              	.LASF95:
 3909 04be 2E2E2F2E 		.ascii	"../../cpu/arm/mkl25z/./serial.c\000"
 3909      2E2F6370 
 3909      752F6172 
 3909      6D2F6D6B 
 3909      6C32357A 
 3910              	.LASF77:
 3911 04de 55415254 		.ascii	"UART_SendString\000"
 3911      5F53656E 
 3911      64537472 
 3911      696E6700 
 3912              	.LASF56:
 3913 04ee 55415254 		.ascii	"UART2_init\000"
 3913      325F696E 
 3913      697400
 3914              	.LASF57:
 3915 04f9 73657269 		.ascii	"serial_init\000"
 3915      616C5F69 
 3915      6E697400 
 3916              	.LASF97:
 3917 0505 4E564943 		.ascii	"NVIC_Set_Priority\000"
 3917      5F536574 
 3917      5F507269 
 3917      6F726974 
 3917      7900
 3918              	.LASF31:
 3919 0517 52455345 		.ascii	"RESERVED_4\000"
 3919      52564544 
 3919      5F3400
 3920              	.LASF71:
 3921 0522 55415254 		.ascii	"UART_PutChar\000"
 3921      5F507574 
 3921      43686172 
 3921      00
 3922              	.LASF65:
 3923 052f 55415254 		.ascii	"UART2_reg_callback\000"
 3923      325F7265 
 3923      675F6361 
 3923      6C6C6261 
 3923      636B00
 3924              	.LASF17:
ARM GAS  /tmp/ccGhjqcS.s 			page 83


 3925 0542 49534652 		.ascii	"ISFR\000"
 3925      00
 3926              		.ident	"GCC: (GNU Tools for ARM Embedded Processors) 4.8.3 20131129 (release) [ARM/embedded-4_8-br
ARM GAS  /tmp/ccGhjqcS.s 			page 84


DEFINED SYMBOLS
                            *ABS*:00000000 serial.c
     /tmp/ccGhjqcS.s:76     .text:00000000 $t
     /tmp/ccGhjqcS.s:81     .text:00000000 UART0_init
     /tmp/ccGhjqcS.s:223    .text:000000bc $d
     /tmp/ccGhjqcS.s:235    .text:000000e0 $t
     /tmp/ccGhjqcS.s:240    .text:000000e0 UART1_init
     /tmp/ccGhjqcS.s:332    .text:00000148 $d
     /tmp/ccGhjqcS.s:341    .text:00000160 $t
     /tmp/ccGhjqcS.s:346    .text:00000160 UART2_init
     /tmp/ccGhjqcS.s:438    .text:000001c8 $d
     /tmp/ccGhjqcS.s:447    .text:000001e0 $t
     /tmp/ccGhjqcS.s:452    .text:000001e0 serial_init
     /tmp/ccGhjqcS.s:490    .text:000001f8 UART0_reg_callback
     /tmp/ccGhjqcS.s:504    .text:00000200 $d
     /tmp/ccGhjqcS.s:508    .text:00000204 $t
     /tmp/ccGhjqcS.s:513    .text:00000204 UART1_reg_callback
     /tmp/ccGhjqcS.s:527    .text:0000020c $d
     /tmp/ccGhjqcS.s:531    .text:00000210 $t
     /tmp/ccGhjqcS.s:536    .text:00000210 UART2_reg_callback
     /tmp/ccGhjqcS.s:550    .text:00000218 $d
     /tmp/ccGhjqcS.s:554    .text:0000021c $t
     /tmp/ccGhjqcS.s:559    .text:0000021c UART0_PutChar
     /tmp/ccGhjqcS.s:580    .text:0000022c $d
     /tmp/ccGhjqcS.s:584    .text:00000230 $t
     /tmp/ccGhjqcS.s:589    .text:00000230 UART1_PutChar
     /tmp/ccGhjqcS.s:610    .text:00000240 $d
     /tmp/ccGhjqcS.s:614    .text:00000244 $t
     /tmp/ccGhjqcS.s:619    .text:00000244 UART2_PutChar
     /tmp/ccGhjqcS.s:640    .text:00000254 $d
     /tmp/ccGhjqcS.s:644    .text:00000258 $t
     /tmp/ccGhjqcS.s:649    .text:00000258 UART_PutChar
     /tmp/ccGhjqcS.s:703    .text:00000280 UART0_SendString
     /tmp/ccGhjqcS.s:742    .text:00000298 UART1_SendString
     /tmp/ccGhjqcS.s:781    .text:000002b0 UART2_SendString
     /tmp/ccGhjqcS.s:820    .text:000002c8 UART_SendString
     /tmp/ccGhjqcS.s:874    .text:000002f0 UART0_IRQ_en
     /tmp/ccGhjqcS.s:891    .text:00000300 $d
     /tmp/ccGhjqcS.s:895    .text:00000304 $t
     /tmp/ccGhjqcS.s:900    .text:00000304 UART1_IRQ_en
     /tmp/ccGhjqcS.s:917    .text:00000314 $d
     /tmp/ccGhjqcS.s:921    .text:00000318 $t
     /tmp/ccGhjqcS.s:926    .text:00000318 UART2_IRQ_en
     /tmp/ccGhjqcS.s:943    .text:00000328 $d
     /tmp/ccGhjqcS.s:947    .text:0000032c $t
     /tmp/ccGhjqcS.s:952    .text:0000032c UART0_IRQ_dis
     /tmp/ccGhjqcS.s:969    .text:0000033c $d
     /tmp/ccGhjqcS.s:973    .text:00000340 $t
     /tmp/ccGhjqcS.s:978    .text:00000340 UART1_IRQ_dis
     /tmp/ccGhjqcS.s:995    .text:00000350 $d
     /tmp/ccGhjqcS.s:999    .text:00000354 $t
     /tmp/ccGhjqcS.s:1004   .text:00000354 UART2_IRQ_dis
     /tmp/ccGhjqcS.s:1021   .text:00000364 $d
     /tmp/ccGhjqcS.s:1025   .text:00000368 $t
     /tmp/ccGhjqcS.s:1030   .text:00000368 UART0_IRQHandler
     /tmp/ccGhjqcS.s:1096   .text:000003a8 $d
     /tmp/ccGhjqcS.s:1101   .text:000003b0 $t
ARM GAS  /tmp/ccGhjqcS.s 			page 85


     /tmp/ccGhjqcS.s:1106   .text:000003b0 UART1_IRQHandler
     /tmp/ccGhjqcS.s:1172   .text:000003f0 $d
     /tmp/ccGhjqcS.s:1177   .text:000003f8 $t
     /tmp/ccGhjqcS.s:1182   .text:000003f8 UART2_IRQHandler
     /tmp/ccGhjqcS.s:1248   .text:00000438 $d
     /tmp/ccGhjqcS.s:1254   .bss:00000000 $d
     /tmp/ccGhjqcS.s:1258   .bss:00000000 UART0_callback
     /tmp/ccGhjqcS.s:1262   .bss:00000004 UART1_callback
     /tmp/ccGhjqcS.s:1266   .bss:00000008 UART2_callback
                     .debug_frame:00000010 $d

UNDEFINED SYMBOLS
__aeabi_uidiv
NVIC_Set_Priority
NVIC_ENABLE_INT
