ARM GAS  /tmp/ccGhjqcS.s 			page 1


   1              		.cpu cortex-m0plus
   2              		.fpu softvfp
   3              		.eabi_attribute 20, 1	@ Tag_ABI_FP_denormal
   4              		.eabi_attribute 21, 1	@ Tag_ABI_FP_exceptions
   5              		.eabi_attribute 23, 3	@ Tag_ABI_FP_number_model
   6              		.eabi_attribute 24, 1	@ Tag_ABI_align8_needed
   7              		.eabi_attribute 25, 1	@ Tag_ABI_align8_preserved
   8              		.eabi_attribute 26, 1	@ Tag_ABI_enum_size
   9              		.eabi_attribute 30, 1	@ Tag_ABI_optimization_goals
  10              		.eabi_attribute 34, 0	@ Tag_CPU_unaligned_access
  11              		.eabi_attribute 18, 4	@ Tag_ABI_PCS_wchar_t
  12              		.file	"serial.c"
  13              	@ GNU C (GNU Tools for ARM Embedded Processors) version 4.8.3 20131129 (release) [ARM/embedded-4_8-
  14              	@	compiled by GNU C version 4.6.3, GMP version 4.3.2, MPFR version 2.4.2, MPC version 0.8.1
  15              	@ GGC heuristics: --param ggc-min-expand=100 --param ggc-min-heapsize=131072
  16              	@ options passed:  -I . -I ../../cpu/arm/mkl25z
  17              	@ -I ../../cpu/arm/mkl25z/loader -I ../../cpu/arm/mkl25z/dbg-io
  18              	@ -I ../../dev -I ../../platform/frdm-kl25z-rf
  19              	@ -I /home/glacsweb/arm-gcc/ARM_GCC_Support/ewl/EWL_C/include
  20              	@ -I /home/glacsweb/arm-gcc/ARM_GCC_Support/ewl/EWL_Runtime/include
  21              	@ -I /home/glacsweb/arm-gcc/lib/gcc/arm-none-eabi/4.8.3/include
  22              	@ -I /home/glacsweb/arm-gcc/lib/gcc/arm-none-eabi/4.8.3/include-fixed
  23              	@ -I /home/glacsweb/arm-gcc/arm-none-eabi/include -I ../../dev/cc1120 -I .
  24              	@ -I ../../platform/frdm-kl25z-rf/. -I ../../platform/frdm-kl25z-rf/dev
  25              	@ -I ../../platform/frdm-kl25z-rf/apps -I ../../platform/frdm-kl25z-rf/net
  26              	@ -I ../../platform/frdm-kl25z-rf/../../dev/cc1120
  27              	@ -I ../../platform/frdm-kl25z-rf/../../core/net -I ../../cpu/arm/mkl25z/.
  28              	@ -I ../../cpu/arm/mkl25z/../common/dbg-io -I ../../cpu/arm/mkl25z/loader
  29              	@ -I ../../core/dev -I ../../core/lib -I ../../core/net
  30              	@ -I ../../core/net/mac -I ../../core/net/rime -I ../../core/net/rpl
  31              	@ -I ../../core/sys -I ../../core/cfs -I ../../core/ctk
  32              	@ -I ../../core/lib/ctk -I ../../core/loader -I ../../core/.
  33              	@ -I ../../platform/frdm-kl25z-rf/ -imultilib armv6-m
  34              	@ -iprefix /home/glacsweb/arm-gcc/bin/../lib/gcc/arm-none-eabi/4.8.3/
  35              	@ -isysroot /home/glacsweb/arm-gcc/bin/../arm-none-eabi -D__USES_INITFINI__
  36              	@ -D CONTIKI=1 -D CONTIKI_TARGET_FRDM_KL25Z_RF=1 -D WITH_UIP=1
  37              	@ -D MCK=48000000 -D AUTOSTART_ENABLE -D CC11xx_CC1120=1 -D RUN_AS_SYSTEM
  38              	@ -D ROM_RUN -D __SDCC
  39              	@ -D CONTIKI_VERSION_STRING="Contiki-KL25Z-Port-18-g5a8e189"
  40              	@ ../../cpu/arm/mkl25z/./serial.c -mcpu=cortex-m0plus -mthumb
  41              	@ -auxbase-strip obj_frdm-kl25z-rf/serial.o -gdwarf-2 -g -O -Wall
  42              	@ -Wstrict-prototypes -fomit-frame-pointer -fverbose-asm
  43              	@ options enabled:  -faggressive-loop-optimizations -fauto-inc-dec
  44              	@ -fbranch-count-reg -fcombine-stack-adjustments -fcommon -fcompare-elim
  45              	@ -fcprop-registers -fdefer-pop -fdelete-null-pointer-checks
  46              	@ -fdwarf2-cfi-asm -fearly-inlining -feliminate-unused-debug-types
  47              	@ -fforward-propagate -ffunction-cse -fgcse-lm -fgnu-runtime
  48              	@ -fguess-branch-probability -fident -fif-conversion -fif-conversion2
  49              	@ -finline -finline-atomics -finline-functions-called-once -fipa-profile
  50              	@ -fipa-pure-const -fipa-reference -fira-hoist-pressure
  51              	@ -fira-share-save-slots -fira-share-spill-slots -fivopts
  52              	@ -fkeep-static-consts -fleading-underscore -fmath-errno -fmerge-constants
  53              	@ -fmerge-debug-strings -fmove-loop-invariants -fomit-frame-pointer
  54              	@ -fpeephole -fprefetch-loop-arrays -freg-struct-return
  55              	@ -fsched-critical-path-heuristic -fsched-dep-count-heuristic
  56              	@ -fsched-group-heuristic -fsched-interblock -fsched-last-insn-heuristic
  57              	@ -fsched-pressure -fsched-rank-heuristic -fsched-spec
ARM GAS  /tmp/ccGhjqcS.s 			page 2


  58              	@ -fsched-spec-insn-heuristic -fsched-stalled-insns-dep -fsection-anchors
  59              	@ -fshow-column -fshrink-wrap -fsigned-zeros -fsplit-ivs-in-unroller
  60              	@ -fsplit-wide-types -fstrict-volatile-bitfields -fsync-libcalls
  61              	@ -ftoplevel-reorder -ftrapping-math -ftree-bit-ccp -ftree-ccp -ftree-ch
  62              	@ -ftree-coalesce-vars -ftree-copy-prop -ftree-copyrename -ftree-cselim
  63              	@ -ftree-dce -ftree-dominator-opts -ftree-dse -ftree-forwprop -ftree-fre
  64              	@ -ftree-loop-if-convert -ftree-loop-im -ftree-loop-ivcanon
  65              	@ -ftree-loop-optimize -ftree-parallelize-loops= -ftree-phiprop -ftree-pta
  66              	@ -ftree-reassoc -ftree-scev-cprop -ftree-sink -ftree-slp-vectorize
  67              	@ -ftree-slsr -ftree-sra -ftree-ter -ftree-vect-loop-version
  68              	@ -funit-at-a-time -fvar-tracking -fvar-tracking-assignments -fverbose-asm
  69              	@ -fzero-initialized-in-bss -mlittle-endian -mpic-data-is-text-relative
  70              	@ -msched-prolog -mthumb -mvectorize-with-neon-quad
  71              	
  72              		.text
  73              	.Ltext0:
  74              		.cfi_sections	.debug_frame
  75              		.global	__aeabi_uidiv
  76              		.align	2
  77              		.global	UART0_init
  78              		.code	16
  79              		.thumb_func
  80              		.type	UART0_init, %function
  81              	UART0_init:
  82              	.LFB1:
  83              		.file 1 "../../cpu/arm/mkl25z/./serial.c"
   1:../../cpu/arm/mkl25z/./serial.c **** /*-------------------------------------------------------------------------------------------------
   2:../../cpu/arm/mkl25z/./serial.c **** /*	serial.c	
   3:../../cpu/arm/mkl25z/./serial.c ****  *	
   4:../../cpu/arm/mkl25z/./serial.c ****  *	Initialisation & Commands for Serial communication on the Freescale FRDM-KL25z Freedom Board
   5:../../cpu/arm/mkl25z/./serial.c ****  *	
   6:../../cpu/arm/mkl25z/./serial.c ****  *	Author: Graeme Bragg
   7:../../cpu/arm/mkl25z/./serial.c ****  * 			ARM-ECS / Pervasive Systems Centre
   8:../../cpu/arm/mkl25z/./serial.c ****  * 			School of Electronics & Computer Science
   9:../../cpu/arm/mkl25z/./serial.c ****  * 			University of Southampton
  10:../../cpu/arm/mkl25z/./serial.c ****  * 
  11:../../cpu/arm/mkl25z/./serial.c ****  * 
  12:../../cpu/arm/mkl25z/./serial.c ****  *	25/2/2013	Rev.01		Includes functions for UART0 ONLY.  Configured to 
  13:../../cpu/arm/mkl25z/./serial.c ****  *							function on PTA1 and PTA2. Configured for 38400 8 N 1. 
  14:../../cpu/arm/mkl25z/./serial.c ****  *							Configured to run from MCGFLLCLK @ 20.97152MHz. Uses 
  15:../../cpu/arm/mkl25z/./serial.c ****  *							Interrupt for RX, does NOT use interrupt for TX.
  16:../../cpu/arm/mkl25z/./serial.c ****  *	7/3/2013	Rev.02		Modified UART0 IRQ to use a Callback if one is registered.
  17:../../cpu/arm/mkl25z/./serial.c ****  *	12/3/2013	Rev.03		Enabled dynamic baud rate setting.
  18:../../cpu/arm/mkl25z/./serial.c ****  *	5/2/2014	Rev.04		Added code for UART1 and UART2. Still static pin mappings.
  19:../../cpu/arm/mkl25z/./serial.c ****  *	11/2/2014	Rev.05		
  20:../../cpu/arm/mkl25z/./serial.c ****  *				
  21:../../cpu/arm/mkl25z/./serial.c ****  *
  22:../../cpu/arm/mkl25z/./serial.c ****  *	Page references relate to the KL25 Sub-Family Reference Manual, Document 
  23:../../cpu/arm/mkl25z/./serial.c ****  *	No. KL25P80M48SF0RM, Rev. 3 September 2012. Available on 25/02/2013 from: 
  24:../../cpu/arm/mkl25z/./serial.c ****  *	http://cache.freescale.com/files/32bit/doc/ref_manual/KL25P80M48SF0RM.pdf?fr=gdc
  25:../../cpu/arm/mkl25z/./serial.c ****  *	
  26:../../cpu/arm/mkl25z/./serial.c ****  *	Page references to "M0 Book" refer to "The Definitive Guide to the 
  27:../../cpu/arm/mkl25z/./serial.c ****  *	ARM Cortex-M0" by Joseph Yiu, ISBN 978-0-12-385477-3.
  28:../../cpu/arm/mkl25z/./serial.c ****  *	
  29:../../cpu/arm/mkl25z/./serial.c ****  *
  30:../../cpu/arm/mkl25z/./serial.c ****  *	***NB*** 	This file is intended for use with a new "Bareboard"  
  31:../../cpu/arm/mkl25z/./serial.c ****  *				project (with norapid-development) in Code Warrior.		
ARM GAS  /tmp/ccGhjqcS.s 			page 3


  32:../../cpu/arm/mkl25z/./serial.c ****  *				If this is not the case, you MUST ensure that an
  33:../../cpu/arm/mkl25z/./serial.c ****  *				appropriate entry of "UART0_IRQHandler" exists in  
  34:../../cpu/arm/mkl25z/./serial.c ****  *				entry 28 (address 0x00000070) of the VectorTable.
  35:../../cpu/arm/mkl25z/./serial.c ****  *
  36:../../cpu/arm/mkl25z/./serial.c ****  *				Appropriate entries for the interrupt handler exist
  37:../../cpu/arm/mkl25z/./serial.c ****  *				in the vector table contained in the generated 
  38:../../cpu/arm/mkl25z/./serial.c ****  *				kinetis_sysinit.c file
  39:../../cpu/arm/mkl25z/./serial.c ****  *
  40:../../cpu/arm/mkl25z/./serial.c ****  *
  41:../../cpu/arm/mkl25z/./serial.c ****  * Copyright (c) 2014, University of Southampton, Electronics and Computer Science
  42:../../cpu/arm/mkl25z/./serial.c ****  * All rights reserved.
  43:../../cpu/arm/mkl25z/./serial.c ****  *
  44:../../cpu/arm/mkl25z/./serial.c ****  * Redistribution and use in source and binary forms, with or without
  45:../../cpu/arm/mkl25z/./serial.c ****  * modification, are permitted provided that the following conditions
  46:../../cpu/arm/mkl25z/./serial.c ****  * are met:
  47:../../cpu/arm/mkl25z/./serial.c ****  * 1. Redistributions of source code must retain the above copyright
  48:../../cpu/arm/mkl25z/./serial.c ****  * notice, this list of conditions and the following disclaimer.
  49:../../cpu/arm/mkl25z/./serial.c ****  * 2. Redistributions in binary form must reproduce the above copyright
  50:../../cpu/arm/mkl25z/./serial.c ****  * notice, this list of conditions and the following disclaimer in the
  51:../../cpu/arm/mkl25z/./serial.c ****  * documentation and/or other materials provided with the distribution.
  52:../../cpu/arm/mkl25z/./serial.c ****  * 3. Neither the name of the Institute nor the names of its contributors
  53:../../cpu/arm/mkl25z/./serial.c ****  * may be used to endorse or promote products derived from this software
  54:../../cpu/arm/mkl25z/./serial.c ****  * without specific prior written permission.
  55:../../cpu/arm/mkl25z/./serial.c ****  *
  56:../../cpu/arm/mkl25z/./serial.c ****  * THIS SOFTWARE IS PROVIDED BY THE INSTITUTE AND CONTRIBUTORS ``AS IS'' AND
  57:../../cpu/arm/mkl25z/./serial.c ****  * ANY EXPRESS OR IMPLIED WARRANTIES, INCLUDING, BUT NOT LIMITED TO, THE
  58:../../cpu/arm/mkl25z/./serial.c ****  * IMPLIED WARRANTIES OF MERCHANTABILITY AND FITNESS FOR A PARTICULAR PURPOSE
  59:../../cpu/arm/mkl25z/./serial.c ****  * ARE DISCLAIMED. IN NO EVENT SHALL THE INSTITUTE OR CONTRIBUTORS BE LIABLE
  60:../../cpu/arm/mkl25z/./serial.c ****  * FOR ANY DIRECT, INDIRECT, INCIDENTAL, SPECIAL, EXEMPLARY, OR CONSEQUENTIAL
  61:../../cpu/arm/mkl25z/./serial.c ****  * DAMAGES (INCLUDING, BUT NOT LIMITED TO, PROCUREMENT OF SUBSTITUTE GOODS
  62:../../cpu/arm/mkl25z/./serial.c ****  * OR SERVICES; LOSS OF USE, DATA, OR PROFITS; OR BUSINESS INTERRUPTION)
  63:../../cpu/arm/mkl25z/./serial.c ****  * HOWEVER CAUSED AND ON ANY THEORY OF LIABILITY, WHETHER IN CONTRACT, STRICT
  64:../../cpu/arm/mkl25z/./serial.c ****  * LIABILITY, OR TORT (INCLUDING NEGLIGENCE OR OTHERWISE) ARISING IN ANY WAY
  65:../../cpu/arm/mkl25z/./serial.c ****  * OUT OF THE USE OF THIS SOFTWARE, EVEN IF ADVISED OF THE POSSIBILITY OF
  66:../../cpu/arm/mkl25z/./serial.c ****  * SUCH DAMAGE.
  67:../../cpu/arm/mkl25z/./serial.c ****  *
  68:../../cpu/arm/mkl25z/./serial.c ****  */				
  69:../../cpu/arm/mkl25z/./serial.c **** /*-------------------------------------------------------------------------------------------------
  70:../../cpu/arm/mkl25z/./serial.c **** 
  71:../../cpu/arm/mkl25z/./serial.c **** #include <stdlib.h>
  72:../../cpu/arm/mkl25z/./serial.c **** #include <stdio.h>
  73:../../cpu/arm/mkl25z/./serial.c **** #include <MKL25Z4.h>                   /* I/O map for MKL25Z128VLK4 */
  74:../../cpu/arm/mkl25z/./serial.c **** #include "nvic.h"
  75:../../cpu/arm/mkl25z/./serial.c **** #include "serial.h"
  76:../../cpu/arm/mkl25z/./serial.c **** #include "cpu.h"
  77:../../cpu/arm/mkl25z/./serial.c **** 
  78:../../cpu/arm/mkl25z/./serial.c **** /* Baud Rate is set using a combination of the Baud Rate Divider and Over Sampling Ratio.	*/
  79:../../cpu/arm/mkl25z/./serial.c **** /* BRD of 0x22 and OSR of 0x0F give a baud rate of 38550.5882 which functions with 38400.	*/		
  80:../../cpu/arm/mkl25z/./serial.c **** #define UART0_OSR		0x0F
  81:../../cpu/arm/mkl25z/./serial.c **** 
  82:../../cpu/arm/mkl25z/./serial.c **** /*-------------------------------------------------------------------------------------------------
  83:../../cpu/arm/mkl25z/./serial.c **** /*-------------------------------------------------------- Local Definitions ----------------------
  84:../../cpu/arm/mkl25z/./serial.c **** 
  85:../../cpu/arm/mkl25z/./serial.c **** /* Register Mask definitions.  Other used definitions are defined in MKL25Z4.h				*/
  86:../../cpu/arm/mkl25z/./serial.c **** #define UART_C2_TeRe	0x0C		/* UART C2 register Transmitter & Receiver enable mask.	*/
  87:../../cpu/arm/mkl25z/./serial.c **** #define UART_S1_Err		0x0F		/* UART S1 status register error mask.					*/
  88:../../cpu/arm/mkl25z/./serial.c **** 
ARM GAS  /tmp/ccGhjqcS.s 			page 4


  89:../../cpu/arm/mkl25z/./serial.c **** /*--------------------------------------------------------- End Definitions -----------------------
  90:../../cpu/arm/mkl25z/./serial.c **** /*-------------------------------------------------------------------------------------------------
  91:../../cpu/arm/mkl25z/./serial.c **** 
  92:../../cpu/arm/mkl25z/./serial.c **** static void (*UART0_callback)(char);
  93:../../cpu/arm/mkl25z/./serial.c **** static void (*UART1_callback)(char);
  94:../../cpu/arm/mkl25z/./serial.c **** static void (*UART2_callback)(char);
  95:../../cpu/arm/mkl25z/./serial.c **** 
  96:../../cpu/arm/mkl25z/./serial.c **** 
  97:../../cpu/arm/mkl25z/./serial.c **** /*-------------------------------------------------------------------------------------------------
  98:../../cpu/arm/mkl25z/./serial.c **** /* Initialisation Functions */
  99:../../cpu/arm/mkl25z/./serial.c **** 
 100:../../cpu/arm/mkl25z/./serial.c **** void serial_init(uint32_t UART0_baudrate, uint32_t UART1_baudrate, uint32_t UART2_baudrate)		/* Ini
 101:../../cpu/arm/mkl25z/./serial.c **** {
 102:../../cpu/arm/mkl25z/./serial.c **** 	UART0_init(UART0_baudrate);
 103:../../cpu/arm/mkl25z/./serial.c **** 	UART1_init(UART1_baudrate);
 104:../../cpu/arm/mkl25z/./serial.c **** 	UART2_init(UART2_baudrate);
 105:../../cpu/arm/mkl25z/./serial.c **** }
 106:../../cpu/arm/mkl25z/./serial.c **** 
 107:../../cpu/arm/mkl25z/./serial.c **** 
 108:../../cpu/arm/mkl25z/./serial.c **** void UART0_init(uint32_t baudrate) 		/* Initialise UART0.			*/
 109:../../cpu/arm/mkl25z/./serial.c **** {
  84              		.loc 1 109 0
  85              		.cfi_startproc
  86              	.LVL0:
  87 0000 70B5     		push	{r4, r5, r6, lr}	@
  88              	.LCFI0:
  89              		.cfi_def_cfa_offset 16
  90              		.cfi_offset 4, -16
  91              		.cfi_offset 5, -12
  92              		.cfi_offset 6, -8
  93              		.cfi_offset 14, -4
  94 0002 061E     		sub	r6, r0, #0	@ baudrate, baudrate,
 110:../../cpu/arm/mkl25z/./serial.c **** 	if(baudrate != NULL)
  95              		.loc 1 110 0
  96 0004 58D0     		beq	.L1	@,
  97              	.LBB2:
 111:../../cpu/arm/mkl25z/./serial.c **** 	{
 112:../../cpu/arm/mkl25z/./serial.c **** 		uint16_t bauddiv;
 113:../../cpu/arm/mkl25z/./serial.c **** 
 114:../../cpu/arm/mkl25z/./serial.c **** 		/* Configure Clocking for UART0					*/
 115:../../cpu/arm/mkl25z/./serial.c **** 		SIM_SCGC4 |= SIM_SCGC4_UART0_MASK;      										/* SIM_SCGC4: System Clock Gate Register 4, Pag
  98              		.loc 1 115 0
  99 0006 2D4B     		ldr	r3, .L3	@ tmp144,
 100 0008 2D4A     		ldr	r2, .L3+4	@ tmp145,
 101 000a 9858     		ldr	r0, [r3, r2]	@ D.5501, MEM[(volatile struct SIM_MemMap *)1074032640B].SCGC4
 102              	.LVL1:
 103 000c 8021     		mov	r1, #128	@ tmp260,
 104 000e C900     		lsl	r1, r1, #3	@ tmp146, tmp260,
 105 0010 0143     		orr	r1, r0	@ D.5501, D.5501
 106 0012 9950     		str	r1, [r3, r2]	@ D.5501, MEM[(volatile struct SIM_MemMap *)1074032640B].SCGC4
 116:../../cpu/arm/mkl25z/./serial.c **** 		SIM_SOPT2 = (uint32_t)((SIM_SOPT2 & ~SIM_SOPT2_UART0SRC_MASK) | 0x04000000);	/* SIM_SOPT2: Set UA
 107              		.loc 1 116 0
 108 0014 2B4A     		ldr	r2, .L3+8	@ tmp150,
 109 0016 9858     		ldr	r0, [r3, r2]	@ D.5501, MEM[(volatile struct SIM_MemMap *)1074032640B].SOPT2
 110 0018 2B49     		ldr	r1, .L3+12	@ tmp152,
 111 001a 0140     		and	r1, r0	@ D.5501, D.5501
 112 001c 8020     		mov	r0, #128	@ tmp261,
ARM GAS  /tmp/ccGhjqcS.s 			page 5


 113 001e C004     		lsl	r0, r0, #19	@ tmp153, tmp261,
 114 0020 0143     		orr	r1, r0	@ D.5501, tmp153
 115 0022 9950     		str	r1, [r3, r2]	@ D.5501, MEM[(volatile struct SIM_MemMap *)1074032640B].SOPT2
 117:../../cpu/arm/mkl25z/./serial.c **** 
 118:../../cpu/arm/mkl25z/./serial.c **** 		/* Configure pins: PTA1 as RX, PTA2 as TX		*/
 119:../../cpu/arm/mkl25z/./serial.c **** 		PORTA_PCR1 |=  0x205;                  				/* PORTA_PCR2: PortA, Pin2 Control Register, Page 183.
 116              		.loc 1 119 0
 117 0024 294B     		ldr	r3, .L3+16	@ tmp156,
 118 0026 5968     		ldr	r1, [r3, #4]	@ D.5501, MEM[(volatile struct PORT_MemMap *)1074040832B].PCR
 119 0028 294A     		ldr	r2, .L3+20	@ tmp157,
 120 002a 1143     		orr	r1, r2	@ D.5501, tmp157
 121 002c 5960     		str	r1, [r3, #4]	@ D.5501, MEM[(volatile struct PORT_MemMap *)1074040832B].PCR
 120:../../cpu/arm/mkl25z/./serial.c **** 		PORTA_PCR2 |=  0x205;    							/* PORTA_PCR2: PortA, Pin2 Control Register, Page 183. Sets PTA2 
 122              		.loc 1 120 0
 123 002e 9968     		ldr	r1, [r3, #8]	@ D.5501, MEM[(volatile struct PORT_MemMap *)1074040832B].PCR
 124 0030 0A43     		orr	r2, r1	@ D.5501, D.5501
 125 0032 9A60     		str	r2, [r3, #8]	@ D.5501, MEM[(volatile struct PORT_MemMap *)1074040832B].PCR
 121:../../cpu/arm/mkl25z/./serial.c **** 
 122:../../cpu/arm/mkl25z/./serial.c **** 		/* Configure Interrupt Controller for UART0		*/
 123:../../cpu/arm/mkl25z/./serial.c **** 		NVIC_Set_Priority(IRQ_UART0, 0x80);					/* Set UART0 priority to 2. */
 126              		.loc 1 123 0
 127 0034 0C20     		mov	r0, #12	@,
 128 0036 8021     		mov	r1, #128	@,
 129 0038 FFF7FEFF 		bl	NVIC_Set_Priority	@
 130              	.LVL2:
 124:../../cpu/arm/mkl25z/./serial.c **** 		NVIC_ENABLE_INT(IRQ_UART0);							/* Enable UART0 NVIC Interrupt. */	
 131              		.loc 1 124 0
 132 003c 0C20     		mov	r0, #12	@,
 133 003e FFF7FEFF 		bl	NVIC_ENABLE_INT	@
 134              	.LVL3:
 125:../../cpu/arm/mkl25z/./serial.c **** 		UART0_callback = NULL;								/* Set Callback to NULL */
 135              		.loc 1 125 0
 136 0042 0025     		mov	r5, #0	@ tmp163,
 137 0044 234B     		ldr	r3, .L3+24	@ tmp162,
 138 0046 1D60     		str	r5, [r3]	@ tmp163, UART0_callback
 126:../../cpu/arm/mkl25z/./serial.c **** 	
 127:../../cpu/arm/mkl25z/./serial.c **** 		//NVIC_IPR3 = (uint32_t)((NVIC_IPR3 & (uint32_t)~0x7F) | (uint32_t)0x80);	/* Set NVIC_IPR3: Irq 1
 128:../../cpu/arm/mkl25z/./serial.c **** 		//NVIC_ISER |= 0x1000; 													/* Set NVIC_ISER: Irq 0 to 31 Set-Enable Register. SETENA|=0x
 129:../../cpu/arm/mkl25z/./serial.c **** 															
 130:../../cpu/arm/mkl25z/./serial.c **** 		
 131:../../cpu/arm/mkl25z/./serial.c **** 		/* Configure UART0 Registers					*/
 132:../../cpu/arm/mkl25z/./serial.c **** 		//Clear control registers to ensure reset state.
 133:../../cpu/arm/mkl25z/./serial.c **** 		UART0_C2 = 0x00;   									/* Clear UART0_C2: Disable TX/RX for update of settings, disable inte
 139              		.loc 1 133 0
 140 0048 234C     		ldr	r4, .L3+28	@ tmp164,
 141 004a E570     		strb	r5, [r4, #3]	@ tmp163, MEM[(volatile struct UART0_MemMap *)1074176000B].C2
 134:../../cpu/arm/mkl25z/./serial.c **** 		UART0_C1 = 0x00;									/* Clear UART0_C1: Enable in wait mode & disable loop mode. Page 726. */
 142              		.loc 1 134 0
 143 004c A570     		strb	r5, [r4, #2]	@ tmp163, MEM[(volatile struct UART0_MemMap *)1074176000B].C1
 135:../../cpu/arm/mkl25z/./serial.c **** 		UART0_C3 = 0x00;									/* Clear UART0_C3: disable transmit inversion & interrupts. Page 733. */
 144              		.loc 1 135 0
 145 004e A571     		strb	r5, [r4, #6]	@ tmp163, MEM[(volatile struct UART0_MemMap *)1074176000B].C3
 136:../../cpu/arm/mkl25z/./serial.c **** 		UART0_C4 = 0x00;									/* Clear UART0_C4: Disable Match Address Mode & clear OSR. Page 736. */
 146              		.loc 1 136 0
 147 0050 A572     		strb	r5, [r4, #10]	@ tmp163, MEM[(volatile struct UART0_MemMap *)1074176000B].C4
 137:../../cpu/arm/mkl25z/./serial.c **** 		UART0_C5 = 0x00;									/* Clear UART0_C5: disable DMA & both-edge sampling. Page 737. */
 148              		.loc 1 137 0
ARM GAS  /tmp/ccGhjqcS.s 			page 6


 149 0052 E572     		strb	r5, [r4, #11]	@ tmp163, MEM[(volatile struct UART0_MemMap *)1074176000B].C5
 138:../../cpu/arm/mkl25z/./serial.c **** 		UART0_BDH = 0x00;									/* Clear UART0_BDH: Disable other interrupts. Page 725. */
 150              		.loc 1 138 0
 151 0054 2570     		strb	r5, [r4]	@ tmp163, MEM[(volatile struct UART0_MemMap *)1074176000B].BDH
 139:../../cpu/arm/mkl25z/./serial.c **** 		UART0_MA1 = 0x00;									/* Clear UART0_MA1: Match Address Register 1, only used if MAEN1 in UAR
 152              		.loc 1 139 0
 153 0056 2572     		strb	r5, [r4, #8]	@ tmp163, MEM[(volatile struct UART0_MemMap *)1074176000B].MA1
 140:../../cpu/arm/mkl25z/./serial.c **** 		UART0_MA2 = 0x00;									/* Clear UART0_MA2: Match Address Register 2, only used if MAEN2 in UAR
 154              		.loc 1 140 0
 155 0058 6572     		strb	r5, [r4, #9]	@ tmp163, MEM[(volatile struct UART0_MemMap *)1074176000B].MA2
 141:../../cpu/arm/mkl25z/./serial.c **** 		
 142:../../cpu/arm/mkl25z/./serial.c **** 		//Configure Baud Rate, 8 data bits, no parity and 1 stop bit
 143:../../cpu/arm/mkl25z/./serial.c **** 		bauddiv = CORECLK / ((UART0_OSR + 1) * baudrate);						/* Calculate Baud Rate divisor.  BR = BCLK
 156              		.loc 1 143 0
 157 005a 3101     		lsl	r1, r6, #4	@ D.5501, baudrate,
 158 005c 1F48     		ldr	r0, .L3+32	@,
 159 005e FFF7FEFF 		bl	__aeabi_uidiv	@
 160              	.LVL4:
 144:../../cpu/arm/mkl25z/./serial.c **** 		UART0_BDL = (uint8_t)(bauddiv & 0x00FF);								/* Set UART0_BDL: lower Baud Rate Divisor. Page 7
 161              		.loc 1 144 0
 162 0062 C3B2     		uxtb	r3, r0	@ D.5502, tmp191
 163 0064 6370     		strb	r3, [r4, #1]	@ D.5502, MEM[(volatile struct UART0_MemMap *)1074176000B].BDL
 145:../../cpu/arm/mkl25z/./serial.c **** 		UART0_BDH |= (uint8_t)((bauddiv >> 8) & 0x001F);						/* Set UART0_BDH: upper Baud Rate Divisor. 
 164              		.loc 1 145 0
 165 0066 2368     		ldr	r3, [r4]	@ tmp195,
 166 0068 DBB2     		uxtb	r3, r3	@ D.5502, tmp195
 167 006a C004     		lsl	r0, r0, #19	@ tmp202, tmp191,
 168              	.LVL5:
 169 006c C00E     		lsr	r0, r0, #27	@ tmp201, tmp202,
 170 006e 1843     		orr	r0, r3	@ D.5502, D.5502
 171 0070 2070     		strb	r0, [r4]	@ D.5502, MEM[(volatile struct UART0_MemMap *)1074176000B].BDH
 146:../../cpu/arm/mkl25z/./serial.c **** 		UART0_C4 = (UART0_C4 & ~UART0_C4_OSR_MASK) | ((UART0_OSR) & 0x1F);		/* Set UART0_C4: oversampling
 172              		.loc 1 146 0
 173 0072 A368     		ldr	r3, [r4, #8]	@ tmp209,
 174 0074 1B02     		lsl	r3, r3, #8	@ tmp211, tmp209,
 175 0076 1B0E     		lsr	r3, r3, #24	@ D.5502, tmp211,
 176 0078 1F22     		mov	r2, #31	@ tmp200,
 177 007a 9343     		bic	r3, r2	@ tmp212, tmp200
 178 007c 0F22     		mov	r2, #15	@ tmp217,
 179 007e 1343     		orr	r3, r2	@ D.5502, tmp217
 180 0080 A372     		strb	r3, [r4, #10]	@ D.5502, MEM[(volatile struct UART0_MemMap *)1074176000B].C4
 147:../../cpu/arm/mkl25z/./serial.c **** 		UART0_C1 &= ~(UART0_C1_M_MASK);											/* Set UART0_C1: 8 data bits. Page 726. */
 181              		.loc 1 147 0
 182 0082 2368     		ldr	r3, [r4]	@ tmp221,
 183 0084 1B02     		lsl	r3, r3, #8	@ tmp223, tmp221,
 184 0086 1B0E     		lsr	r3, r3, #24	@ D.5502, tmp223,
 185 0088 1022     		mov	r2, #16	@ tmp225,
 186 008a 9343     		bic	r3, r2	@ D.5502, tmp225
 187 008c A370     		strb	r3, [r4, #2]	@ D.5502, MEM[(volatile struct UART0_MemMap *)1074176000B].C1
 148:../../cpu/arm/mkl25z/./serial.c **** 		UART0_C1 &= ~(UART0_C1_PE_MASK);										/* Set UART0_C1: no parity. Page 726. */
 188              		.loc 1 148 0
 189 008e 2368     		ldr	r3, [r4]	@ tmp229,
 190 0090 1B02     		lsl	r3, r3, #8	@ tmp231, tmp229,
 191 0092 1B0E     		lsr	r3, r3, #24	@ D.5502, tmp231,
 192 0094 0222     		mov	r2, #2	@ tmp233,
 193 0096 9343     		bic	r3, r2	@ D.5502, tmp233
 194 0098 A370     		strb	r3, [r4, #2]	@ D.5502, MEM[(volatile struct UART0_MemMap *)1074176000B].C1
ARM GAS  /tmp/ccGhjqcS.s 			page 7


 149:../../cpu/arm/mkl25z/./serial.c **** 		UART0_BDH &= ~(UART0_BDH_SBNS_MASK);									/* Set UART0_BDH: 1 stop bit. Page 725. */
 195              		.loc 1 149 0
 196 009a 2268     		ldr	r2, [r4]	@ tmp237,
 197 009c DF23     		mov	r3, #223	@ tmp239,
 198 009e 1340     		and	r3, r2	@ D.5502, tmp237
 199 00a0 2370     		strb	r3, [r4]	@ D.5502, MEM[(volatile struct UART0_MemMap *)1074176000B].BDH
 150:../../cpu/arm/mkl25z/./serial.c **** 		if ( 4 <= UART0_OSR && UART0_OSR <= 7)									/* If OSR is between 4 and 7 */
 151:../../cpu/arm/mkl25z/./serial.c **** 		{
 152:../../cpu/arm/mkl25z/./serial.c **** 			UART0_C5 |= UART0_C5_BOTHEDGE_MASK;									/* enable both edge receive sampling as per Page 737
 153:../../cpu/arm/mkl25z/./serial.c **** 		}
 154:../../cpu/arm/mkl25z/./serial.c **** 		  
 155:../../cpu/arm/mkl25z/./serial.c **** 		// Clear status Registers  
 156:../../cpu/arm/mkl25z/./serial.c **** 		UART0_S1 |= (uint8_t)(UART_S1_IDLE_MASK | UART_S1_Err);	/* UART0_S1: Set UART0 Status Register S1
 200              		.loc 1 156 0
 201 00a2 6368     		ldr	r3, [r4, #4]	@ tmp243,
 202 00a4 DBB2     		uxtb	r3, r3	@ D.5502, tmp243
 203 00a6 1F22     		mov	r2, #31	@ tmp246,
 204 00a8 1343     		orr	r3, r2	@ D.5502, tmp246
 205 00aa 2371     		strb	r3, [r4, #4]	@ D.5502, MEM[(volatile struct UART0_MemMap *)1074176000B].S1
 157:../../cpu/arm/mkl25z/./serial.c **** 		UART0_S2 = (uint8_t)0x00;								/* UART0_S2: Set UART0 Status Register S2, Page 729. LBKDIF=0,RX
 206              		.loc 1 157 0
 207 00ac 6571     		strb	r5, [r4, #5]	@ tmp163, MEM[(volatile struct UART0_MemMap *)1074176000B].S2
 158:../../cpu/arm/mkl25z/./serial.c **** 		
 159:../../cpu/arm/mkl25z/./serial.c **** 		//Enable the Transmitter & Receiver after UART0 settings update
 160:../../cpu/arm/mkl25z/./serial.c **** 		UART0_C2 |= (uint8_t)UART_C2_TeRe;  					/* UART0_C2: Enable TX/RX, Page 728.  TIE=0,TCIE=0,RIE=0
 208              		.loc 1 160 0
 209 00ae 2368     		ldr	r3, [r4]	@ tmp253,
 210 00b0 1B0E     		lsr	r3, r3, #24	@ D.5502, tmp253,
 211 00b2 0C22     		mov	r2, #12	@ tmp257,
 212 00b4 1343     		orr	r3, r2	@ D.5502, tmp257
 213 00b6 E370     		strb	r3, [r4, #3]	@ D.5502, MEM[(volatile struct UART0_MemMap *)1074176000B].C2
 214              	.L1:
 215              	.LBE2:
 161:../../cpu/arm/mkl25z/./serial.c **** 	}
 162:../../cpu/arm/mkl25z/./serial.c **** }
 216              		.loc 1 162 0
 217              		@ sp needed	@
 218              	.LVL6:
 219 00b8 70BD     		pop	{r4, r5, r6, pc}
 220              	.L4:
 221 00ba C046     		.align	2
 222              	.L3:
 223 00bc 00700440 		.word	1074032640
 224 00c0 34100000 		.word	4148
 225 00c4 04100000 		.word	4100
 226 00c8 FFFFFFF3 		.word	-201326593
 227 00cc 00900440 		.word	1074040832
 228 00d0 05020000 		.word	517
 229 00d4 00000000 		.word	.LANCHOR0
 230 00d8 00A00640 		.word	1074176000
 231 00dc 006CDC02 		.word	48000000
 232              		.cfi_endproc
 233              	.LFE1:
 234              		.size	UART0_init, .-UART0_init
 235              		.align	2
 236              		.global	UART1_init
 237              		.code	16
ARM GAS  /tmp/ccGhjqcS.s 			page 8


 238              		.thumb_func
 239              		.type	UART1_init, %function
 240              	UART1_init:
 241              	.LFB2:
 163:../../cpu/arm/mkl25z/./serial.c **** 
 164:../../cpu/arm/mkl25z/./serial.c **** void UART1_init(uint32_t baudrate) 		/* Initialise UART1.			*/
 165:../../cpu/arm/mkl25z/./serial.c **** {
 242              		.loc 1 165 0
 243              		.cfi_startproc
 244              	.LVL7:
 245 00e0 70B5     		push	{r4, r5, r6, lr}	@
 246              	.LCFI1:
 247              		.cfi_def_cfa_offset 16
 248              		.cfi_offset 4, -16
 249              		.cfi_offset 5, -12
 250              		.cfi_offset 6, -8
 251              		.cfi_offset 14, -4
 252 00e2 061E     		sub	r6, r0, #0	@ baudrate, baudrate,
 166:../../cpu/arm/mkl25z/./serial.c **** 	if(baudrate != NULL)
 253              		.loc 1 166 0
 254 00e4 2FD0     		beq	.L5	@,
 255              	.LBB3:
 167:../../cpu/arm/mkl25z/./serial.c **** 	{
 168:../../cpu/arm/mkl25z/./serial.c **** 		uint16_t bauddiv;
 169:../../cpu/arm/mkl25z/./serial.c **** 
 170:../../cpu/arm/mkl25z/./serial.c **** 		/* Configure Clocking for UART0					*/
 171:../../cpu/arm/mkl25z/./serial.c **** 		SIM_SCGC4 |= SIM_SCGC4_UART1_MASK;      		/* SIM_SCGC4: System Clock Gate Register 4, Page 204.  
 256              		.loc 1 171 0
 257 00e6 184A     		ldr	r2, .L7	@ tmp125,
 258 00e8 184B     		ldr	r3, .L7+4	@ tmp126,
 259 00ea D058     		ldr	r0, [r2, r3]	@ D.5507, MEM[(volatile struct SIM_MemMap *)1074032640B].SCGC4
 260              	.LVL8:
 261 00ec 8021     		mov	r1, #128	@ tmp181,
 262 00ee 0901     		lsl	r1, r1, #4	@ tmp127, tmp181,
 263 00f0 0143     		orr	r1, r0	@ D.5507, D.5507
 264 00f2 D150     		str	r1, [r2, r3]	@ D.5507, MEM[(volatile struct SIM_MemMap *)1074032640B].SCGC4
 172:../../cpu/arm/mkl25z/./serial.c **** 		
 173:../../cpu/arm/mkl25z/./serial.c **** 		/* Configure pins: PTE1 as RX, PTE0 as TX		*/
 174:../../cpu/arm/mkl25z/./serial.c **** 		PORTE_PCR1 |= 0x300;                                                 
 265              		.loc 1 174 0
 266 00f4 164B     		ldr	r3, .L7+8	@ tmp130,
 267 00f6 5968     		ldr	r1, [r3, #4]	@ D.5507, MEM[(volatile struct PORT_MemMap *)1074057216B].PCR
 268 00f8 C022     		mov	r2, #192	@ tmp182,
 269 00fa 9200     		lsl	r2, r2, #2	@ tmp131, tmp182,
 270 00fc 1143     		orr	r1, r2	@ D.5507, tmp131
 271 00fe 5960     		str	r1, [r3, #4]	@ D.5507, MEM[(volatile struct PORT_MemMap *)1074057216B].PCR
 175:../../cpu/arm/mkl25z/./serial.c **** 		PORTE_PCR0 |= 0x300; 
 272              		.loc 1 175 0
 273 0100 1968     		ldr	r1, [r3]	@ D.5507, MEM[(volatile struct PORT_MemMap *)1074057216B].PCR
 274 0102 0A43     		orr	r2, r1	@ D.5507, D.5507
 275 0104 1A60     		str	r2, [r3]	@ D.5507, MEM[(volatile struct PORT_MemMap *)1074057216B].PCR
 176:../../cpu/arm/mkl25z/./serial.c **** 		
 177:../../cpu/arm/mkl25z/./serial.c **** 		/* Configure Interrupt Controller for UART1		*/
 178:../../cpu/arm/mkl25z/./serial.c **** 		NVIC_Set_Priority(IRQ_UART1, 0x80);					/* Set UART1 priority to 2. */
 276              		.loc 1 178 0
 277 0106 0D20     		mov	r0, #13	@,
 278 0108 8021     		mov	r1, #128	@,
ARM GAS  /tmp/ccGhjqcS.s 			page 9


 279 010a FFF7FEFF 		bl	NVIC_Set_Priority	@
 280              	.LVL9:
 179:../../cpu/arm/mkl25z/./serial.c **** 		NVIC_ENABLE_INT(IRQ_UART1);							/* Enable UART1 NVIC Interrupt. */	
 281              		.loc 1 179 0
 282 010e 0D20     		mov	r0, #13	@,
 283 0110 FFF7FEFF 		bl	NVIC_ENABLE_INT	@
 284              	.LVL10:
 180:../../cpu/arm/mkl25z/./serial.c **** 		UART1_callback = NULL;								/* Set Callback to NULL */
 285              		.loc 1 180 0
 286 0114 0025     		mov	r5, #0	@ tmp137,
 287 0116 0F4B     		ldr	r3, .L7+12	@ tmp136,
 288 0118 5D60     		str	r5, [r3, #4]	@ tmp137, UART1_callback
 181:../../cpu/arm/mkl25z/./serial.c **** 		
 182:../../cpu/arm/mkl25z/./serial.c **** 		//NVIC_IPR3 = (uint32_t)((NVIC_IPR3 & (uint32_t)~(uint32_t)(NVIC_IP_PRI_13(0x7F))) | (uint32_t)(N
 183:../../cpu/arm/mkl25z/./serial.c **** 		//NVIC_ISER |= 0x2000;  
 184:../../cpu/arm/mkl25z/./serial.c **** 		
 185:../../cpu/arm/mkl25z/./serial.c **** 		
 186:../../cpu/arm/mkl25z/./serial.c **** 		/* Configure UART1 Registers					*/
 187:../../cpu/arm/mkl25z/./serial.c **** 		//Clear control registers to ensure reset state.
 188:../../cpu/arm/mkl25z/./serial.c **** 		UART1_C2 = 0x00;   									/* Clear UART1_C2: Disable TX/RX for update of settings, disable inte
 289              		.loc 1 188 0
 290 011a 0F4C     		ldr	r4, .L7+16	@ tmp138,
 291 011c E570     		strb	r5, [r4, #3]	@ tmp137, MEM[(volatile struct UART_MemMap *)1074180096B].C2
 189:../../cpu/arm/mkl25z/./serial.c **** 		UART1_C1 = 0x00;									/* Clear UART1_C1: Enable in wait mode & disable loop mode. Page 752. */
 292              		.loc 1 189 0
 293 011e A570     		strb	r5, [r4, #2]	@ tmp137, MEM[(volatile struct UART_MemMap *)1074180096B].C1
 190:../../cpu/arm/mkl25z/./serial.c **** 		UART1_C3 = 0x00;									/* Clear UART1_C3: disable transmit inversion & interrupts. Page 758. */
 294              		.loc 1 190 0
 295 0120 A571     		strb	r5, [r4, #6]	@ tmp137, MEM[(volatile struct UART_MemMap *)1074180096B].C3
 191:../../cpu/arm/mkl25z/./serial.c **** 		UART1_C4 = 0x00;									/* Clear UART1_C4: Disable Match Address Mode & clear OSR. Page 760. */
 296              		.loc 1 191 0
 297 0122 2572     		strb	r5, [r4, #8]	@ tmp137, MEM[(volatile struct UART_MemMap *)1074180096B].C4
 192:../../cpu/arm/mkl25z/./serial.c **** 		UART1_BDH = 0x00;									/* Clear UART1_BDH: Disable other interrupts. Page 751. */
 298              		.loc 1 192 0
 299 0124 2570     		strb	r5, [r4]	@ tmp137, MEM[(volatile struct UART_MemMap *)1074180096B].BDH
 193:../../cpu/arm/mkl25z/./serial.c **** 		UART1_BDL = 0x00;									/* Clear UART1_BDL: Commit BDH changes. Page 751. */
 300              		.loc 1 193 0
 301 0126 6570     		strb	r5, [r4, #1]	@ tmp137, MEM[(volatile struct UART_MemMap *)1074180096B].BDL
 194:../../cpu/arm/mkl25z/./serial.c **** 				
 195:../../cpu/arm/mkl25z/./serial.c **** 		//Configure Baud Rate, 8 data bits, no parity and 1 stop bit
 196:../../cpu/arm/mkl25z/./serial.c **** 		bauddiv = BUSCLK / baudrate;											/* Calculate Baud Rate divisor.  BR = BCLK / BRD.  Page 76
 302              		.loc 1 196 0
 303 0128 0C48     		ldr	r0, .L7+20	@,
 304 012a 311C     		mov	r1, r6	@, baudrate
 305 012c FFF7FEFF 		bl	__aeabi_uidiv	@
 306              	.LVL11:
 197:../../cpu/arm/mkl25z/./serial.c **** 		UART1_BDH = (uint8_t)((bauddiv >> 8) & 0x001F);							/* Set UART1_BDH: upper Baud Rate Divisor. 
 307              		.loc 1 197 0
 308 0130 C304     		lsl	r3, r0, #19	@ tmp165, tmp158,
 309 0132 DB0E     		lsr	r3, r3, #27	@ D.5509, tmp165,
 310 0134 2370     		strb	r3, [r4]	@ D.5509, MEM[(volatile struct UART_MemMap *)1074180096B].BDH
 198:../../cpu/arm/mkl25z/./serial.c **** 		UART1_BDL = (uint8_t)(bauddiv & 0x00FF);								/* Set UART1_BDL: lower Baud Rate Divisor. Page 7
 311              		.loc 1 198 0
 312 0136 C0B2     		uxtb	r0, r0	@ D.5509, tmp158
 313              	.LVL12:
 314 0138 6070     		strb	r0, [r4, #1]	@ D.5509, MEM[(volatile struct UART_MemMap *)1074180096B].BDL
 199:../../cpu/arm/mkl25z/./serial.c **** 		
ARM GAS  /tmp/ccGhjqcS.s 			page 10


 200:../../cpu/arm/mkl25z/./serial.c **** 
 201:../../cpu/arm/mkl25z/./serial.c **** 		// Clear status Registers  
 202:../../cpu/arm/mkl25z/./serial.c **** 		/* UART1_S1: No writes needed to clear. Page 755. */
 203:../../cpu/arm/mkl25z/./serial.c **** 		UART1_S2 = (uint8_t)0x00;								/* UART1_S2: Set UART1 Status Register S2, Page 756. */
 315              		.loc 1 203 0
 316 013a 6571     		strb	r5, [r4, #5]	@ tmp137, MEM[(volatile struct UART_MemMap *)1074180096B].S2
 204:../../cpu/arm/mkl25z/./serial.c **** 		
 205:../../cpu/arm/mkl25z/./serial.c **** 		//Enable the Transmitter & Receiver after UART0 settings update
 206:../../cpu/arm/mkl25z/./serial.c **** 		UART1_C2 |= (uint8_t)UART_C2_TeRe;  					/* UART1_C2: Enable TX/RX, Page 753.  TIE=0,TCIE=0,RIE=0
 317              		.loc 1 206 0
 318 013c 2368     		ldr	r3, [r4]	@ tmp174,
 319 013e 1B0E     		lsr	r3, r3, #24	@ D.5509, tmp174,
 320 0140 0C22     		mov	r2, #12	@ tmp178,
 321 0142 1343     		orr	r3, r2	@ D.5509, tmp178
 322 0144 E370     		strb	r3, [r4, #3]	@ D.5509, MEM[(volatile struct UART_MemMap *)1074180096B].C2
 323              	.L5:
 324              	.LBE3:
 207:../../cpu/arm/mkl25z/./serial.c **** 	}
 208:../../cpu/arm/mkl25z/./serial.c **** }
 325              		.loc 1 208 0
 326              		@ sp needed	@
 327              	.LVL13:
 328 0146 70BD     		pop	{r4, r5, r6, pc}
 329              	.L8:
 330              		.align	2
 331              	.L7:
 332 0148 00700440 		.word	1074032640
 333 014c 34100000 		.word	4148
 334 0150 00D00440 		.word	1074057216
 335 0154 00000000 		.word	.LANCHOR0
 336 0158 00B00640 		.word	1074180096
 337 015c 00366E01 		.word	24000000
 338              		.cfi_endproc
 339              	.LFE2:
 340              		.size	UART1_init, .-UART1_init
 341              		.align	2
 342              		.global	UART2_init
 343              		.code	16
 344              		.thumb_func
 345              		.type	UART2_init, %function
 346              	UART2_init:
 347              	.LFB3:
 209:../../cpu/arm/mkl25z/./serial.c **** 
 210:../../cpu/arm/mkl25z/./serial.c **** void UART2_init(uint32_t baudrate) 		/* Initialise UART1.			*/
 211:../../cpu/arm/mkl25z/./serial.c **** {
 348              		.loc 1 211 0
 349              		.cfi_startproc
 350              	.LVL14:
 351 0160 70B5     		push	{r4, r5, r6, lr}	@
 352              	.LCFI2:
 353              		.cfi_def_cfa_offset 16
 354              		.cfi_offset 4, -16
 355              		.cfi_offset 5, -12
 356              		.cfi_offset 6, -8
 357              		.cfi_offset 14, -4
 358 0162 061E     		sub	r6, r0, #0	@ baudrate, baudrate,
 212:../../cpu/arm/mkl25z/./serial.c **** 	if(baudrate != NULL)
ARM GAS  /tmp/ccGhjqcS.s 			page 11


 359              		.loc 1 212 0
 360 0164 2FD0     		beq	.L9	@,
 361              	.LBB4:
 213:../../cpu/arm/mkl25z/./serial.c **** 	{
 214:../../cpu/arm/mkl25z/./serial.c **** 		uint16_t bauddiv;
 215:../../cpu/arm/mkl25z/./serial.c **** 
 216:../../cpu/arm/mkl25z/./serial.c **** 		/* Configure Clocking for UART0					*/
 217:../../cpu/arm/mkl25z/./serial.c **** 		SIM_SCGC4 |= SIM_SCGC4_UART2_MASK;      		/* SIM_SCGC4: System Clock Gate Register 4, Page 204.  
 362              		.loc 1 217 0
 363 0166 184A     		ldr	r2, .L11	@ tmp125,
 364 0168 184B     		ldr	r3, .L11+4	@ tmp126,
 365 016a D058     		ldr	r0, [r2, r3]	@ D.5512, MEM[(volatile struct SIM_MemMap *)1074032640B].SCGC4
 366              	.LVL15:
 367 016c 8021     		mov	r1, #128	@ tmp181,
 368 016e 4901     		lsl	r1, r1, #5	@ tmp127, tmp181,
 369 0170 0143     		orr	r1, r0	@ D.5512, D.5512
 370 0172 D150     		str	r1, [r2, r3]	@ D.5512, MEM[(volatile struct SIM_MemMap *)1074032640B].SCGC4
 218:../../cpu/arm/mkl25z/./serial.c **** 		
 219:../../cpu/arm/mkl25z/./serial.c **** 		/* Configure pins: PTE23 as RX, PTE22 as TX		*/
 220:../../cpu/arm/mkl25z/./serial.c **** 		PORTE_PCR23 |= 0x400;                                                 
 371              		.loc 1 220 0
 372 0174 164B     		ldr	r3, .L11+8	@ tmp130,
 373 0176 D96D     		ldr	r1, [r3, #92]	@ D.5512, MEM[(volatile struct PORT_MemMap *)1074057216B].PCR
 374 0178 8022     		mov	r2, #128	@ tmp182,
 375 017a D200     		lsl	r2, r2, #3	@ tmp131, tmp182,
 376 017c 1143     		orr	r1, r2	@ D.5512, tmp131
 377 017e D965     		str	r1, [r3, #92]	@ D.5512, MEM[(volatile struct PORT_MemMap *)1074057216B].PCR
 221:../../cpu/arm/mkl25z/./serial.c **** 		PORTE_PCR22 |= 0x400; 
 378              		.loc 1 221 0
 379 0180 996D     		ldr	r1, [r3, #88]	@ D.5512, MEM[(volatile struct PORT_MemMap *)1074057216B].PCR
 380 0182 0A43     		orr	r2, r1	@ D.5512, D.5512
 381 0184 9A65     		str	r2, [r3, #88]	@ D.5512, MEM[(volatile struct PORT_MemMap *)1074057216B].PCR
 222:../../cpu/arm/mkl25z/./serial.c **** 		
 223:../../cpu/arm/mkl25z/./serial.c **** 		/* Configure Interrupt Controller for UART2		*/
 224:../../cpu/arm/mkl25z/./serial.c **** 		NVIC_Set_Priority(IRQ_UART2, 0x80);					/* Set UART2 priority to 2. */
 382              		.loc 1 224 0
 383 0186 0E20     		mov	r0, #14	@,
 384 0188 8021     		mov	r1, #128	@,
 385 018a FFF7FEFF 		bl	NVIC_Set_Priority	@
 386              	.LVL16:
 225:../../cpu/arm/mkl25z/./serial.c **** 		NVIC_ENABLE_INT(IRQ_UART2);							/* Enable UART2 NVIC Interrupt. */	
 387              		.loc 1 225 0
 388 018e 0E20     		mov	r0, #14	@,
 389 0190 FFF7FEFF 		bl	NVIC_ENABLE_INT	@
 390              	.LVL17:
 226:../../cpu/arm/mkl25z/./serial.c **** 		UART2_callback = NULL;								/* Set Callback to NULL */
 391              		.loc 1 226 0
 392 0194 0025     		mov	r5, #0	@ tmp137,
 393 0196 0F4B     		ldr	r3, .L11+12	@ tmp136,
 394 0198 9D60     		str	r5, [r3, #8]	@ tmp137, UART2_callback
 227:../../cpu/arm/mkl25z/./serial.c **** 		
 228:../../cpu/arm/mkl25z/./serial.c **** 		//NVIC_IPR3 = (uint32_t)((NVIC_IPR3 & (uint32_t)~(uint32_t)(NVIC_IP_PRI_14(0x7F))) | (uint32_t)(N
 229:../../cpu/arm/mkl25z/./serial.c **** 		//NVIC_ISER |= 0x4000;  
 230:../../cpu/arm/mkl25z/./serial.c **** 		
 231:../../cpu/arm/mkl25z/./serial.c **** 		/* Configure UART1 Registers					*/
 232:../../cpu/arm/mkl25z/./serial.c **** 		//Clear control registers to ensure reset state.
 233:../../cpu/arm/mkl25z/./serial.c **** 		UART2_C2 = 0x00;   									/* Clear UART2_C2: Disable TX/RX for update of settings, disable inte
ARM GAS  /tmp/ccGhjqcS.s 			page 12


 395              		.loc 1 233 0
 396 019a 0F4C     		ldr	r4, .L11+16	@ tmp138,
 397 019c E570     		strb	r5, [r4, #3]	@ tmp137, MEM[(volatile struct UART_MemMap *)1074184192B].C2
 234:../../cpu/arm/mkl25z/./serial.c **** 		UART2_C1 = 0x00;									/* Clear UART2_C1: Enable in wait mode & disable loop mode. Page 752. */
 398              		.loc 1 234 0
 399 019e A570     		strb	r5, [r4, #2]	@ tmp137, MEM[(volatile struct UART_MemMap *)1074184192B].C1
 235:../../cpu/arm/mkl25z/./serial.c **** 		UART2_C3 = 0x00;									/* Clear UART2_C3: disable transmit inversion & interrupts. Page 758. */
 400              		.loc 1 235 0
 401 01a0 A571     		strb	r5, [r4, #6]	@ tmp137, MEM[(volatile struct UART_MemMap *)1074184192B].C3
 236:../../cpu/arm/mkl25z/./serial.c **** 		UART2_C4 = 0x00;									/* Clear UART2_C4: Disable Match Address Mode & clear OSR. Page 760. */
 402              		.loc 1 236 0
 403 01a2 2572     		strb	r5, [r4, #8]	@ tmp137, MEM[(volatile struct UART_MemMap *)1074184192B].C4
 237:../../cpu/arm/mkl25z/./serial.c **** 		UART2_BDH = 0x00;									/* Clear UART2_BDH: Disable other interrupts. Page 751. */
 404              		.loc 1 237 0
 405 01a4 2570     		strb	r5, [r4]	@ tmp137, MEM[(volatile struct UART_MemMap *)1074184192B].BDH
 238:../../cpu/arm/mkl25z/./serial.c **** 		UART2_BDL = 0x00;									/* Clear UART2_BDL: Commit BDH changes. Page 751. */
 406              		.loc 1 238 0
 407 01a6 6570     		strb	r5, [r4, #1]	@ tmp137, MEM[(volatile struct UART_MemMap *)1074184192B].BDL
 239:../../cpu/arm/mkl25z/./serial.c **** 				
 240:../../cpu/arm/mkl25z/./serial.c **** 		//Configure Baud Rate, 8 data bits, no parity and 1 stop bit
 241:../../cpu/arm/mkl25z/./serial.c **** 		bauddiv = BUSCLK / baudrate;											/* Calculate Baud Rate divisor.  BR = BCLK / BRD.  Page 76
 408              		.loc 1 241 0
 409 01a8 0C48     		ldr	r0, .L11+20	@,
 410 01aa 311C     		mov	r1, r6	@, baudrate
 411 01ac FFF7FEFF 		bl	__aeabi_uidiv	@
 412              	.LVL18:
 242:../../cpu/arm/mkl25z/./serial.c **** 		UART2_BDH = (uint8_t)((bauddiv >> 8) & 0x001F);							/* Set UART2_BDH: upper Baud Rate Divisor. 
 413              		.loc 1 242 0
 414 01b0 C304     		lsl	r3, r0, #19	@ tmp165, tmp158,
 415 01b2 DB0E     		lsr	r3, r3, #27	@ D.5514, tmp165,
 416 01b4 2370     		strb	r3, [r4]	@ D.5514, MEM[(volatile struct UART_MemMap *)1074184192B].BDH
 243:../../cpu/arm/mkl25z/./serial.c **** 		UART2_BDL = (uint8_t)(bauddiv & 0x00FF);								/* Set UART2_BDL: lower Baud Rate Divisor. Page 7
 417              		.loc 1 243 0
 418 01b6 C0B2     		uxtb	r0, r0	@ D.5514, tmp158
 419              	.LVL19:
 420 01b8 6070     		strb	r0, [r4, #1]	@ D.5514, MEM[(volatile struct UART_MemMap *)1074184192B].BDL
 244:../../cpu/arm/mkl25z/./serial.c **** 		
 245:../../cpu/arm/mkl25z/./serial.c **** 
 246:../../cpu/arm/mkl25z/./serial.c **** 		// Clear status Registers  
 247:../../cpu/arm/mkl25z/./serial.c **** 		/* UART1_S1: No writes needed to clear. Page 755. */
 248:../../cpu/arm/mkl25z/./serial.c **** 		UART2_S2 = (uint8_t)0x00;								/* UART1_S2: Set UART1 Status Register S2, Page 756. */
 421              		.loc 1 248 0
 422 01ba 6571     		strb	r5, [r4, #5]	@ tmp137, MEM[(volatile struct UART_MemMap *)1074184192B].S2
 249:../../cpu/arm/mkl25z/./serial.c **** 		
 250:../../cpu/arm/mkl25z/./serial.c **** 		//Enable the Transmitter & Receiver after UART0 settings update
 251:../../cpu/arm/mkl25z/./serial.c **** 		UART2_C2 |= (uint8_t)UART_C2_TeRe;  					/* UART1_C2: Enable TX/RX, Page 753.  TIE=0,TCIE=0,RIE=0
 423              		.loc 1 251 0
 424 01bc 2368     		ldr	r3, [r4]	@ tmp174,
 425 01be 1B0E     		lsr	r3, r3, #24	@ D.5514, tmp174,
 426 01c0 0C22     		mov	r2, #12	@ tmp178,
 427 01c2 1343     		orr	r3, r2	@ D.5514, tmp178
 428 01c4 E370     		strb	r3, [r4, #3]	@ D.5514, MEM[(volatile struct UART_MemMap *)1074184192B].C2
 429              	.L9:
 430              	.LBE4:
 252:../../cpu/arm/mkl25z/./serial.c **** 	}
 253:../../cpu/arm/mkl25z/./serial.c **** }
 431              		.loc 1 253 0
ARM GAS  /tmp/ccGhjqcS.s 			page 13


 432              		@ sp needed	@
 433              	.LVL20:
 434 01c6 70BD     		pop	{r4, r5, r6, pc}
 435              	.L12:
 436              		.align	2
 437              	.L11:
 438 01c8 00700440 		.word	1074032640
 439 01cc 34100000 		.word	4148
 440 01d0 00D00440 		.word	1074057216
 441 01d4 00000000 		.word	.LANCHOR0
 442 01d8 00C00640 		.word	1074184192
 443 01dc 00366E01 		.word	24000000
 444              		.cfi_endproc
 445              	.LFE3:
 446              		.size	UART2_init, .-UART2_init
 447              		.align	2
 448              		.global	serial_init
 449              		.code	16
 450              		.thumb_func
 451              		.type	serial_init, %function
 452              	serial_init:
 453              	.LFB0:
 101:../../cpu/arm/mkl25z/./serial.c **** {
 454              		.loc 1 101 0
 455              		.cfi_startproc
 456              	.LVL21:
 457 01e0 38B5     		push	{r3, r4, r5, lr}	@
 458              	.LCFI3:
 459              		.cfi_def_cfa_offset 16
 460              		.cfi_offset 3, -16
 461              		.cfi_offset 4, -12
 462              		.cfi_offset 5, -8
 463              		.cfi_offset 14, -4
 464 01e2 0D1C     		mov	r5, r1	@ UART1_baudrate, UART1_baudrate
 465 01e4 141C     		mov	r4, r2	@ UART2_baudrate, UART2_baudrate
 102:../../cpu/arm/mkl25z/./serial.c **** 	UART0_init(UART0_baudrate);
 466              		.loc 1 102 0
 467 01e6 FFF7FEFF 		bl	UART0_init	@
 468              	.LVL22:
 103:../../cpu/arm/mkl25z/./serial.c **** 	UART1_init(UART1_baudrate);
 469              		.loc 1 103 0
 470 01ea 281C     		mov	r0, r5	@, UART1_baudrate
 471 01ec FFF7FEFF 		bl	UART1_init	@
 472              	.LVL23:
 104:../../cpu/arm/mkl25z/./serial.c **** 	UART2_init(UART2_baudrate);
 473              		.loc 1 104 0
 474 01f0 201C     		mov	r0, r4	@, UART2_baudrate
 475 01f2 FFF7FEFF 		bl	UART2_init	@
 476              	.LVL24:
 105:../../cpu/arm/mkl25z/./serial.c **** }
 477              		.loc 1 105 0
 478              		@ sp needed	@
 479              	.LVL25:
 480              	.LVL26:
 481 01f6 38BD     		pop	{r3, r4, r5, pc}
 482              		.cfi_endproc
 483              	.LFE0:
ARM GAS  /tmp/ccGhjqcS.s 			page 14


 484              		.size	serial_init, .-serial_init
 485              		.align	2
 486              		.global	UART0_reg_callback
 487              		.code	16
 488              		.thumb_func
 489              		.type	UART0_reg_callback, %function
 490              	UART0_reg_callback:
 491              	.LFB4:
 254:../../cpu/arm/mkl25z/./serial.c **** 
 255:../../cpu/arm/mkl25z/./serial.c **** void UART0_reg_callback(void* UART0_Callback_Ptr)	/* Register a callback function for use in UART0_
 256:../../cpu/arm/mkl25z/./serial.c **** {
 492              		.loc 1 256 0
 493              		.cfi_startproc
 494              	.LVL27:
 257:../../cpu/arm/mkl25z/./serial.c **** 	UART0_callback = UART0_Callback_Ptr;
 495              		.loc 1 257 0
 496 01f8 014B     		ldr	r3, .L15	@ tmp112,
 497 01fa 1860     		str	r0, [r3]	@ UART0_Callback_Ptr, UART0_callback
 258:../../cpu/arm/mkl25z/./serial.c **** }
 498              		.loc 1 258 0
 499              		@ sp needed	@
 500 01fc 7047     		bx	lr
 501              	.L16:
 502 01fe C046     		.align	2
 503              	.L15:
 504 0200 00000000 		.word	.LANCHOR0
 505              		.cfi_endproc
 506              	.LFE4:
 507              		.size	UART0_reg_callback, .-UART0_reg_callback
 508              		.align	2
 509              		.global	UART1_reg_callback
 510              		.code	16
 511              		.thumb_func
 512              		.type	UART1_reg_callback, %function
 513              	UART1_reg_callback:
 514              	.LFB5:
 259:../../cpu/arm/mkl25z/./serial.c **** 
 260:../../cpu/arm/mkl25z/./serial.c **** void UART1_reg_callback(void* UART1_Callback_Ptr)	/* Register a callback function for use in UART0_
 261:../../cpu/arm/mkl25z/./serial.c **** {
 515              		.loc 1 261 0
 516              		.cfi_startproc
 517              	.LVL28:
 262:../../cpu/arm/mkl25z/./serial.c **** 	UART1_callback = UART1_Callback_Ptr;
 518              		.loc 1 262 0
 519 0204 014B     		ldr	r3, .L18	@ tmp112,
 520 0206 5860     		str	r0, [r3, #4]	@ UART1_Callback_Ptr, UART1_callback
 263:../../cpu/arm/mkl25z/./serial.c **** }
 521              		.loc 1 263 0
 522              		@ sp needed	@
 523 0208 7047     		bx	lr
 524              	.L19:
 525 020a C046     		.align	2
 526              	.L18:
 527 020c 00000000 		.word	.LANCHOR0
 528              		.cfi_endproc
 529              	.LFE5:
 530              		.size	UART1_reg_callback, .-UART1_reg_callback
ARM GAS  /tmp/ccGhjqcS.s 			page 15


 531              		.align	2
 532              		.global	UART2_reg_callback
 533              		.code	16
 534              		.thumb_func
 535              		.type	UART2_reg_callback, %function
 536              	UART2_reg_callback:
 537              	.LFB6:
 264:../../cpu/arm/mkl25z/./serial.c **** 
 265:../../cpu/arm/mkl25z/./serial.c **** void UART2_reg_callback(void* UART2_Callback_Ptr)	/* Register a callback function for use in UART0_
 266:../../cpu/arm/mkl25z/./serial.c **** {
 538              		.loc 1 266 0
 539              		.cfi_startproc
 540              	.LVL29:
 267:../../cpu/arm/mkl25z/./serial.c **** 	UART2_callback = UART2_Callback_Ptr;
 541              		.loc 1 267 0
 542 0210 014B     		ldr	r3, .L21	@ tmp112,
 543 0212 9860     		str	r0, [r3, #8]	@ UART2_Callback_Ptr, UART2_callback
 268:../../cpu/arm/mkl25z/./serial.c **** }
 544              		.loc 1 268 0
 545              		@ sp needed	@
 546 0214 7047     		bx	lr
 547              	.L22:
 548 0216 C046     		.align	2
 549              	.L21:
 550 0218 00000000 		.word	.LANCHOR0
 551              		.cfi_endproc
 552              	.LFE6:
 553              		.size	UART2_reg_callback, .-UART2_reg_callback
 554              		.align	2
 555              		.global	UART0_PutChar
 556              		.code	16
 557              		.thumb_func
 558              		.type	UART0_PutChar, %function
 559              	UART0_PutChar:
 560              	.LFB8:
 269:../../cpu/arm/mkl25z/./serial.c **** 
 270:../../cpu/arm/mkl25z/./serial.c **** 
 271:../../cpu/arm/mkl25z/./serial.c **** /*-------------------------------------------------------------------------------------------------
 272:../../cpu/arm/mkl25z/./serial.c **** /* Serial Functions */
 273:../../cpu/arm/mkl25z/./serial.c **** void UART_PutChar(uint8_t uart, char outchar)
 274:../../cpu/arm/mkl25z/./serial.c **** {
 275:../../cpu/arm/mkl25z/./serial.c **** 	switch (uart){
 276:../../cpu/arm/mkl25z/./serial.c **** 		case 0:	UART0_PutChar(outchar);
 277:../../cpu/arm/mkl25z/./serial.c **** 				break;
 278:../../cpu/arm/mkl25z/./serial.c **** 		case 1:	UART1_PutChar(outchar);
 279:../../cpu/arm/mkl25z/./serial.c **** 				break;
 280:../../cpu/arm/mkl25z/./serial.c **** 		case 2:	UART2_PutChar(outchar);
 281:../../cpu/arm/mkl25z/./serial.c **** 				break;
 282:../../cpu/arm/mkl25z/./serial.c **** 		default:
 283:../../cpu/arm/mkl25z/./serial.c **** 				break;
 284:../../cpu/arm/mkl25z/./serial.c **** 		}
 285:../../cpu/arm/mkl25z/./serial.c **** }
 286:../../cpu/arm/mkl25z/./serial.c **** 
 287:../../cpu/arm/mkl25z/./serial.c **** void UART0_PutChar(char outChar)	/* Put single character into UART0 output register								*/
 288:../../cpu/arm/mkl25z/./serial.c **** {
 561              		.loc 1 288 0
 562              		.cfi_startproc
ARM GAS  /tmp/ccGhjqcS.s 			page 16


 563              	.LVL30:
 289:../../cpu/arm/mkl25z/./serial.c **** 	while(!(UART0_S1 & UART_S1_TDRE_MASK));		/* Check for space in TX Buffer, checking TDRE bit in UAR
 564              		.loc 1 289 0
 565 021c 034A     		ldr	r2, .L26	@ tmp119,
 566              	.L25:
 567              		.loc 1 289 0 is_stmt 0 discriminator 1
 568 021e 5368     		ldr	r3, [r2, #4]	@ tmp114,
 569 0220 1906     		lsl	r1, r3, #24	@, tmp114,
 570 0222 FCD5     		bpl	.L25	@,
 290:../../cpu/arm/mkl25z/./serial.c **** 	//while((UART0_S1 & 0x80) != 0x80);
 291:../../cpu/arm/mkl25z/./serial.c **** 	UART0_D = (uint8_t)outChar;							/* Write char to UART0 Data buffer. Page 734.								*/
 571              		.loc 1 291 0 is_stmt 1
 572 0224 014B     		ldr	r3, .L26	@ tmp117,
 573 0226 D871     		strb	r0, [r3, #7]	@ outChar, MEM[(volatile struct UART0_MemMap *)1074176000B].D
 292:../../cpu/arm/mkl25z/./serial.c **** }
 574              		.loc 1 292 0
 575              		@ sp needed	@
 576 0228 7047     		bx	lr
 577              	.L27:
 578 022a C046     		.align	2
 579              	.L26:
 580 022c 00A00640 		.word	1074176000
 581              		.cfi_endproc
 582              	.LFE8:
 583              		.size	UART0_PutChar, .-UART0_PutChar
 584              		.align	2
 585              		.global	UART1_PutChar
 586              		.code	16
 587              		.thumb_func
 588              		.type	UART1_PutChar, %function
 589              	UART1_PutChar:
 590              	.LFB9:
 293:../../cpu/arm/mkl25z/./serial.c **** 
 294:../../cpu/arm/mkl25z/./serial.c **** void UART1_PutChar(char outChar)	/* Put single character into UART1 output register								*/
 295:../../cpu/arm/mkl25z/./serial.c **** {
 591              		.loc 1 295 0
 592              		.cfi_startproc
 593              	.LVL31:
 296:../../cpu/arm/mkl25z/./serial.c **** 	while(!(UART1_S1 & UART_S1_TDRE_MASK));		/* Check for space in TX Buffer, checking TDRE bit in UAR
 594              		.loc 1 296 0
 595 0230 034A     		ldr	r2, .L31	@ tmp119,
 596              	.L30:
 597              		.loc 1 296 0 is_stmt 0 discriminator 1
 598 0232 5368     		ldr	r3, [r2, #4]	@ tmp114,
 599 0234 1906     		lsl	r1, r3, #24	@, tmp114,
 600 0236 FCD5     		bpl	.L30	@,
 297:../../cpu/arm/mkl25z/./serial.c **** 	//while((UART0_S1 & 0x80) != 0x80);
 298:../../cpu/arm/mkl25z/./serial.c **** 	UART1_D = (uint8_t)outChar;							/* Write char to UART0 Data buffer. Page 734.								*/
 601              		.loc 1 298 0 is_stmt 1
 602 0238 014B     		ldr	r3, .L31	@ tmp117,
 603 023a D871     		strb	r0, [r3, #7]	@ outChar, MEM[(volatile struct UART_MemMap *)1074180096B].D
 299:../../cpu/arm/mkl25z/./serial.c **** }
 604              		.loc 1 299 0
 605              		@ sp needed	@
 606 023c 7047     		bx	lr
 607              	.L32:
 608 023e C046     		.align	2
ARM GAS  /tmp/ccGhjqcS.s 			page 17


 609              	.L31:
 610 0240 00B00640 		.word	1074180096
 611              		.cfi_endproc
 612              	.LFE9:
 613              		.size	UART1_PutChar, .-UART1_PutChar
 614              		.align	2
 615              		.global	UART2_PutChar
 616              		.code	16
 617              		.thumb_func
 618              		.type	UART2_PutChar, %function
 619              	UART2_PutChar:
 620              	.LFB10:
 300:../../cpu/arm/mkl25z/./serial.c **** 
 301:../../cpu/arm/mkl25z/./serial.c **** void UART2_PutChar(char outChar)	/* Put single character into UART2 output register								*/
 302:../../cpu/arm/mkl25z/./serial.c **** {
 621              		.loc 1 302 0
 622              		.cfi_startproc
 623              	.LVL32:
 303:../../cpu/arm/mkl25z/./serial.c **** 	while(!(UART2_S1 & UART_S1_TDRE_MASK));		/* Check for space in TX Buffer, checking TDRE bit in UAR
 624              		.loc 1 303 0
 625 0244 034A     		ldr	r2, .L36	@ tmp119,
 626              	.L35:
 627              		.loc 1 303 0 is_stmt 0 discriminator 1
 628 0246 5368     		ldr	r3, [r2, #4]	@ tmp114,
 629 0248 1906     		lsl	r1, r3, #24	@, tmp114,
 630 024a FCD5     		bpl	.L35	@,
 304:../../cpu/arm/mkl25z/./serial.c **** 	//while((UART0_S1 & 0x80) != 0x80);
 305:../../cpu/arm/mkl25z/./serial.c **** 	UART2_D = (uint8_t)outChar;							/* Write char to UART0 Data buffer. Page 734.								*/
 631              		.loc 1 305 0 is_stmt 1
 632 024c 014B     		ldr	r3, .L36	@ tmp117,
 633 024e D871     		strb	r0, [r3, #7]	@ outChar, MEM[(volatile struct UART_MemMap *)1074184192B].D
 306:../../cpu/arm/mkl25z/./serial.c **** }
 634              		.loc 1 306 0
 635              		@ sp needed	@
 636 0250 7047     		bx	lr
 637              	.L37:
 638 0252 C046     		.align	2
 639              	.L36:
 640 0254 00C00640 		.word	1074184192
 641              		.cfi_endproc
 642              	.LFE10:
 643              		.size	UART2_PutChar, .-UART2_PutChar
 644              		.align	2
 645              		.global	UART_PutChar
 646              		.code	16
 647              		.thumb_func
 648              		.type	UART_PutChar, %function
 649              	UART_PutChar:
 650              	.LFB7:
 274:../../cpu/arm/mkl25z/./serial.c **** {
 651              		.loc 1 274 0
 652              		.cfi_startproc
 653              	.LVL33:
 654 0258 08B5     		push	{r3, lr}	@
 655              	.LCFI4:
 656              		.cfi_def_cfa_offset 8
 657              		.cfi_offset 3, -8
ARM GAS  /tmp/ccGhjqcS.s 			page 18


 658              		.cfi_offset 14, -4
 275:../../cpu/arm/mkl25z/./serial.c **** 	switch (uart){
 659              		.loc 1 275 0
 660 025a 0128     		cmp	r0, #1	@ uart,
 661 025c 08D0     		beq	.L40	@,
 662 025e 0028     		cmp	r0, #0	@ uart,
 663 0260 02D0     		beq	.L41	@,
 664 0262 0228     		cmp	r0, #2	@ uart,
 665 0264 08D0     		beq	.L42	@,
 666 0266 0AE0     		b	.L38	@
 667              	.L41:
 276:../../cpu/arm/mkl25z/./serial.c **** 		case 0:	UART0_PutChar(outchar);
 668              		.loc 1 276 0
 669 0268 081C     		mov	r0, r1	@, outchar
 670              	.LVL34:
 671 026a FFF7FEFF 		bl	UART0_PutChar	@
 672              	.LVL35:
 277:../../cpu/arm/mkl25z/./serial.c **** 				break;
 673              		.loc 1 277 0
 674 026e 06E0     		b	.L38	@
 675              	.LVL36:
 676              	.L40:
 278:../../cpu/arm/mkl25z/./serial.c **** 		case 1:	UART1_PutChar(outchar);
 677              		.loc 1 278 0
 678 0270 081C     		mov	r0, r1	@, outchar
 679              	.LVL37:
 680 0272 FFF7FEFF 		bl	UART1_PutChar	@
 681              	.LVL38:
 279:../../cpu/arm/mkl25z/./serial.c **** 				break;
 682              		.loc 1 279 0
 683 0276 02E0     		b	.L38	@
 684              	.LVL39:
 685              	.L42:
 280:../../cpu/arm/mkl25z/./serial.c **** 		case 2:	UART2_PutChar(outchar);
 686              		.loc 1 280 0
 687 0278 081C     		mov	r0, r1	@, outchar
 688              	.LVL40:
 689 027a FFF7FEFF 		bl	UART2_PutChar	@
 690              	.LVL41:
 691              	.L38:
 285:../../cpu/arm/mkl25z/./serial.c **** }
 692              		.loc 1 285 0
 693              		@ sp needed	@
 694 027e 08BD     		pop	{r3, pc}
 695              		.cfi_endproc
 696              	.LFE7:
 697              		.size	UART_PutChar, .-UART_PutChar
 698              		.align	2
 699              		.global	UART0_SendString
 700              		.code	16
 701              		.thumb_func
 702              		.type	UART0_SendString, %function
 703              	UART0_SendString:
 704              	.LFB12:
 307:../../cpu/arm/mkl25z/./serial.c **** 
 308:../../cpu/arm/mkl25z/./serial.c **** 
 309:../../cpu/arm/mkl25z/./serial.c **** 
ARM GAS  /tmp/ccGhjqcS.s 			page 19


 310:../../cpu/arm/mkl25z/./serial.c **** void UART_SendString(uint8_t uart, const unsigned char *str)
 311:../../cpu/arm/mkl25z/./serial.c **** {
 312:../../cpu/arm/mkl25z/./serial.c **** 	switch (uart){
 313:../../cpu/arm/mkl25z/./serial.c **** 		case 0:	UART0_SendString(str);
 314:../../cpu/arm/mkl25z/./serial.c **** 				break;
 315:../../cpu/arm/mkl25z/./serial.c **** 		case 1:	UART1_SendString(str);
 316:../../cpu/arm/mkl25z/./serial.c **** 				break;
 317:../../cpu/arm/mkl25z/./serial.c **** 		case 2:	UART2_SendString(str);
 318:../../cpu/arm/mkl25z/./serial.c **** 				break;
 319:../../cpu/arm/mkl25z/./serial.c **** 		default:
 320:../../cpu/arm/mkl25z/./serial.c **** 				break;
 321:../../cpu/arm/mkl25z/./serial.c **** 		}
 322:../../cpu/arm/mkl25z/./serial.c **** 
 323:../../cpu/arm/mkl25z/./serial.c **** }
 324:../../cpu/arm/mkl25z/./serial.c **** 
 325:../../cpu/arm/mkl25z/./serial.c **** void UART0_SendString(const unsigned char *str)
 326:../../cpu/arm/mkl25z/./serial.c **** {
 705              		.loc 1 326 0
 706              		.cfi_startproc
 707              	.LVL42:
 708 0280 10B5     		push	{r4, lr}	@
 709              	.LCFI5:
 710              		.cfi_def_cfa_offset 8
 711              		.cfi_offset 4, -8
 712              		.cfi_offset 14, -4
 713 0282 041C     		mov	r4, r0	@ str, str
 327:../../cpu/arm/mkl25z/./serial.c **** 	while(*str!='\0')
 714              		.loc 1 327 0
 715 0284 0078     		ldrb	r0, [r0]	@ D.5541, *str_3(D)
 716              	.LVL43:
 717 0286 0028     		cmp	r0, #0	@ D.5541,
 718 0288 05D0     		beq	.L43	@,
 719              	.L45:
 328:../../cpu/arm/mkl25z/./serial.c **** 	{
 329:../../cpu/arm/mkl25z/./serial.c **** 		UART0_PutChar(*str++);		
 720              		.loc 1 329 0
 721 028a 0134     		add	r4, r4, #1	@ str,
 722              	.LVL44:
 723 028c FFF7FEFF 		bl	UART0_PutChar	@
 724              	.LVL45:
 327:../../cpu/arm/mkl25z/./serial.c **** 	while(*str!='\0')
 725              		.loc 1 327 0
 726 0290 2078     		ldrb	r0, [r4]	@ D.5541, MEM[base: str_6, offset: 0B]
 727 0292 0028     		cmp	r0, #0	@ D.5541,
 728 0294 F9D1     		bne	.L45	@,
 729              	.L43:
 330:../../cpu/arm/mkl25z/./serial.c **** 	}
 331:../../cpu/arm/mkl25z/./serial.c **** }
 730              		.loc 1 331 0
 731              		@ sp needed	@
 732              	.LVL46:
 733 0296 10BD     		pop	{r4, pc}
 734              		.cfi_endproc
 735              	.LFE12:
 736              		.size	UART0_SendString, .-UART0_SendString
 737              		.align	2
 738              		.global	UART1_SendString
ARM GAS  /tmp/ccGhjqcS.s 			page 20


 739              		.code	16
 740              		.thumb_func
 741              		.type	UART1_SendString, %function
 742              	UART1_SendString:
 743              	.LFB13:
 332:../../cpu/arm/mkl25z/./serial.c **** 
 333:../../cpu/arm/mkl25z/./serial.c **** void UART1_SendString(const unsigned char *str)
 334:../../cpu/arm/mkl25z/./serial.c **** {
 744              		.loc 1 334 0
 745              		.cfi_startproc
 746              	.LVL47:
 747 0298 10B5     		push	{r4, lr}	@
 748              	.LCFI6:
 749              		.cfi_def_cfa_offset 8
 750              		.cfi_offset 4, -8
 751              		.cfi_offset 14, -4
 752 029a 041C     		mov	r4, r0	@ str, str
 335:../../cpu/arm/mkl25z/./serial.c **** 	while(*str!='\0')
 753              		.loc 1 335 0
 754 029c 0078     		ldrb	r0, [r0]	@ D.5546, *str_3(D)
 755              	.LVL48:
 756 029e 0028     		cmp	r0, #0	@ D.5546,
 757 02a0 05D0     		beq	.L46	@,
 758              	.L48:
 336:../../cpu/arm/mkl25z/./serial.c **** 	{
 337:../../cpu/arm/mkl25z/./serial.c **** 		UART1_PutChar(*str++);		
 759              		.loc 1 337 0
 760 02a2 0134     		add	r4, r4, #1	@ str,
 761              	.LVL49:
 762 02a4 FFF7FEFF 		bl	UART1_PutChar	@
 763              	.LVL50:
 335:../../cpu/arm/mkl25z/./serial.c **** 	while(*str!='\0')
 764              		.loc 1 335 0
 765 02a8 2078     		ldrb	r0, [r4]	@ D.5546, MEM[base: str_6, offset: 0B]
 766 02aa 0028     		cmp	r0, #0	@ D.5546,
 767 02ac F9D1     		bne	.L48	@,
 768              	.L46:
 338:../../cpu/arm/mkl25z/./serial.c **** 	}
 339:../../cpu/arm/mkl25z/./serial.c **** }
 769              		.loc 1 339 0
 770              		@ sp needed	@
 771              	.LVL51:
 772 02ae 10BD     		pop	{r4, pc}
 773              		.cfi_endproc
 774              	.LFE13:
 775              		.size	UART1_SendString, .-UART1_SendString
 776              		.align	2
 777              		.global	UART2_SendString
 778              		.code	16
 779              		.thumb_func
 780              		.type	UART2_SendString, %function
 781              	UART2_SendString:
 782              	.LFB14:
 340:../../cpu/arm/mkl25z/./serial.c **** 
 341:../../cpu/arm/mkl25z/./serial.c **** void UART2_SendString(const unsigned char *str)
 342:../../cpu/arm/mkl25z/./serial.c **** {
 783              		.loc 1 342 0
ARM GAS  /tmp/ccGhjqcS.s 			page 21


 784              		.cfi_startproc
 785              	.LVL52:
 786 02b0 10B5     		push	{r4, lr}	@
 787              	.LCFI7:
 788              		.cfi_def_cfa_offset 8
 789              		.cfi_offset 4, -8
 790              		.cfi_offset 14, -4
 791 02b2 041C     		mov	r4, r0	@ str, str
 343:../../cpu/arm/mkl25z/./serial.c **** 	while(*str!='\0')
 792              		.loc 1 343 0
 793 02b4 0078     		ldrb	r0, [r0]	@ D.5551, *str_3(D)
 794              	.LVL53:
 795 02b6 0028     		cmp	r0, #0	@ D.5551,
 796 02b8 05D0     		beq	.L49	@,
 797              	.L51:
 344:../../cpu/arm/mkl25z/./serial.c **** 	{
 345:../../cpu/arm/mkl25z/./serial.c **** 		UART2_PutChar(*str++);		
 798              		.loc 1 345 0
 799 02ba 0134     		add	r4, r4, #1	@ str,
 800              	.LVL54:
 801 02bc FFF7FEFF 		bl	UART2_PutChar	@
 802              	.LVL55:
 343:../../cpu/arm/mkl25z/./serial.c **** 	while(*str!='\0')
 803              		.loc 1 343 0
 804 02c0 2078     		ldrb	r0, [r4]	@ D.5551, MEM[base: str_6, offset: 0B]
 805 02c2 0028     		cmp	r0, #0	@ D.5551,
 806 02c4 F9D1     		bne	.L51	@,
 807              	.L49:
 346:../../cpu/arm/mkl25z/./serial.c **** 	}
 347:../../cpu/arm/mkl25z/./serial.c **** }
 808              		.loc 1 347 0
 809              		@ sp needed	@
 810              	.LVL56:
 811 02c6 10BD     		pop	{r4, pc}
 812              		.cfi_endproc
 813              	.LFE14:
 814              		.size	UART2_SendString, .-UART2_SendString
 815              		.align	2
 816              		.global	UART_SendString
 817              		.code	16
 818              		.thumb_func
 819              		.type	UART_SendString, %function
 820              	UART_SendString:
 821              	.LFB11:
 311:../../cpu/arm/mkl25z/./serial.c **** {
 822              		.loc 1 311 0
 823              		.cfi_startproc
 824              	.LVL57:
 825 02c8 08B5     		push	{r3, lr}	@
 826              	.LCFI8:
 827              		.cfi_def_cfa_offset 8
 828              		.cfi_offset 3, -8
 829              		.cfi_offset 14, -4
 312:../../cpu/arm/mkl25z/./serial.c **** 	switch (uart){
 830              		.loc 1 312 0
 831 02ca 0128     		cmp	r0, #1	@ uart,
 832 02cc 08D0     		beq	.L54	@,
ARM GAS  /tmp/ccGhjqcS.s 			page 22


 833 02ce 0028     		cmp	r0, #0	@ uart,
 834 02d0 02D0     		beq	.L55	@,
 835 02d2 0228     		cmp	r0, #2	@ uart,
 836 02d4 08D0     		beq	.L56	@,
 837 02d6 0AE0     		b	.L52	@
 838              	.L55:
 313:../../cpu/arm/mkl25z/./serial.c **** 		case 0:	UART0_SendString(str);
 839              		.loc 1 313 0
 840 02d8 081C     		mov	r0, r1	@, str
 841              	.LVL58:
 842 02da FFF7FEFF 		bl	UART0_SendString	@
 843              	.LVL59:
 314:../../cpu/arm/mkl25z/./serial.c **** 				break;
 844              		.loc 1 314 0
 845 02de 06E0     		b	.L52	@
 846              	.LVL60:
 847              	.L54:
 315:../../cpu/arm/mkl25z/./serial.c **** 		case 1:	UART1_SendString(str);
 848              		.loc 1 315 0
 849 02e0 081C     		mov	r0, r1	@, str
 850              	.LVL61:
 851 02e2 FFF7FEFF 		bl	UART1_SendString	@
 852              	.LVL62:
 316:../../cpu/arm/mkl25z/./serial.c **** 				break;
 853              		.loc 1 316 0
 854 02e6 02E0     		b	.L52	@
 855              	.LVL63:
 856              	.L56:
 317:../../cpu/arm/mkl25z/./serial.c **** 		case 2:	UART2_SendString(str);
 857              		.loc 1 317 0
 858 02e8 081C     		mov	r0, r1	@, str
 859              	.LVL64:
 860 02ea FFF7FEFF 		bl	UART2_SendString	@
 861              	.LVL65:
 862              	.L52:
 323:../../cpu/arm/mkl25z/./serial.c **** }
 863              		.loc 1 323 0
 864              		@ sp needed	@
 865 02ee 08BD     		pop	{r3, pc}
 866              		.cfi_endproc
 867              	.LFE11:
 868              		.size	UART_SendString, .-UART_SendString
 869              		.align	2
 870              		.global	UART0_IRQ_en
 871              		.code	16
 872              		.thumb_func
 873              		.type	UART0_IRQ_en, %function
 874              	UART0_IRQ_en:
 875              	.LFB15:
 348:../../cpu/arm/mkl25z/./serial.c **** 
 349:../../cpu/arm/mkl25z/./serial.c **** 
 350:../../cpu/arm/mkl25z/./serial.c **** /*-------------------------------------------------------------------------------------------------
 351:../../cpu/arm/mkl25z/./serial.c **** /* Interrupt Control Functions */
 352:../../cpu/arm/mkl25z/./serial.c **** void UART0_IRQ_en(void)
 353:../../cpu/arm/mkl25z/./serial.c **** {
 876              		.loc 1 353 0
 877              		.cfi_startproc
ARM GAS  /tmp/ccGhjqcS.s 			page 23


 354:../../cpu/arm/mkl25z/./serial.c **** 	UART0_C2 |= UART_C2_RIE_MASK;				/* UART0_C2: enable RX interrupt, Page 728. */
 878              		.loc 1 354 0
 879 02f0 034B     		ldr	r3, .L58	@ tmp112,
 880 02f2 1A68     		ldr	r2, [r3]	@ tmp113,
 881 02f4 120E     		lsr	r2, r2, #24	@ D.5555, tmp113,
 882 02f6 2021     		mov	r1, #32	@ tmp117,
 883 02f8 0A43     		orr	r2, r1	@ D.5555, tmp117
 884 02fa DA70     		strb	r2, [r3, #3]	@ D.5555, MEM[(volatile struct UART0_MemMap *)1074176000B].C2
 355:../../cpu/arm/mkl25z/./serial.c **** }
 885              		.loc 1 355 0
 886              		@ sp needed	@
 887 02fc 7047     		bx	lr
 888              	.L59:
 889 02fe C046     		.align	2
 890              	.L58:
 891 0300 00A00640 		.word	1074176000
 892              		.cfi_endproc
 893              	.LFE15:
 894              		.size	UART0_IRQ_en, .-UART0_IRQ_en
 895              		.align	2
 896              		.global	UART1_IRQ_en
 897              		.code	16
 898              		.thumb_func
 899              		.type	UART1_IRQ_en, %function
 900              	UART1_IRQ_en:
 901              	.LFB16:
 356:../../cpu/arm/mkl25z/./serial.c **** 
 357:../../cpu/arm/mkl25z/./serial.c **** void UART1_IRQ_en(void)
 358:../../cpu/arm/mkl25z/./serial.c **** {
 902              		.loc 1 358 0
 903              		.cfi_startproc
 359:../../cpu/arm/mkl25z/./serial.c **** 	UART1_C2 |= UART_C2_RIE_MASK;				/* UART1_C2: enable RX interrupt, Page 753. */
 904              		.loc 1 359 0
 905 0304 034B     		ldr	r3, .L61	@ tmp112,
 906 0306 1A68     		ldr	r2, [r3]	@ tmp113,
 907 0308 120E     		lsr	r2, r2, #24	@ D.5557, tmp113,
 908 030a 2021     		mov	r1, #32	@ tmp117,
 909 030c 0A43     		orr	r2, r1	@ D.5557, tmp117
 910 030e DA70     		strb	r2, [r3, #3]	@ D.5557, MEM[(volatile struct UART_MemMap *)1074180096B].C2
 360:../../cpu/arm/mkl25z/./serial.c **** }
 911              		.loc 1 360 0
 912              		@ sp needed	@
 913 0310 7047     		bx	lr
 914              	.L62:
 915 0312 C046     		.align	2
 916              	.L61:
 917 0314 00B00640 		.word	1074180096
 918              		.cfi_endproc
 919              	.LFE16:
 920              		.size	UART1_IRQ_en, .-UART1_IRQ_en
 921              		.align	2
 922              		.global	UART2_IRQ_en
 923              		.code	16
 924              		.thumb_func
 925              		.type	UART2_IRQ_en, %function
 926              	UART2_IRQ_en:
 927              	.LFB17:
ARM GAS  /tmp/ccGhjqcS.s 			page 24


 361:../../cpu/arm/mkl25z/./serial.c **** 
 362:../../cpu/arm/mkl25z/./serial.c **** void UART2_IRQ_en(void)
 363:../../cpu/arm/mkl25z/./serial.c **** {
 928              		.loc 1 363 0
 929              		.cfi_startproc
 364:../../cpu/arm/mkl25z/./serial.c **** 	UART2_C2 |= UART_C2_RIE_MASK;				/* UART2_C2: enable RX interrupt, Page 753. */
 930              		.loc 1 364 0
 931 0318 034B     		ldr	r3, .L64	@ tmp112,
 932 031a 1A68     		ldr	r2, [r3]	@ tmp113,
 933 031c 120E     		lsr	r2, r2, #24	@ D.5559, tmp113,
 934 031e 2021     		mov	r1, #32	@ tmp117,
 935 0320 0A43     		orr	r2, r1	@ D.5559, tmp117
 936 0322 DA70     		strb	r2, [r3, #3]	@ D.5559, MEM[(volatile struct UART_MemMap *)1074184192B].C2
 365:../../cpu/arm/mkl25z/./serial.c **** }
 937              		.loc 1 365 0
 938              		@ sp needed	@
 939 0324 7047     		bx	lr
 940              	.L65:
 941 0326 C046     		.align	2
 942              	.L64:
 943 0328 00C00640 		.word	1074184192
 944              		.cfi_endproc
 945              	.LFE17:
 946              		.size	UART2_IRQ_en, .-UART2_IRQ_en
 947              		.align	2
 948              		.global	UART0_IRQ_dis
 949              		.code	16
 950              		.thumb_func
 951              		.type	UART0_IRQ_dis, %function
 952              	UART0_IRQ_dis:
 953              	.LFB18:
 366:../../cpu/arm/mkl25z/./serial.c **** 
 367:../../cpu/arm/mkl25z/./serial.c **** 
 368:../../cpu/arm/mkl25z/./serial.c **** void UART0_IRQ_dis(void)
 369:../../cpu/arm/mkl25z/./serial.c **** {
 954              		.loc 1 369 0
 955              		.cfi_startproc
 370:../../cpu/arm/mkl25z/./serial.c **** 	UART0_C2 &= ~UART_C2_RIE_MASK;				/* UART0_C2: enable RX interrupt, Page 728. */
 956              		.loc 1 370 0
 957 032c 034B     		ldr	r3, .L67	@ tmp112,
 958 032e 1A68     		ldr	r2, [r3]	@ tmp113,
 959 0330 120E     		lsr	r2, r2, #24	@ D.5561, tmp113,
 960 0332 2021     		mov	r1, #32	@ tmp116,
 961 0334 8A43     		bic	r2, r1	@ D.5561, tmp116
 962 0336 DA70     		strb	r2, [r3, #3]	@ D.5561, MEM[(volatile struct UART0_MemMap *)1074176000B].C2
 371:../../cpu/arm/mkl25z/./serial.c **** }
 963              		.loc 1 371 0
 964              		@ sp needed	@
 965 0338 7047     		bx	lr
 966              	.L68:
 967 033a C046     		.align	2
 968              	.L67:
 969 033c 00A00640 		.word	1074176000
 970              		.cfi_endproc
 971              	.LFE18:
 972              		.size	UART0_IRQ_dis, .-UART0_IRQ_dis
 973              		.align	2
ARM GAS  /tmp/ccGhjqcS.s 			page 25


 974              		.global	UART1_IRQ_dis
 975              		.code	16
 976              		.thumb_func
 977              		.type	UART1_IRQ_dis, %function
 978              	UART1_IRQ_dis:
 979              	.LFB19:
 372:../../cpu/arm/mkl25z/./serial.c **** 
 373:../../cpu/arm/mkl25z/./serial.c **** void UART1_IRQ_dis(void)
 374:../../cpu/arm/mkl25z/./serial.c **** {
 980              		.loc 1 374 0
 981              		.cfi_startproc
 375:../../cpu/arm/mkl25z/./serial.c **** 	UART1_C2 &= ~UART_C2_RIE_MASK;				/* UART1_C2: enable RX interrupt, Page 753. */
 982              		.loc 1 375 0
 983 0340 034B     		ldr	r3, .L70	@ tmp112,
 984 0342 1A68     		ldr	r2, [r3]	@ tmp113,
 985 0344 120E     		lsr	r2, r2, #24	@ D.5563, tmp113,
 986 0346 2021     		mov	r1, #32	@ tmp116,
 987 0348 8A43     		bic	r2, r1	@ D.5563, tmp116
 988 034a DA70     		strb	r2, [r3, #3]	@ D.5563, MEM[(volatile struct UART_MemMap *)1074180096B].C2
 376:../../cpu/arm/mkl25z/./serial.c **** }
 989              		.loc 1 376 0
 990              		@ sp needed	@
 991 034c 7047     		bx	lr
 992              	.L71:
 993 034e C046     		.align	2
 994              	.L70:
 995 0350 00B00640 		.word	1074180096
 996              		.cfi_endproc
 997              	.LFE19:
 998              		.size	UART1_IRQ_dis, .-UART1_IRQ_dis
 999              		.align	2
 1000              		.global	UART2_IRQ_dis
 1001              		.code	16
 1002              		.thumb_func
 1003              		.type	UART2_IRQ_dis, %function
 1004              	UART2_IRQ_dis:
 1005              	.LFB20:
 377:../../cpu/arm/mkl25z/./serial.c **** 
 378:../../cpu/arm/mkl25z/./serial.c **** void UART2_IRQ_dis(void)
 379:../../cpu/arm/mkl25z/./serial.c **** {
 1006              		.loc 1 379 0
 1007              		.cfi_startproc
 380:../../cpu/arm/mkl25z/./serial.c **** 	UART2_C2 &= ~UART_C2_RIE_MASK;				/* UART2_C2: enable RX interrupt, Page 753. */
 1008              		.loc 1 380 0
 1009 0354 034B     		ldr	r3, .L73	@ tmp112,
 1010 0356 1A68     		ldr	r2, [r3]	@ tmp113,
 1011 0358 120E     		lsr	r2, r2, #24	@ D.5565, tmp113,
 1012 035a 2021     		mov	r1, #32	@ tmp116,
 1013 035c 8A43     		bic	r2, r1	@ D.5565, tmp116
 1014 035e DA70     		strb	r2, [r3, #3]	@ D.5565, MEM[(volatile struct UART_MemMap *)1074184192B].C2
 381:../../cpu/arm/mkl25z/./serial.c **** }
 1015              		.loc 1 381 0
 1016              		@ sp needed	@
 1017 0360 7047     		bx	lr
 1018              	.L74:
 1019 0362 C046     		.align	2
 1020              	.L73:
ARM GAS  /tmp/ccGhjqcS.s 			page 26


 1021 0364 00C00640 		.word	1074184192
 1022              		.cfi_endproc
 1023              	.LFE20:
 1024              		.size	UART2_IRQ_dis, .-UART2_IRQ_dis
 1025              		.align	2
 1026              		.global	UART0_IRQHandler
 1027              		.code	16
 1028              		.thumb_func
 1029              		.type	UART0_IRQHandler, %function
 1030              	UART0_IRQHandler:
 1031              	.LFB21:
 382:../../cpu/arm/mkl25z/./serial.c **** 
 383:../../cpu/arm/mkl25z/./serial.c **** 
 384:../../cpu/arm/mkl25z/./serial.c **** /*-------------------------------------------------------------------------------------------------
 385:../../cpu/arm/mkl25z/./serial.c **** /* Interrupt Handler */
 386:../../cpu/arm/mkl25z/./serial.c **** void UART0_IRQHandler(void)					/* UART0 Interrupt Handler 		*/													
 387:../../cpu/arm/mkl25z/./serial.c **** {
 1032              		.loc 1 387 0
 1033              		.cfi_startproc
 1034 0368 08B5     		push	{r3, lr}	@
 1035              	.LCFI9:
 1036              		.cfi_def_cfa_offset 8
 1037              		.cfi_offset 3, -8
 1038              		.cfi_offset 14, -4
 388:../../cpu/arm/mkl25z/./serial.c ****   register uint16_t UART0_IntStatReg = UART0_S1;				/* Copy of UART_S1, register for speed.								
 1039              		.loc 1 388 0
 1040 036a 0F4B     		ldr	r3, .L80	@ tmp122,
 1041 036c 5B68     		ldr	r3, [r3, #4]	@ tmp123,
 1042 036e DBB2     		uxtb	r3, r3	@ D.5567, tmp123
 1043              	.LVL66:
 389:../../cpu/arm/mkl25z/./serial.c **** 			/* Check for error flags 		*/
 390:../../cpu/arm/mkl25z/./serial.c **** 	if (UART0_IntStatReg & (UART_S1_OR_MASK | UART_S1_NF_MASK | UART_S1_FE_MASK | UART_S1_PF_MASK)) 		
 1044              		.loc 1 390 0
 1045 0370 1A07     		lsl	r2, r3, #28	@, D.5567,
 1046 0372 05D0     		beq	.L77	@,
 391:../../cpu/arm/mkl25z/./serial.c **** 	{	
 392:../../cpu/arm/mkl25z/./serial.c **** 		UART0_S1 = (uint8_t)UART_S1_Err;					/* Write to status register to acknowledge error.					*/
 1047              		.loc 1 392 0
 1048 0374 0C4A     		ldr	r2, .L80	@ tmp130,
 1049 0376 0F21     		mov	r1, #15	@ tmp131,
 1050 0378 1171     		strb	r1, [r2, #4]	@ tmp131, MEM[(volatile struct UART0_MemMap *)1074176000B].S1
 393:../../cpu/arm/mkl25z/./serial.c **** 		(void) UART0_D;										/* Dummy read of input data.										*/
 1051              		.loc 1 393 0
 1052 037a 5268     		ldr	r2, [r2, #4]	@ tmp134,
 394:../../cpu/arm/mkl25z/./serial.c **** 		UART0_IntStatReg &= (uint8_t)~UART_S1_RDRF_MASK;	/* Clear RDRF flag so that data is junked.						
 1053              		.loc 1 394 0
 1054 037c 2022     		mov	r2, #32	@ tmp137,
 1055 037e 9343     		bic	r3, r2	@ UART0_IntStatReg, tmp137
 1056              	.LVL67:
 1057              	.L77:
 395:../../cpu/arm/mkl25z/./serial.c **** 	}
 396:../../cpu/arm/mkl25z/./serial.c **** 	if (UART0_C2 & UART_C2_TIE_MASK)															/* TX Interrupt enabled 		*/
 1058              		.loc 1 396 0
 1059 0380 094A     		ldr	r2, .L80	@ tmp140,
 1060 0382 1268     		ldr	r2, [r2]	@ tmp141,
 1061 0384 002A     		cmp	r2, #0	@ tmp141,
 1062 0386 04DA     		bge	.L78	@,
ARM GAS  /tmp/ccGhjqcS.s 			page 27


 397:../../cpu/arm/mkl25z/./serial.c **** 	{
 398:../../cpu/arm/mkl25z/./serial.c **** 		UART0_C2 &= (uint8_t)~UART_C2_TIE_MASK;				/* We should never get here, disable TX interrupt					
 1063              		.loc 1 398 0
 1064 0388 074A     		ldr	r2, .L80	@ tmp145,
 1065 038a 1168     		ldr	r1, [r2]	@ tmp146,
 1066 038c 4900     		lsl	r1, r1, #1	@ tmp151, tmp146,
 1067 038e 490E     		lsr	r1, r1, #25	@ D.5567, tmp151,
 1068 0390 D170     		strb	r1, [r2, #3]	@ D.5567, MEM[(volatile struct UART0_MemMap *)1074176000B].C2
 1069              	.L78:
 399:../../cpu/arm/mkl25z/./serial.c **** 	}
 400:../../cpu/arm/mkl25z/./serial.c **** 	if (UART0_IntStatReg & UART_S1_RDRF_MASK)													/* RX Interrupt 				*/
 1070              		.loc 1 400 0
 1071 0392 9A06     		lsl	r2, r3, #26	@, UART0_IntStatReg,
 1072 0394 07D5     		bpl	.L75	@,
 1073              	.LBB5:
 401:../../cpu/arm/mkl25z/./serial.c **** 	{
 402:../../cpu/arm/mkl25z/./serial.c **** 		register uint8_t inChar = UART0_D;								/* Read input data													*/
 1074              		.loc 1 402 0
 1075 0396 044B     		ldr	r3, .L80	@ tmp160,
 1076              	.LVL68:
 1077 0398 5868     		ldr	r0, [r3, #4]	@ tmp161,
 1078 039a 000E     		lsr	r0, r0, #24	@ inChar, tmp161,
 1079              	.LVL69:
 403:../../cpu/arm/mkl25z/./serial.c **** 		if (UART0_callback != NULL)							/* If a call back function has been registered						*/
 1080              		.loc 1 403 0
 1081 039c 034B     		ldr	r3, .L80+4	@ tmp163,
 1082 039e 1B68     		ldr	r3, [r3]	@ UART0_callback.7, UART0_callback
 1083 03a0 002B     		cmp	r3, #0	@ UART0_callback.7,
 1084 03a2 00D0     		beq	.L75	@,
 404:../../cpu/arm/mkl25z/./serial.c **** 		{
 405:../../cpu/arm/mkl25z/./serial.c **** 			(*UART0_callback)(inChar);						/* Call it and send received character								*/
 1085              		.loc 1 405 0
 1086 03a4 9847     		blx	r3	@ UART0_callback.7
 1087              	.LVL70:
 1088              	.L75:
 1089              	.LBE5:
 406:../../cpu/arm/mkl25z/./serial.c **** 		}
 407:../../cpu/arm/mkl25z/./serial.c **** 		else												/* else																*/
 408:../../cpu/arm/mkl25z/./serial.c **** 		{
 409:../../cpu/arm/mkl25z/./serial.c **** 			#ifdef DEBUG									/* Break if in debug, otherwise do nothing.							*/
 410:../../cpu/arm/mkl25z/./serial.c **** 			__asm("bkpt");
 411:../../cpu/arm/mkl25z/./serial.c **** 			#endif
 412:../../cpu/arm/mkl25z/./serial.c **** 			//UART0_PutChar(inChar);							/* Echo the character back out of UART0								*/
 413:../../cpu/arm/mkl25z/./serial.c **** 		}
 414:../../cpu/arm/mkl25z/./serial.c **** 	}
 415:../../cpu/arm/mkl25z/./serial.c **** }
 1090              		.loc 1 415 0
 1091              		@ sp needed	@
 1092 03a6 08BD     		pop	{r3, pc}
 1093              	.L81:
 1094              		.align	2
 1095              	.L80:
 1096 03a8 00A00640 		.word	1074176000
 1097 03ac 00000000 		.word	.LANCHOR0
 1098              		.cfi_endproc
 1099              	.LFE21:
 1100              		.size	UART0_IRQHandler, .-UART0_IRQHandler
ARM GAS  /tmp/ccGhjqcS.s 			page 28


 1101              		.align	2
 1102              		.global	UART1_IRQHandler
 1103              		.code	16
 1104              		.thumb_func
 1105              		.type	UART1_IRQHandler, %function
 1106              	UART1_IRQHandler:
 1107              	.LFB22:
 416:../../cpu/arm/mkl25z/./serial.c **** 
 417:../../cpu/arm/mkl25z/./serial.c **** void UART1_IRQHandler(void)					/* UART1 Interrupt Handler 		*/													
 418:../../cpu/arm/mkl25z/./serial.c **** {
 1108              		.loc 1 418 0
 1109              		.cfi_startproc
 1110 03b0 08B5     		push	{r3, lr}	@
 1111              	.LCFI10:
 1112              		.cfi_def_cfa_offset 8
 1113              		.cfi_offset 3, -8
 1114              		.cfi_offset 14, -4
 419:../../cpu/arm/mkl25z/./serial.c ****   register uint16_t UART1_IntStatReg = UART1_S1;			/* Copy of UART_S1, register for speed.								*
 1115              		.loc 1 419 0
 1116 03b2 0F4B     		ldr	r3, .L87	@ tmp122,
 1117 03b4 5B68     		ldr	r3, [r3, #4]	@ tmp123,
 1118 03b6 DBB2     		uxtb	r3, r3	@ D.5572, tmp123
 1119              	.LVL71:
 420:../../cpu/arm/mkl25z/./serial.c **** 			/* Check for error flags 		*/
 421:../../cpu/arm/mkl25z/./serial.c **** 	if (UART1_IntStatReg & (UART_S1_OR_MASK | UART_S1_NF_MASK | UART_S1_FE_MASK | UART_S1_PF_MASK)) 		
 1120              		.loc 1 421 0
 1121 03b8 1A07     		lsl	r2, r3, #28	@, D.5572,
 1122 03ba 05D0     		beq	.L84	@,
 422:../../cpu/arm/mkl25z/./serial.c **** 	{	
 423:../../cpu/arm/mkl25z/./serial.c **** 		UART1_S1 = (uint8_t)UART_S1_Err;					/* Write to status register to acknowledge error.					*/
 1123              		.loc 1 423 0
 1124 03bc 0C4A     		ldr	r2, .L87	@ tmp130,
 1125 03be 0F21     		mov	r1, #15	@ tmp131,
 1126 03c0 1171     		strb	r1, [r2, #4]	@ tmp131, MEM[(volatile struct UART_MemMap *)1074180096B].S1
 424:../../cpu/arm/mkl25z/./serial.c **** 		(void) UART1_D;										/* Dummy read of input data.										*/
 1127              		.loc 1 424 0
 1128 03c2 5268     		ldr	r2, [r2, #4]	@ tmp134,
 425:../../cpu/arm/mkl25z/./serial.c **** 		UART1_IntStatReg &= (uint8_t)~UART_S1_RDRF_MASK;	/* Clear RDRF flag so that data is junked.						
 1129              		.loc 1 425 0
 1130 03c4 2022     		mov	r2, #32	@ tmp137,
 1131 03c6 9343     		bic	r3, r2	@ UART1_IntStatReg, tmp137
 1132              	.LVL72:
 1133              	.L84:
 426:../../cpu/arm/mkl25z/./serial.c **** 	}
 427:../../cpu/arm/mkl25z/./serial.c **** 	if (UART1_C2 & UART_C2_TIE_MASK)															/* TX Interrupt enabled 		*/
 1134              		.loc 1 427 0
 1135 03c8 094A     		ldr	r2, .L87	@ tmp140,
 1136 03ca 1268     		ldr	r2, [r2]	@ tmp141,
 1137 03cc 002A     		cmp	r2, #0	@ tmp141,
 1138 03ce 04DA     		bge	.L85	@,
 428:../../cpu/arm/mkl25z/./serial.c **** 	{
 429:../../cpu/arm/mkl25z/./serial.c **** 		UART1_C2 &= (uint8_t)~UART_C2_TIE_MASK;				/* We should never get here, disable TX interrupt					
 1139              		.loc 1 429 0
 1140 03d0 074A     		ldr	r2, .L87	@ tmp145,
 1141 03d2 1168     		ldr	r1, [r2]	@ tmp146,
 1142 03d4 4900     		lsl	r1, r1, #1	@ tmp151, tmp146,
 1143 03d6 490E     		lsr	r1, r1, #25	@ D.5572, tmp151,
ARM GAS  /tmp/ccGhjqcS.s 			page 29


 1144 03d8 D170     		strb	r1, [r2, #3]	@ D.5572, MEM[(volatile struct UART_MemMap *)1074180096B].C2
 1145              	.L85:
 430:../../cpu/arm/mkl25z/./serial.c **** 	}
 431:../../cpu/arm/mkl25z/./serial.c **** 	if (UART1_IntStatReg & UART_S1_RDRF_MASK)													/* RX Interrupt 				*/
 1146              		.loc 1 431 0
 1147 03da 9A06     		lsl	r2, r3, #26	@, UART1_IntStatReg,
 1148 03dc 07D5     		bpl	.L82	@,
 1149              	.LBB6:
 432:../../cpu/arm/mkl25z/./serial.c **** 	{
 433:../../cpu/arm/mkl25z/./serial.c **** 		register uint8_t inChar = UART1_D;					/* Read input data													*/
 1150              		.loc 1 433 0
 1151 03de 044B     		ldr	r3, .L87	@ tmp160,
 1152              	.LVL73:
 1153 03e0 5868     		ldr	r0, [r3, #4]	@ tmp161,
 1154 03e2 000E     		lsr	r0, r0, #24	@ inChar, tmp161,
 1155              	.LVL74:
 434:../../cpu/arm/mkl25z/./serial.c **** 		if (UART1_callback != NULL)							/* If a call back function has been registered						*/
 1156              		.loc 1 434 0
 1157 03e4 034B     		ldr	r3, .L87+4	@ tmp163,
 1158 03e6 5B68     		ldr	r3, [r3, #4]	@ UART1_callback.9, UART1_callback
 1159 03e8 002B     		cmp	r3, #0	@ UART1_callback.9,
 1160 03ea 00D0     		beq	.L82	@,
 435:../../cpu/arm/mkl25z/./serial.c **** 		{
 436:../../cpu/arm/mkl25z/./serial.c **** 			(*UART1_callback)(inChar);						/* Call it and send received character								*/
 1161              		.loc 1 436 0
 1162 03ec 9847     		blx	r3	@ UART1_callback.9
 1163              	.LVL75:
 1164              	.L82:
 1165              	.LBE6:
 437:../../cpu/arm/mkl25z/./serial.c **** 		}
 438:../../cpu/arm/mkl25z/./serial.c **** 		else												/* else																*/
 439:../../cpu/arm/mkl25z/./serial.c **** 		{
 440:../../cpu/arm/mkl25z/./serial.c **** 			#ifdef DEBUG									/* Break if in debug, otherwise do nothing.							*/
 441:../../cpu/arm/mkl25z/./serial.c **** 			__asm("bkpt");
 442:../../cpu/arm/mkl25z/./serial.c **** 			#endif
 443:../../cpu/arm/mkl25z/./serial.c **** 		}
 444:../../cpu/arm/mkl25z/./serial.c **** 	}
 445:../../cpu/arm/mkl25z/./serial.c **** }
 1166              		.loc 1 445 0
 1167              		@ sp needed	@
 1168 03ee 08BD     		pop	{r3, pc}
 1169              	.L88:
 1170              		.align	2
 1171              	.L87:
 1172 03f0 00B00640 		.word	1074180096
 1173 03f4 00000000 		.word	.LANCHOR0
 1174              		.cfi_endproc
 1175              	.LFE22:
 1176              		.size	UART1_IRQHandler, .-UART1_IRQHandler
 1177              		.align	2
 1178              		.global	UART2_IRQHandler
 1179              		.code	16
 1180              		.thumb_func
 1181              		.type	UART2_IRQHandler, %function
 1182              	UART2_IRQHandler:
 1183              	.LFB23:
 446:../../cpu/arm/mkl25z/./serial.c **** 
ARM GAS  /tmp/ccGhjqcS.s 			page 30


 447:../../cpu/arm/mkl25z/./serial.c **** void UART2_IRQHandler(void)					/* UART2 Interrupt Handler 		*/													
 448:../../cpu/arm/mkl25z/./serial.c **** {
 1184              		.loc 1 448 0
 1185              		.cfi_startproc
 1186 03f8 08B5     		push	{r3, lr}	@
 1187              	.LCFI11:
 1188              		.cfi_def_cfa_offset 8
 1189              		.cfi_offset 3, -8
 1190              		.cfi_offset 14, -4
 449:../../cpu/arm/mkl25z/./serial.c ****   register uint16_t UART2_IntStatReg = UART2_S1;			/* Copy of UART_S1, register for speed.								*
 1191              		.loc 1 449 0
 1192 03fa 0F4B     		ldr	r3, .L94	@ tmp122,
 1193 03fc 5B68     		ldr	r3, [r3, #4]	@ tmp123,
 1194 03fe DBB2     		uxtb	r3, r3	@ D.5577, tmp123
 1195              	.LVL76:
 450:../../cpu/arm/mkl25z/./serial.c **** 			/* Check for error flags 		*/
 451:../../cpu/arm/mkl25z/./serial.c **** 	if (UART2_IntStatReg & (UART_S1_OR_MASK | UART_S1_NF_MASK | UART_S1_FE_MASK | UART_S1_PF_MASK)) 		
 1196              		.loc 1 451 0
 1197 0400 1A07     		lsl	r2, r3, #28	@, D.5577,
 1198 0402 05D0     		beq	.L91	@,
 452:../../cpu/arm/mkl25z/./serial.c **** 	{	
 453:../../cpu/arm/mkl25z/./serial.c **** 		UART2_S1 = (uint8_t)UART_S1_Err;					/* Write to status register to acknowledge error.					*/
 1199              		.loc 1 453 0
 1200 0404 0C4A     		ldr	r2, .L94	@ tmp130,
 1201 0406 0F21     		mov	r1, #15	@ tmp131,
 1202 0408 1171     		strb	r1, [r2, #4]	@ tmp131, MEM[(volatile struct UART_MemMap *)1074184192B].S1
 454:../../cpu/arm/mkl25z/./serial.c **** 		(void) UART2_D;										/* Dummy read of input data.										*/
 1203              		.loc 1 454 0
 1204 040a 5268     		ldr	r2, [r2, #4]	@ tmp134,
 455:../../cpu/arm/mkl25z/./serial.c **** 		UART2_IntStatReg &= (uint8_t)~UART_S1_RDRF_MASK;	/* Clear RDRF flag so that data is junked.						
 1205              		.loc 1 455 0
 1206 040c 2022     		mov	r2, #32	@ tmp137,
 1207 040e 9343     		bic	r3, r2	@ UART2_IntStatReg, tmp137
 1208              	.LVL77:
 1209              	.L91:
 456:../../cpu/arm/mkl25z/./serial.c **** 	}
 457:../../cpu/arm/mkl25z/./serial.c **** 	if (UART2_C2 & UART_C2_TIE_MASK)															/* TX Interrupt enabled 		*/
 1210              		.loc 1 457 0
 1211 0410 094A     		ldr	r2, .L94	@ tmp140,
 1212 0412 1268     		ldr	r2, [r2]	@ tmp141,
 1213 0414 002A     		cmp	r2, #0	@ tmp141,
 1214 0416 04DA     		bge	.L92	@,
 458:../../cpu/arm/mkl25z/./serial.c **** 	{
 459:../../cpu/arm/mkl25z/./serial.c **** 		UART2_C2 &= (uint8_t)~UART_C2_TIE_MASK;				/* We should never get here, disable TX interrupt					
 1215              		.loc 1 459 0
 1216 0418 074A     		ldr	r2, .L94	@ tmp145,
 1217 041a 1168     		ldr	r1, [r2]	@ tmp146,
 1218 041c 4900     		lsl	r1, r1, #1	@ tmp151, tmp146,
 1219 041e 490E     		lsr	r1, r1, #25	@ D.5577, tmp151,
 1220 0420 D170     		strb	r1, [r2, #3]	@ D.5577, MEM[(volatile struct UART_MemMap *)1074184192B].C2
 1221              	.L92:
 460:../../cpu/arm/mkl25z/./serial.c **** 	}
 461:../../cpu/arm/mkl25z/./serial.c **** 	if (UART2_IntStatReg & UART_S1_RDRF_MASK)													/* RX Interrupt 				*/
 1222              		.loc 1 461 0
 1223 0422 9A06     		lsl	r2, r3, #26	@, UART2_IntStatReg,
 1224 0424 07D5     		bpl	.L89	@,
 1225              	.LBB7:
ARM GAS  /tmp/ccGhjqcS.s 			page 31


 462:../../cpu/arm/mkl25z/./serial.c **** 	{
 463:../../cpu/arm/mkl25z/./serial.c **** 		register uint8_t inChar = UART2_D;					/* Read input data													*/
 1226              		.loc 1 463 0
 1227 0426 044B     		ldr	r3, .L94	@ tmp160,
 1228              	.LVL78:
 1229 0428 5868     		ldr	r0, [r3, #4]	@ tmp161,
 1230 042a 000E     		lsr	r0, r0, #24	@ inChar, tmp161,
 1231              	.LVL79:
 464:../../cpu/arm/mkl25z/./serial.c **** 		if (UART2_callback != NULL)							/* If a call back function has been registered						*/
 1232              		.loc 1 464 0
 1233 042c 034B     		ldr	r3, .L94+4	@ tmp163,
 1234 042e 9B68     		ldr	r3, [r3, #8]	@ UART2_callback.11, UART2_callback
 1235 0430 002B     		cmp	r3, #0	@ UART2_callback.11,
 1236 0432 00D0     		beq	.L89	@,
 465:../../cpu/arm/mkl25z/./serial.c **** 		{
 466:../../cpu/arm/mkl25z/./serial.c **** 			(*UART2_callback)(inChar);						/* Call it and send received character								*/
 1237              		.loc 1 466 0
 1238 0434 9847     		blx	r3	@ UART2_callback.11
 1239              	.LVL80:
 1240              	.L89:
 1241              	.LBE7:
 467:../../cpu/arm/mkl25z/./serial.c **** 		}
 468:../../cpu/arm/mkl25z/./serial.c **** 		else												/* else																*/
 469:../../cpu/arm/mkl25z/./serial.c **** 		{
 470:../../cpu/arm/mkl25z/./serial.c **** 			#ifdef DEBUG									/* Break if in debug, otherwise do nothing.							*/
 471:../../cpu/arm/mkl25z/./serial.c **** 			__asm("bkpt");
 472:../../cpu/arm/mkl25z/./serial.c **** 			#endif
 473:../../cpu/arm/mkl25z/./serial.c **** 		}
 474:../../cpu/arm/mkl25z/./serial.c **** 	}
 475:../../cpu/arm/mkl25z/./serial.c **** }
 1242              		.loc 1 475 0
 1243              		@ sp needed	@
 1244 0436 08BD     		pop	{r3, pc}
 1245              	.L95:
 1246              		.align	2
 1247              	.L94:
 1248 0438 00C00640 		.word	1074184192
 1249 043c 00000000 		.word	.LANCHOR0
 1250              		.cfi_endproc
 1251              	.LFE23:
 1252              		.size	UART2_IRQHandler, .-UART2_IRQHandler
 1253              		.bss
 1254              		.align	2
 1255              		.set	.LANCHOR0,. + 0
 1256              		.type	UART0_callback, %object
 1257              		.size	UART0_callback, 4
 1258              	UART0_callback:
 1259 0000 00000000 		.space	4
 1260              		.type	UART1_callback, %object
 1261              		.size	UART1_callback, 4
 1262              	UART1_callback:
 1263 0004 00000000 		.space	4
 1264              		.type	UART2_callback, %object
 1265              		.size	UART2_callback, 4
 1266              	UART2_callback:
 1267 0008 00000000 		.space	4
 1268              		.text
ARM GAS  /tmp/ccGhjqcS.s 			page 32


 1269              	.Letext0:
 1270              		.file 2 "/home/glacsweb/arm-gcc/ARM_GCC_Support/ewl/EWL_C/include/cstdint"
 1271              		.file 3 "../../cpu/arm/mkl25z/MKL25Z4.h"
 1272              		.file 4 "../../cpu/arm/mkl25z/./nvic.h"