ARM GAS  /tmp/ccykBDF0.s 			page 1


   1              		.cpu cortex-m0plus
   2              		.fpu softvfp
   3              		.eabi_attribute 20, 1	@ Tag_ABI_FP_denormal
   4              		.eabi_attribute 21, 1	@ Tag_ABI_FP_exceptions
   5              		.eabi_attribute 23, 3	@ Tag_ABI_FP_number_model
   6              		.eabi_attribute 24, 1	@ Tag_ABI_align8_needed
   7              		.eabi_attribute 25, 1	@ Tag_ABI_align8_preserved
   8              		.eabi_attribute 26, 1	@ Tag_ABI_enum_size
   9              		.eabi_attribute 30, 1	@ Tag_ABI_optimization_goals
  10              		.eabi_attribute 34, 0	@ Tag_CPU_unaligned_access
  11              		.eabi_attribute 18, 4	@ Tag_ABI_PCS_wchar_t
  12              		.file	"spi.c"
  13              	@ GNU C (GNU Tools for ARM Embedded Processors) version 4.8.3 20131129 (release) [ARM/embedded-4_8-
  14              	@	compiled by GNU C version 4.6.3, GMP version 4.3.2, MPFR version 2.4.2, MPC version 0.8.1
  15              	@ GGC heuristics: --param ggc-min-expand=100 --param ggc-min-heapsize=131072
  16              	@ options passed:  -I . -I ../../cpu/arm/mkl25z
  17              	@ -I ../../cpu/arm/mkl25z/loader -I ../../cpu/arm/mkl25z/dbg-io
  18              	@ -I ../../dev -I ../../platform/frdm-kl25z-rf
  19              	@ -I /home/glacsweb/arm-gcc/ARM_GCC_Support/ewl/EWL_C/include
  20              	@ -I /home/glacsweb/arm-gcc/ARM_GCC_Support/ewl/EWL_Runtime/include
  21              	@ -I /home/glacsweb/arm-gcc/lib/gcc/arm-none-eabi/4.8.3/include
  22              	@ -I /home/glacsweb/arm-gcc/lib/gcc/arm-none-eabi/4.8.3/include-fixed
  23              	@ -I /home/glacsweb/arm-gcc/arm-none-eabi/include -I ../../dev/cc1120 -I .
  24              	@ -I ../../platform/frdm-kl25z-rf/. -I ../../platform/frdm-kl25z-rf/dev
  25              	@ -I ../../platform/frdm-kl25z-rf/apps -I ../../platform/frdm-kl25z-rf/net
  26              	@ -I ../../platform/frdm-kl25z-rf/../../dev/cc1120
  27              	@ -I ../../platform/frdm-kl25z-rf/../../core/net -I ../../cpu/arm/mkl25z/.
  28              	@ -I ../../cpu/arm/mkl25z/../common/dbg-io -I ../../cpu/arm/mkl25z/loader
  29              	@ -I ../../core/dev -I ../../core/lib -I ../../core/net
  30              	@ -I ../../core/net/mac -I ../../core/net/rime -I ../../core/net/rpl
  31              	@ -I ../../core/sys -I ../../core/cfs -I ../../core/ctk
  32              	@ -I ../../core/lib/ctk -I ../../core/loader -I ../../core/.
  33              	@ -I ../../platform/frdm-kl25z-rf/ -imultilib armv6-m
  34              	@ -iprefix /home/glacsweb/arm-gcc/bin/../lib/gcc/arm-none-eabi/4.8.3/
  35              	@ -isysroot /home/glacsweb/arm-gcc/bin/../arm-none-eabi -D__USES_INITFINI__
  36              	@ -D CONTIKI=1 -D CONTIKI_TARGET_FRDM_KL25Z_RF=1 -D WITH_UIP=1
  37              	@ -D MCK=48000000 -D AUTOSTART_ENABLE -D CC11xx_CC1120=1 -D RUN_AS_SYSTEM
  38              	@ -D ROM_RUN -D __SDCC
  39              	@ -D CONTIKI_VERSION_STRING="Contiki-KL25Z-Port-18-g5a8e189"
  40              	@ ../../cpu/arm/mkl25z/./spi.c -mcpu=cortex-m0plus -mthumb
  41              	@ -auxbase-strip obj_frdm-kl25z-rf/spi.o -gdwarf-2 -g -O -Wall
  42              	@ -Wstrict-prototypes -fomit-frame-pointer -fverbose-asm
  43              	@ options enabled:  -faggressive-loop-optimizations -fauto-inc-dec
  44              	@ -fbranch-count-reg -fcombine-stack-adjustments -fcommon -fcompare-elim
  45              	@ -fcprop-registers -fdefer-pop -fdelete-null-pointer-checks
  46              	@ -fdwarf2-cfi-asm -fearly-inlining -feliminate-unused-debug-types
  47              	@ -fforward-propagate -ffunction-cse -fgcse-lm -fgnu-runtime
  48              	@ -fguess-branch-probability -fident -fif-conversion -fif-conversion2
  49              	@ -finline -finline-atomics -finline-functions-called-once -fipa-profile
  50              	@ -fipa-pure-const -fipa-reference -fira-hoist-pressure
  51              	@ -fira-share-save-slots -fira-share-spill-slots -fivopts
  52              	@ -fkeep-static-consts -fleading-underscore -fmath-errno -fmerge-constants
  53              	@ -fmerge-debug-strings -fmove-loop-invariants -fomit-frame-pointer
  54              	@ -fpeephole -fprefetch-loop-arrays -freg-struct-return
  55              	@ -fsched-critical-path-heuristic -fsched-dep-count-heuristic
  56              	@ -fsched-group-heuristic -fsched-interblock -fsched-last-insn-heuristic
  57              	@ -fsched-pressure -fsched-rank-heuristic -fsched-spec
ARM GAS  /tmp/ccykBDF0.s 			page 2


  58              	@ -fsched-spec-insn-heuristic -fsched-stalled-insns-dep -fsection-anchors
  59              	@ -fshow-column -fshrink-wrap -fsigned-zeros -fsplit-ivs-in-unroller
  60              	@ -fsplit-wide-types -fstrict-volatile-bitfields -fsync-libcalls
  61              	@ -ftoplevel-reorder -ftrapping-math -ftree-bit-ccp -ftree-ccp -ftree-ch
  62              	@ -ftree-coalesce-vars -ftree-copy-prop -ftree-copyrename -ftree-cselim
  63              	@ -ftree-dce -ftree-dominator-opts -ftree-dse -ftree-forwprop -ftree-fre
  64              	@ -ftree-loop-if-convert -ftree-loop-im -ftree-loop-ivcanon
  65              	@ -ftree-loop-optimize -ftree-parallelize-loops= -ftree-phiprop -ftree-pta
  66              	@ -ftree-reassoc -ftree-scev-cprop -ftree-sink -ftree-slp-vectorize
  67              	@ -ftree-slsr -ftree-sra -ftree-ter -ftree-vect-loop-version
  68              	@ -funit-at-a-time -fvar-tracking -fvar-tracking-assignments -fverbose-asm
  69              	@ -fzero-initialized-in-bss -mlittle-endian -mpic-data-is-text-relative
  70              	@ -msched-prolog -mthumb -mvectorize-with-neon-quad
  71              	
  72              		.text
  73              	.Ltext0:
  74              		.cfi_sections	.debug_frame
  75              		.align	2
  76              		.global	SPI0_init
  77              		.code	16
  78              		.thumb_func
  79              		.type	SPI0_init, %function
  80              	SPI0_init:
  81              	.LFB0:
  82              		.file 1 "../../cpu/arm/mkl25z/./spi.c"
   1:../../cpu/arm/mkl25z/./spi.c **** /*-------------------------------------------------------------------------------------------------
   2:../../cpu/arm/mkl25z/./spi.c **** /*	spi.c	
   3:../../cpu/arm/mkl25z/./spi.c ****  *	
   4:../../cpu/arm/mkl25z/./spi.c ****  *	SPI functions for the Freescale FRDM-KL25z Freedom Board
   5:../../cpu/arm/mkl25z/./spi.c ****  *	
   6:../../cpu/arm/mkl25z/./spi.c ****  *	Author: Graeme Bragg
   7:../../cpu/arm/mkl25z/./spi.c ****  * 			ARM-ECS / Pervasive Systems Centre
   8:../../cpu/arm/mkl25z/./spi.c ****  * 			School of Electronics & Computer Science
   9:../../cpu/arm/mkl25z/./spi.c ****  * 			University of Southampton
  10:../../cpu/arm/mkl25z/./spi.c ****  * 
  11:../../cpu/arm/mkl25z/./spi.c ****  * 
  12:../../cpu/arm/mkl25z/./spi.c ****  *	1/5/2014	Rev.01		Includes functions for initialising SPI0 for CC1120,
  13:../../cpu/arm/mkl25z/./spi.c ****  *							controlling CSn and sending data.
  14:../../cpu/arm/mkl25z/./spi.c ****  *
  15:../../cpu/arm/mkl25z/./spi.c ****  *	Page references relate to the KL25 Sub-Family Reference Manual, Document 
  16:../../cpu/arm/mkl25z/./spi.c ****  *	No. KL25P80M48SF0RM, Rev. 3 September 2012. Available on 25/02/2013 from: 
  17:../../cpu/arm/mkl25z/./spi.c ****  *	http://cache.freescale.com/files/32bit/doc/ref_manual/KL25P80M48SF0RM.pdf?fr=gdc
  18:../../cpu/arm/mkl25z/./spi.c ****  *	
  19:../../cpu/arm/mkl25z/./spi.c ****  *	Page references to "M0 Book" refer to "The Definitive Guide to the 
  20:../../cpu/arm/mkl25z/./spi.c ****  *	ARM Cortex-M0" by Joseph Yiu, ISBN 978-0-12-385477-3.
  21:../../cpu/arm/mkl25z/./spi.c ****  *	
  22:../../cpu/arm/mkl25z/./spi.c ****  *
  23:../../cpu/arm/mkl25z/./spi.c ****  * Copyright (c) 2014, University of Southampton, Electronics and Computer Science
  24:../../cpu/arm/mkl25z/./spi.c ****  * All rights reserved.
  25:../../cpu/arm/mkl25z/./spi.c ****  *
  26:../../cpu/arm/mkl25z/./spi.c ****  * Redistribution and use in source and binary forms, with or without
  27:../../cpu/arm/mkl25z/./spi.c ****  * modification, are permitted provided that the following conditions
  28:../../cpu/arm/mkl25z/./spi.c ****  * are met:
  29:../../cpu/arm/mkl25z/./spi.c ****  * 1. Redistributions of source code must retain the above copyright
  30:../../cpu/arm/mkl25z/./spi.c ****  * notice, this list of conditions and the following disclaimer.
  31:../../cpu/arm/mkl25z/./spi.c ****  * 2. Redistributions in binary form must reproduce the above copyright
  32:../../cpu/arm/mkl25z/./spi.c ****  * notice, this list of conditions and the following disclaimer in the
ARM GAS  /tmp/ccykBDF0.s 			page 3


  33:../../cpu/arm/mkl25z/./spi.c ****  * documentation and/or other materials provided with the distribution.
  34:../../cpu/arm/mkl25z/./spi.c ****  * 3. Neither the name of the Institute nor the names of its contributors
  35:../../cpu/arm/mkl25z/./spi.c ****  * may be used to endorse or promote products derived from this software
  36:../../cpu/arm/mkl25z/./spi.c ****  * without specific prior written permission.
  37:../../cpu/arm/mkl25z/./spi.c ****  *
  38:../../cpu/arm/mkl25z/./spi.c ****  * THIS SOFTWARE IS PROVIDED BY THE INSTITUTE AND CONTRIBUTORS ``AS IS'' AND
  39:../../cpu/arm/mkl25z/./spi.c ****  * ANY EXPRESS OR IMPLIED WARRANTIES, INCLUDING, BUT NOT LIMITED TO, THE
  40:../../cpu/arm/mkl25z/./spi.c ****  * IMPLIED WARRANTIES OF MERCHANTABILITY AND FITNESS FOR A PARTICULAR PURPOSE
  41:../../cpu/arm/mkl25z/./spi.c ****  * ARE DISCLAIMED. IN NO EVENT SHALL THE INSTITUTE OR CONTRIBUTORS BE LIABLE
  42:../../cpu/arm/mkl25z/./spi.c ****  * FOR ANY DIRECT, INDIRECT, INCIDENTAL, SPECIAL, EXEMPLARY, OR CONSEQUENTIAL
  43:../../cpu/arm/mkl25z/./spi.c ****  * DAMAGES (INCLUDING, BUT NOT LIMITED TO, PROCUREMENT OF SUBSTITUTE GOODS
  44:../../cpu/arm/mkl25z/./spi.c ****  * OR SERVICES; LOSS OF USE, DATA, OR PROFITS; OR BUSINESS INTERRUPTION)
  45:../../cpu/arm/mkl25z/./spi.c ****  * HOWEVER CAUSED AND ON ANY THEORY OF LIABILITY, WHETHER IN CONTRACT, STRICT
  46:../../cpu/arm/mkl25z/./spi.c ****  * LIABILITY, OR TORT (INCLUDING NEGLIGENCE OR OTHERWISE) ARISING IN ANY WAY
  47:../../cpu/arm/mkl25z/./spi.c ****  * OUT OF THE USE OF THIS SOFTWARE, EVEN IF ADVISED OF THE POSSIBILITY OF
  48:../../cpu/arm/mkl25z/./spi.c ****  * SUCH DAMAGE.
  49:../../cpu/arm/mkl25z/./spi.c ****  *
  50:../../cpu/arm/mkl25z/./spi.c ****  */				
  51:../../cpu/arm/mkl25z/./spi.c **** /*-------------------------------------------------------------------------------------------------
  52:../../cpu/arm/mkl25z/./spi.c **** 
  53:../../cpu/arm/mkl25z/./spi.c **** #include <MKL25Z4.h>                   /* I/O map for MKL25Z128VLK4 */
  54:../../cpu/arm/mkl25z/./spi.c **** #include "cpu.h"
  55:../../cpu/arm/mkl25z/./spi.c **** 
  56:../../cpu/arm/mkl25z/./spi.c **** #include "spi.h"
  57:../../cpu/arm/mkl25z/./spi.c **** 
  58:../../cpu/arm/mkl25z/./spi.c **** #include <stdlib.h>
  59:../../cpu/arm/mkl25z/./spi.c **** 
  60:../../cpu/arm/mkl25z/./spi.c **** void SPI0_init(void)
  61:../../cpu/arm/mkl25z/./spi.c **** {
  83              		.loc 1 61 0
  84              		.cfi_startproc
  85 0000 38B5     		push	{r3, r4, r5, lr}	@
  86              	.LCFI0:
  87              		.cfi_def_cfa_offset 16
  88              		.cfi_offset 3, -16
  89              		.cfi_offset 4, -12
  90              		.cfi_offset 5, -8
  91              		.cfi_offset 14, -4
  62:../../cpu/arm/mkl25z/./spi.c ****   port_enable(PORTD_EN_MASK | PORTC_EN_MASK); 				/* Make sure that clocks are enable to Port D and
  92              		.loc 1 62 0
  93 0002 0620     		mov	r0, #6	@,
  94 0004 FFF7FEFF 		bl	port_enable	@
  95              	.LVL0:
  63:../../cpu/arm/mkl25z/./spi.c ****   
  64:../../cpu/arm/mkl25z/./spi.c ****   
  65:../../cpu/arm/mkl25z/./spi.c ****   /* Configure CSn pin on Port D, Pin 0 */
  66:../../cpu/arm/mkl25z/./spi.c ****   GPIOD_PDDR |= GPIO_PDDR_PDD(0x01); 						/* Set pin as Output. */                                
  96              		.loc 1 66 0
  97 0008 294B     		ldr	r3, .L2	@ tmp144,
  98 000a 5969     		ldr	r1, [r3, #20]	@ D.4870, MEM[(volatile struct GPIO_MemMap *)1074786496B].PDDR
  99 000c 0122     		mov	r2, #1	@ tmp145,
 100 000e 1143     		orr	r1, r2	@ D.4870, tmp145
 101 0010 5961     		str	r1, [r3, #20]	@ D.4870, MEM[(volatile struct GPIO_MemMap *)1074786496B].PDDR
  67:../../cpu/arm/mkl25z/./spi.c ****   GPIOD_PDOR |= GPIO_PDOR_PDO(0x01);    					/* Set initialisation value on 1 */                   
 102              		.loc 1 67 0
 103 0012 1968     		ldr	r1, [r3]	@ D.4870, MEM[(volatile struct GPIO_MemMap *)1074786496B].PDOR
 104 0014 0A43     		orr	r2, r1	@ D.4870, D.4870
ARM GAS  /tmp/ccykBDF0.s 			page 4


 105 0016 1A60     		str	r2, [r3]	@ D.4870, MEM[(volatile struct GPIO_MemMap *)1074786496B].PDOR
  68:../../cpu/arm/mkl25z/./spi.c **** 
  69:../../cpu/arm/mkl25z/./spi.c ****   PORTD_PCR0 &= ~PORT_PCR_MUX_MASK;							/* Clear PCR Multiplex. */
 106              		.loc 1 69 0
 107 0018 264B     		ldr	r3, .L2+4	@ tmp150,
 108 001a 1968     		ldr	r1, [r3]	@ D.4870, MEM[(volatile struct PORT_MemMap *)1074053120B].PCR
 109 001c 264A     		ldr	r2, .L2+8	@ tmp151,
 110 001e 1140     		and	r1, r2	@ D.4870, tmp151
 111 0020 1960     		str	r1, [r3]	@ D.4870, MEM[(volatile struct PORT_MemMap *)1074053120B].PCR
  70:../../cpu/arm/mkl25z/./spi.c ****   PORTD_PCR0 |= PORT_PCR_ISF_MASK | PORT_PCR_MUX(0x01);		/* Clear ISF & set MUX to be basic pin. */
 112              		.loc 1 70 0
 113 0022 1968     		ldr	r1, [r3]	@ D.4870, MEM[(volatile struct PORT_MemMap *)1074053120B].PCR
 114 0024 2548     		ldr	r0, .L2+12	@ tmp154,
 115 0026 0143     		orr	r1, r0	@ D.4870, tmp154
 116 0028 1960     		str	r1, [r3]	@ D.4870, MEM[(volatile struct PORT_MemMap *)1074053120B].PCR
  71:../../cpu/arm/mkl25z/./spi.c ****   
  72:../../cpu/arm/mkl25z/./spi.c ****   
  73:../../cpu/arm/mkl25z/./spi.c ****   /* Configure SPI0. */
  74:../../cpu/arm/mkl25z/./spi.c ****   SIM_SCGC4 |= SIM_SCGC4_SPI0_MASK;      					/* Enable clock to SPI Module */
 117              		.loc 1 74 0
 118 002a 2548     		ldr	r0, .L2+16	@ tmp156,
 119 002c 2549     		ldr	r1, .L2+20	@ tmp157,
 120 002e 4558     		ldr	r5, [r0, r1]	@ D.4870, MEM[(volatile struct SIM_MemMap *)1074032640B].SCGC4
 121 0030 8024     		mov	r4, #128	@ tmp210,
 122 0032 E403     		lsl	r4, r4, #15	@ tmp158, tmp210,
 123 0034 2C43     		orr	r4, r5	@ D.4870, D.4870
 124 0036 4450     		str	r4, [r0, r1]	@ D.4870, MEM[(volatile struct SIM_MemMap *)1074032640B].SCGC4
  75:../../cpu/arm/mkl25z/./spi.c ****   
  76:../../cpu/arm/mkl25z/./spi.c ****   PORTD_PCR3 &= ~PORT_PCR_MUX_MASK; 						/* Clear Port D, Pin 3 Mux. */
 125              		.loc 1 76 0
 126 0038 D968     		ldr	r1, [r3, #12]	@ D.4870, MEM[(volatile struct PORT_MemMap *)1074053120B].PCR
 127 003a 1140     		and	r1, r2	@ D.4870, tmp151
 128 003c D960     		str	r1, [r3, #12]	@ D.4870, MEM[(volatile struct PORT_MemMap *)1074053120B].PCR
  77:../../cpu/arm/mkl25z/./spi.c ****   PORTD_PCR3 |= PORT_PCR_ISF_MASK | PORT_PCR_MUX(0x02);     /* Clear ISF & Set Port D, Pin 3 as MIS
 129              		.loc 1 77 0
 130 003e D868     		ldr	r0, [r3, #12]	@ D.4870, MEM[(volatile struct PORT_MemMap *)1074053120B].PCR
 131 0040 2149     		ldr	r1, .L2+24	@ tmp165,
 132 0042 0843     		orr	r0, r1	@ D.4870, tmp165
 133 0044 D860     		str	r0, [r3, #12]	@ D.4870, MEM[(volatile struct PORT_MemMap *)1074053120B].PCR
  78:../../cpu/arm/mkl25z/./spi.c ****   
  79:../../cpu/arm/mkl25z/./spi.c ****   PORTD_PCR2 &= ~PORT_PCR_MUX_MASK;							/* Clear Port D, Pin 2 Mux. */
 134              		.loc 1 79 0
 135 0046 9868     		ldr	r0, [r3, #8]	@ D.4870, MEM[(volatile struct PORT_MemMap *)1074053120B].PCR
 136 0048 1040     		and	r0, r2	@ D.4870, tmp151
 137 004a 9860     		str	r0, [r3, #8]	@ D.4870, MEM[(volatile struct PORT_MemMap *)1074053120B].PCR
  80:../../cpu/arm/mkl25z/./spi.c ****   PORTD_PCR2 |= PORT_PCR_ISF_MASK | PORT_PCR_MUX(0x02);     /* Clear ISF & Set Port D, Pin 2 as MOS
 138              		.loc 1 80 0
 139 004c 9868     		ldr	r0, [r3, #8]	@ D.4870, MEM[(volatile struct PORT_MemMap *)1074053120B].PCR
 140 004e 0843     		orr	r0, r1	@ D.4870, tmp165
 141 0050 9860     		str	r0, [r3, #8]	@ D.4870, MEM[(volatile struct PORT_MemMap *)1074053120B].PCR
  81:../../cpu/arm/mkl25z/./spi.c ****   
  82:../../cpu/arm/mkl25z/./spi.c ****   PORTC_PCR5 &= ~PORT_PCR_MUX_MASK;							/* Clear Port C, Pin 5 Mux. */
 142              		.loc 1 82 0
 143 0052 1E4B     		ldr	r3, .L2+28	@ tmp173,
 144 0054 5869     		ldr	r0, [r3, #20]	@ D.4870, MEM[(volatile struct PORT_MemMap *)1074049024B].PCR
 145 0056 0240     		and	r2, r0	@ D.4870, D.4870
 146 0058 5A61     		str	r2, [r3, #20]	@ D.4870, MEM[(volatile struct PORT_MemMap *)1074049024B].PCR
ARM GAS  /tmp/ccykBDF0.s 			page 5


  83:../../cpu/arm/mkl25z/./spi.c ****   PORTC_PCR5 |= PORT_PCR_ISF_MASK | PORT_PCR_MUX(0x02); 	/* Clear ISF & Set Port C, Pin 5 as Clock.
 147              		.loc 1 83 0
 148 005a 5A69     		ldr	r2, [r3, #20]	@ D.4870, MEM[(volatile struct PORT_MemMap *)1074049024B].PCR
 149 005c 1143     		orr	r1, r2	@ D.4870, D.4870
 150 005e 5961     		str	r1, [r3, #20]	@ D.4870, MEM[(volatile struct PORT_MemMap *)1074049024B].PCR
  84:../../cpu/arm/mkl25z/./spi.c ****   
  85:../../cpu/arm/mkl25z/./spi.c ****   printf("\n\rSPI0_C1 = %d...", SPI0_C1);
 151              		.loc 1 85 0
 152 0060 1B4C     		ldr	r4, .L2+32	@ tmp179,
 153 0062 2168     		ldr	r1, [r4]	@ tmp180,
 154 0064 C9B2     		uxtb	r1, r1	@ D.4871, tmp180
 155 0066 1B4D     		ldr	r5, .L2+36	@ tmp181,
 156 0068 281C     		mov	r0, r5	@, tmp181
 157 006a FFF7FEFF 		bl	printf	@
 158              	.LVL1:
  86:../../cpu/arm/mkl25z/./spi.c ****   SPI0_C1 = (SPI_C1_MSTR_MASK | SPI_C1_SSOE_MASK); 							/* Set SPI0_C1: Master Mode */
 159              		.loc 1 86 0
 160 006e 1223     		mov	r3, #18	@ tmp183,
 161 0070 2370     		strb	r3, [r4]	@ tmp183, MEM[(volatile struct SPI_MemMap *)1074225152B].C1
  87:../../cpu/arm/mkl25z/./spi.c ****   printf("\n\rSPI0_C1 = %d...", SPI0_C1);
 162              		.loc 1 87 0
 163 0072 2168     		ldr	r1, [r4]	@ tmp186,
 164 0074 C9B2     		uxtb	r1, r1	@ D.4871, tmp186
 165 0076 281C     		mov	r0, r5	@, tmp181
 166 0078 FFF7FEFF 		bl	printf	@
 167              	.LVL2:
  88:../../cpu/arm/mkl25z/./spi.c ****   SPI0_C2 = SPI_C2_MODFEN_MASK;        									/* Set SPI0_C2: Default state */
 168              		.loc 1 88 0
 169 007c 1023     		mov	r3, #16	@ tmp189,
 170 007e 6370     		strb	r3, [r4, #1]	@ tmp189, MEM[(volatile struct SPI_MemMap *)1074225152B].C2
  89:../../cpu/arm/mkl25z/./spi.c ****   printf("\n\rSPI0_C1 = %d...", SPI0_C1);
 171              		.loc 1 89 0
 172 0080 2168     		ldr	r1, [r4]	@ tmp192,
 173 0082 C9B2     		uxtb	r1, r1	@ D.4871, tmp192
 174 0084 281C     		mov	r0, r5	@, tmp181
 175 0086 FFF7FEFF 		bl	printf	@
 176              	.LVL3:
  90:../../cpu/arm/mkl25z/./spi.c ****   
  91:../../cpu/arm/mkl25z/./spi.c ****   SPI0_BR = SPI_BR_SPPR(0x20);         						/* Set baud rate register */
 177              		.loc 1 91 0
 178 008a 0023     		mov	r3, #0	@ tmp195,
 179 008c A370     		strb	r3, [r4, #2]	@ tmp195, MEM[(volatile struct SPI_MemMap *)1074225152B].BR
  92:../../cpu/arm/mkl25z/./spi.c ****   printf("\n\rSPI0_C1 = %d...", SPI0_C1);
 180              		.loc 1 92 0
 181 008e 2168     		ldr	r1, [r4]	@ tmp198,
 182 0090 C9B2     		uxtb	r1, r1	@ D.4871, tmp198
 183 0092 281C     		mov	r0, r5	@, tmp181
 184 0094 FFF7FEFF 		bl	printf	@
 185              	.LVL4:
  93:../../cpu/arm/mkl25z/./spi.c ****   
  94:../../cpu/arm/mkl25z/./spi.c ****   SPI0_C1 |= SPI_C1_SPE_MASK;          						/* Enable SPI module */
 186              		.loc 1 94 0
 187 0098 2368     		ldr	r3, [r4]	@ tmp201,
 188 009a DBB2     		uxtb	r3, r3	@ D.4871, tmp201
 189 009c 4022     		mov	r2, #64	@ tmp204,
 190 009e 1343     		orr	r3, r2	@ D.4871, tmp204
 191 00a0 2370     		strb	r3, [r4]	@ D.4871, MEM[(volatile struct SPI_MemMap *)1074225152B].C1
ARM GAS  /tmp/ccykBDF0.s 			page 6


  95:../../cpu/arm/mkl25z/./spi.c ****   printf("\n\rSPI0_C1 = %d...", SPI0_C1);
 192              		.loc 1 95 0
 193 00a2 2168     		ldr	r1, [r4]	@ tmp208,
 194 00a4 C9B2     		uxtb	r1, r1	@ D.4871, tmp208
 195 00a6 281C     		mov	r0, r5	@, tmp181
 196 00a8 FFF7FEFF 		bl	printf	@
 197              	.LVL5:
  96:../../cpu/arm/mkl25z/./spi.c **** }
 198              		.loc 1 96 0
 199              		@ sp needed	@
 200 00ac 38BD     		pop	{r3, r4, r5, pc}
 201              	.L3:
 202 00ae C046     		.align	2
 203              	.L2:
 204 00b0 C0F00F40 		.word	1074786496
 205 00b4 00C00440 		.word	1074053120
 206 00b8 FFF8FFFF 		.word	-1793
 207 00bc 00010001 		.word	16777472
 208 00c0 00700440 		.word	1074032640
 209 00c4 34100000 		.word	4148
 210 00c8 00020001 		.word	16777728
 211 00cc 00B00440 		.word	1074049024
 212 00d0 00600740 		.word	1074225152
 213 00d4 00000000 		.word	.LC0
 214              		.cfi_endproc
 215              	.LFE0:
 216              		.size	SPI0_init, .-SPI0_init
 217              		.align	2
 218              		.global	SPI0_csn_low
 219              		.code	16
 220              		.thumb_func
 221              		.type	SPI0_csn_low, %function
 222              	SPI0_csn_low:
 223              	.LFB1:
  97:../../cpu/arm/mkl25z/./spi.c **** 
  98:../../cpu/arm/mkl25z/./spi.c **** 
  99:../../cpu/arm/mkl25z/./spi.c **** /* SPI CSn control */
 100:../../cpu/arm/mkl25z/./spi.c **** void SPI0_csn_low(void)
 101:../../cpu/arm/mkl25z/./spi.c **** {
 224              		.loc 1 101 0
 225              		.cfi_startproc
 102:../../cpu/arm/mkl25z/./spi.c **** 	FGPIOD_PCOR = 0x01;		/* Clear CSn bit. */
 226              		.loc 1 102 0
 227 00d8 0122     		mov	r2, #1	@ tmp111,
 228 00da 014B     		ldr	r3, .L5	@ tmp110,
 229 00dc 9A60     		str	r2, [r3, #8]	@ tmp111, MEM[(volatile struct FGPIO_MemMap *)4161794240B].PCOR
 103:../../cpu/arm/mkl25z/./spi.c **** }
 230              		.loc 1 103 0
 231              		@ sp needed	@
 232 00de 7047     		bx	lr
 233              	.L6:
 234              		.align	2
 235              	.L5:
 236 00e0 C0F00FF8 		.word	-133173056
 237              		.cfi_endproc
 238              	.LFE1:
 239              		.size	SPI0_csn_low, .-SPI0_csn_low
ARM GAS  /tmp/ccykBDF0.s 			page 7


 240              		.align	2
 241              		.global	SPI0_csn_high
 242              		.code	16
 243              		.thumb_func
 244              		.type	SPI0_csn_high, %function
 245              	SPI0_csn_high:
 246              	.LFB2:
 104:../../cpu/arm/mkl25z/./spi.c **** 
 105:../../cpu/arm/mkl25z/./spi.c **** void SPI0_csn_high(void)
 106:../../cpu/arm/mkl25z/./spi.c **** {
 247              		.loc 1 106 0
 248              		.cfi_startproc
 107:../../cpu/arm/mkl25z/./spi.c **** 	FGPIOD_PSOR = 0x01;		/* Set CSn bit. */
 249              		.loc 1 107 0
 250 00e4 0122     		mov	r2, #1	@ tmp111,
 251 00e6 014B     		ldr	r3, .L8	@ tmp110,
 252 00e8 5A60     		str	r2, [r3, #4]	@ tmp111, MEM[(volatile struct FGPIO_MemMap *)4161794240B].PSOR
 108:../../cpu/arm/mkl25z/./spi.c **** }
 253              		.loc 1 108 0
 254              		@ sp needed	@
 255 00ea 7047     		bx	lr
 256              	.L9:
 257              		.align	2
 258              	.L8:
 259 00ec C0F00FF8 		.word	-133173056
 260              		.cfi_endproc
 261              	.LFE2:
 262              		.size	SPI0_csn_high, .-SPI0_csn_high
 263              		.align	2
 264              		.global	SPI_single_tx_rx
 265              		.code	16
 266              		.thumb_func
 267              		.type	SPI_single_tx_rx, %function
 268              	SPI_single_tx_rx:
 269              	.LFB3:
 109:../../cpu/arm/mkl25z/./spi.c **** 
 110:../../cpu/arm/mkl25z/./spi.c **** 
 111:../../cpu/arm/mkl25z/./spi.c **** /* Single SPI Send/Recieve. */
 112:../../cpu/arm/mkl25z/./spi.c **** uint16_t SPI_single_tx_rx(uint8_t in, uint8_t module) {
 270              		.loc 1 112 0
 271              		.cfi_startproc
 272              	.LVL6:
 273 00f0 F0B5     		push	{r4, r5, r6, r7, lr}	@
 274              	.LCFI1:
 275              		.cfi_def_cfa_offset 20
 276              		.cfi_offset 4, -20
 277              		.cfi_offset 5, -16
 278              		.cfi_offset 6, -12
 279              		.cfi_offset 7, -8
 280              		.cfi_offset 14, -4
 281 00f2 4746     		mov	r7, r8	@,
 282 00f4 80B4     		push	{r7}	@
 283              	.LCFI2:
 284              		.cfi_def_cfa_offset 24
 285              		.cfi_offset 8, -24
 286 00f6 8046     		mov	r8, r0	@ in, in
 287              	.LVL7:
ARM GAS  /tmp/ccykBDF0.s 			page 8


 113:../../cpu/arm/mkl25z/./spi.c **** 	
 114:../../cpu/arm/mkl25z/./spi.c **** 	uint8_t i = 1;
 115:../../cpu/arm/mkl25z/./spi.c **** 	uint16_t tmp;
 116:../../cpu/arm/mkl25z/./spi.c **** 	printf("\n\rSPI0_C1 = %d", SPI0_C1);
 288              		.loc 1 116 0
 289 00f8 174B     		ldr	r3, .L15	@ tmp124,
 290 00fa 1968     		ldr	r1, [r3]	@ tmp125,
 291              	.LVL8:
 292 00fc C9B2     		uxtb	r1, r1	@ D.4877, tmp125
 293 00fe 1748     		ldr	r0, .L15+4	@,
 294              	.LVL9:
 295 0100 FFF7FEFF 		bl	printf	@
 296              	.LVL10:
 117:../../cpu/arm/mkl25z/./spi.c **** 
 118:../../cpu/arm/mkl25z/./spi.c **** 	while(i){
 119:../../cpu/arm/mkl25z/./spi.c **** 		tmp = SPI0_S;
 297              		.loc 1 119 0
 298 0104 144F     		ldr	r7, .L15	@ tmp154,
 120:../../cpu/arm/mkl25z/./spi.c **** 		tmp &= SPI_S_SPTEF_MASK;
 299              		.loc 1 120 0
 300 0106 2026     		mov	r6, #32	@ tmp155,
 121:../../cpu/arm/mkl25z/./spi.c **** 		printf("\n\rTX tmp = %d", tmp);
 301              		.loc 1 121 0
 302 0108 154D     		ldr	r5, .L15+8	@ tmp156,
 303              	.L12:
 119:../../cpu/arm/mkl25z/./spi.c **** 		tmp = SPI0_S;
 304              		.loc 1 119 0
 305 010a 3C68     		ldr	r4, [r7]	@ tmp128,
 306 010c 240E     		lsr	r4, r4, #24	@ D.4877, tmp128,
 307              	.LVL11:
 120:../../cpu/arm/mkl25z/./spi.c **** 		tmp &= SPI_S_SPTEF_MASK;
 308              		.loc 1 120 0
 309 010e 3440     		and	r4, r6	@ D.4877, tmp155
 310              	.LVL12:
 311              		.loc 1 121 0
 312 0110 281C     		mov	r0, r5	@, tmp156
 313 0112 211C     		mov	r1, r4	@, D.4877
 314 0114 FFF7FEFF 		bl	printf	@
 315              	.LVL13:
 122:../../cpu/arm/mkl25z/./spi.c **** 		if (tmp == SPI_S_SPTEF_MASK) {
 316              		.loc 1 122 0
 317 0118 202C     		cmp	r4, #32	@ D.4877,
 318 011a F6D1     		bne	.L12	@,
 123:../../cpu/arm/mkl25z/./spi.c **** 			SPI0_D = in;
 319              		.loc 1 123 0
 320 011c 0E4B     		ldr	r3, .L15	@ tmp135,
 321 011e 4246     		mov	r2, r8	@,
 322 0120 5A71     		strb	r2, [r3, #5]	@, MEM[(volatile struct SPI_MemMap *)1074225152B].D
 323              	.LVL14:
 124:../../cpu/arm/mkl25z/./spi.c **** 			i = 0;
 125:../../cpu/arm/mkl25z/./spi.c **** 		}
 126:../../cpu/arm/mkl25z/./spi.c **** 	}
 127:../../cpu/arm/mkl25z/./spi.c **** 	
 128:../../cpu/arm/mkl25z/./spi.c **** 	i = 1;
 129:../../cpu/arm/mkl25z/./spi.c **** 	while(i) {
 130:../../cpu/arm/mkl25z/./spi.c **** 		tmp = SPI0_S;
 324              		.loc 1 130 0
ARM GAS  /tmp/ccykBDF0.s 			page 9


 325 0122 1F1C     		mov	r7, r3	@ tmp151, tmp135
 131:../../cpu/arm/mkl25z/./spi.c **** 		tmp &= SPI_S_SPRF_MASK;
 326              		.loc 1 131 0
 327 0124 7F26     		mov	r6, #127	@ tmp152,
 132:../../cpu/arm/mkl25z/./spi.c **** 		printf("\n\rRX tmp = %d", tmp);
 328              		.loc 1 132 0
 329 0126 0F4D     		ldr	r5, .L15+12	@ tmp153,
 330              	.L14:
 130:../../cpu/arm/mkl25z/./spi.c **** 		tmp = SPI0_S;
 331              		.loc 1 130 0
 332 0128 3C68     		ldr	r4, [r7]	@ tmp138,
 333 012a 240E     		lsr	r4, r4, #24	@ D.4877, tmp138,
 131:../../cpu/arm/mkl25z/./spi.c **** 		tmp &= SPI_S_SPRF_MASK;
 334              		.loc 1 131 0
 335 012c B443     		bic	r4, r6	@ D.4877, tmp152
 336              	.LVL15:
 337              		.loc 1 132 0
 338 012e 281C     		mov	r0, r5	@, tmp153
 339 0130 211C     		mov	r1, r4	@, D.4877
 340 0132 FFF7FEFF 		bl	printf	@
 341              	.LVL16:
 133:../../cpu/arm/mkl25z/./spi.c **** 		if (tmp == SPI_S_SPRF_MASK) {
 342              		.loc 1 133 0
 343 0136 802C     		cmp	r4, #128	@ D.4877,
 344 0138 F6D1     		bne	.L14	@,
 134:../../cpu/arm/mkl25z/./spi.c **** 			printf("\n\rData");
 345              		.loc 1 134 0
 346 013a 0B48     		ldr	r0, .L15+16	@,
 347 013c FFF7FEFF 		bl	printf	@
 348              	.LVL17:
 135:../../cpu/arm/mkl25z/./spi.c **** 			tmp = SPI0_D;
 349              		.loc 1 135 0
 350 0140 054B     		ldr	r3, .L15	@ tmp144,
 351 0142 5C68     		ldr	r4, [r3, #4]	@ tmp145,
 352              	.LVL18:
 353 0144 2404     		lsl	r4, r4, #16	@ tmp147, tmp145,
 354 0146 240E     		lsr	r4, r4, #24	@ D.4877, tmp147,
 136:../../cpu/arm/mkl25z/./spi.c **** 			printf("%d", tmp);
 355              		.loc 1 136 0
 356 0148 0848     		ldr	r0, .L15+20	@,
 357 014a 211C     		mov	r1, r4	@, D.4877
 358 014c FFF7FEFF 		bl	printf	@
 359              	.LVL19:
 137:../../cpu/arm/mkl25z/./spi.c **** 			i = 0;
 138:../../cpu/arm/mkl25z/./spi.c **** 		}
 139:../../cpu/arm/mkl25z/./spi.c **** 	}
 140:../../cpu/arm/mkl25z/./spi.c **** 	
 141:../../cpu/arm/mkl25z/./spi.c **** 	return (tmp);
 142:../../cpu/arm/mkl25z/./spi.c **** }
 360              		.loc 1 142 0
 361 0150 201C     		mov	r0, r4	@, D.4877
 362              		@ sp needed	@
 363 0152 04BC     		pop	{r2}
 364 0154 9046     		mov	r8, r2
 365 0156 F0BD     		pop	{r4, r5, r6, r7, pc}
 366              	.L16:
 367              		.align	2
ARM GAS  /tmp/ccykBDF0.s 			page 10


 368              	.L15:
 369 0158 00600740 		.word	1074225152
 370 015c 14000000 		.word	.LC2
 371 0160 24000000 		.word	.LC4
 372 0164 34000000 		.word	.LC6
 373 0168 44000000 		.word	.LC8
 374 016c 4C000000 		.word	.LC10
 375              		.cfi_endproc
 376              	.LFE3:
 377              		.size	SPI_single_tx_rx, .-SPI_single_tx_rx
 378              		.align	2
 379              		.global	SPI_tx_and_rx
 380              		.code	16
 381              		.thumb_func
 382              		.type	SPI_tx_and_rx, %function
 383              	SPI_tx_and_rx:
 384              	.LFB4:
 143:../../cpu/arm/mkl25z/./spi.c **** 
 144:../../cpu/arm/mkl25z/./spi.c **** /* Send data to SPI Address. */
 145:../../cpu/arm/mkl25z/./spi.c **** uint8_t SPI_tx_and_rx(uint8_t addr, uint8_t value, uint8_t module) {
 385              		.loc 1 145 0
 386              		.cfi_startproc
 387              	.LVL20:
 388 0170 10B5     		push	{r4, lr}	@
 389              	.LCFI3:
 390              		.cfi_def_cfa_offset 8
 391              		.cfi_offset 4, -8
 392              		.cfi_offset 14, -4
 393 0172 0C1C     		mov	r4, r1	@ value, value
 146:../../cpu/arm/mkl25z/./spi.c **** 
 147:../../cpu/arm/mkl25z/./spi.c **** 	uint8_t result;
 148:../../cpu/arm/mkl25z/./spi.c **** 	(void)SPI_single_tx_rx(addr,0); //Throw away the first received byte
 394              		.loc 1 148 0
 395 0174 0021     		mov	r1, #0	@,
 396              	.LVL21:
 397 0176 FFF7FEFF 		bl	SPI_single_tx_rx	@
 398              	.LVL22:
 149:../../cpu/arm/mkl25z/./spi.c **** 	result = SPI_single_tx_rx(value,0);
 399              		.loc 1 149 0
 400 017a 201C     		mov	r0, r4	@, value
 401 017c 0021     		mov	r1, #0	@,
 402 017e FFF7FEFF 		bl	SPI_single_tx_rx	@
 403              	.LVL23:
 150:../../cpu/arm/mkl25z/./spi.c **** 	return result;
 404              		.loc 1 150 0
 405 0182 C0B2     		uxtb	r0, r0	@ result, tmp116
 406              	.LVL24:
 151:../../cpu/arm/mkl25z/./spi.c **** }...
 407              		.loc 1 151 0
 408              		@ sp needed	@
 409 0184 10BD     		pop	{r4, pc}
 410              		.cfi_endproc
 411              	.LFE4:
 412              		.size	SPI_tx_and_rx, .-SPI_tx_and_rx
 413              		.section	.rodata.str1.4,"aMS",%progbits,1
 414              		.align	2
 415              	.LC0:
ARM GAS  /tmp/ccykBDF0.s 			page 11


 416 0000 0A0D5350 		.ascii	"\012\015SPI0_C1 = %d...\000"
 416      49305F43 
 416      31203D20 
 416      25642E2E 
 416      2E00
 417 0012 0000     		.space	2
 418              	.LC2:
 419 0014 0A0D5350 		.ascii	"\012\015SPI0_C1 = %d\000"
 419      49305F43 
 419      31203D20 
 419      256400
 420 0023 00       		.space	1
 421              	.LC4:
 422 0024 0A0D5458 		.ascii	"\012\015TX tmp = %d\000"
 422      20746D70 
 422      203D2025 
 422      6400
 423 0032 0000     		.space	2
 424              	.LC6:
 425 0034 0A0D5258 		.ascii	"\012\015RX tmp = %d\000"
 425      20746D70 
 425      203D2025 
 425      6400
 426 0042 0000     		.space	2
 427              	.LC8:
 428 0044 0A0D4461 		.ascii	"\012\015Data\000"
 428      746100
 429 004b 00       		.space	1
 430              	.LC10:
 431 004c 256400   		.ascii	"%d\000"
 432 004f 00       		.text
 433              	.Letext0:
 434              		.file 2 "/home/glacsweb/arm-gcc/ARM_GCC_Support/ewl/EWL_C/include/cstdint"
 435              		.file 3 "../../cpu/arm/mkl25z/MKL25Z4.h"
 436              		.file 4 "<built-in>"
 437              		.file 5 "../../cpu/arm/mkl25z/./cpu.h"