ARM GAS  /tmp/ccykBDF0.s 			page 1


   1              		.cpu cortex-m0plus
   2              		.fpu softvfp
   3              		.eabi_attribute 20, 1	@ Tag_ABI_FP_denormal
   4              		.eabi_attribute 21, 1	@ Tag_ABI_FP_exceptions
   5              		.eabi_attribute 23, 3	@ Tag_ABI_FP_number_model
   6              		.eabi_attribute 24, 1	@ Tag_ABI_align8_needed
   7              		.eabi_attribute 25, 1	@ Tag_ABI_align8_preserved
   8              		.eabi_attribute 26, 1	@ Tag_ABI_enum_size
   9              		.eabi_attribute 30, 1	@ Tag_ABI_optimization_goals
  10              		.eabi_attribute 34, 0	@ Tag_CPU_unaligned_access
  11              		.eabi_attribute 18, 4	@ Tag_ABI_PCS_wchar_t
  12              		.file	"spi.c"
  13              	@ GNU C (GNU Tools for ARM Embedded Processors) version 4.8.3 20131129 (release) [ARM/embedded-4_8-
  14              	@	compiled by GNU C version 4.6.3, GMP version 4.3.2, MPFR version 2.4.2, MPC version 0.8.1
  15              	@ GGC heuristics: --param ggc-min-expand=100 --param ggc-min-heapsize=131072
  16              	@ options passed:  -I . -I ../../cpu/arm/mkl25z
  17              	@ -I ../../cpu/arm/mkl25z/loader -I ../../cpu/arm/mkl25z/dbg-io
  18              	@ -I ../../dev -I ../../platform/frdm-kl25z-rf
  19              	@ -I /home/glacsweb/arm-gcc/ARM_GCC_Support/ewl/EWL_C/include
  20              	@ -I /home/glacsweb/arm-gcc/ARM_GCC_Support/ewl/EWL_Runtime/include
  21              	@ -I /home/glacsweb/arm-gcc/lib/gcc/arm-none-eabi/4.8.3/include
  22              	@ -I /home/glacsweb/arm-gcc/lib/gcc/arm-none-eabi/4.8.3/include-fixed
  23              	@ -I /home/glacsweb/arm-gcc/arm-none-eabi/include -I ../../dev/cc1120 -I .
  24              	@ -I ../../platform/frdm-kl25z-rf/. -I ../../platform/frdm-kl25z-rf/dev
  25              	@ -I ../../platform/frdm-kl25z-rf/apps -I ../../platform/frdm-kl25z-rf/net
  26              	@ -I ../../platform/frdm-kl25z-rf/../../dev/cc1120
  27              	@ -I ../../platform/frdm-kl25z-rf/../../core/net -I ../../cpu/arm/mkl25z/.
  28              	@ -I ../../cpu/arm/mkl25z/../common/dbg-io -I ../../cpu/arm/mkl25z/loader
  29              	@ -I ../../core/dev -I ../../core/lib -I ../../core/net
  30              	@ -I ../../core/net/mac -I ../../core/net/rime -I ../../core/net/rpl
  31              	@ -I ../../core/sys -I ../../core/cfs -I ../../core/ctk
  32              	@ -I ../../core/lib/ctk -I ../../core/loader -I ../../core/.
  33              	@ -I ../../platform/frdm-kl25z-rf/ -imultilib armv6-m
  34              	@ -iprefix /home/glacsweb/arm-gcc/bin/../lib/gcc/arm-none-eabi/4.8.3/
  35              	@ -isysroot /home/glacsweb/arm-gcc/bin/../arm-none-eabi -D__USES_INITFINI__
  36              	@ -D CONTIKI=1 -D CONTIKI_TARGET_FRDM_KL25Z_RF=1 -D WITH_UIP=1
  37              	@ -D MCK=48000000 -D AUTOSTART_ENABLE -D CC11xx_CC1120=1 -D RUN_AS_SYSTEM
  38              	@ -D ROM_RUN -D __SDCC
  39              	@ -D CONTIKI_VERSION_STRING="Contiki-KL25Z-Port-18-g5a8e189"
  40              	@ ../../cpu/arm/mkl25z/./spi.c -mcpu=cortex-m0plus -mthumb
  41              	@ -auxbase-strip obj_frdm-kl25z-rf/spi.o -gdwarf-2 -g -O -Wall
  42              	@ -Wstrict-prototypes -fomit-frame-pointer -fverbose-asm
  43              	@ options enabled:  -faggressive-loop-optimizations -fauto-inc-dec
  44              	@ -fbranch-count-reg -fcombine-stack-adjustments -fcommon -fcompare-elim
  45              	@ -fcprop-registers -fdefer-pop -fdelete-null-pointer-checks
  46              	@ -fdwarf2-cfi-asm -fearly-inlining -feliminate-unused-debug-types
  47              	@ -fforward-propagate -ffunction-cse -fgcse-lm -fgnu-runtime
  48              	@ -fguess-branch-probability -fident -fif-conversion -fif-conversion2
  49              	@ -finline -finline-atomics -finline-functions-called-once -fipa-profile
  50              	@ -fipa-pure-const -fipa-reference -fira-hoist-pressure
  51              	@ -fira-share-save-slots -fira-share-spill-slots -fivopts
  52              	@ -fkeep-static-consts -fleading-underscore -fmath-errno -fmerge-constants
  53              	@ -fmerge-debug-strings -fmove-loop-invariants -fomit-frame-pointer
  54              	@ -fpeephole -fprefetch-loop-arrays -freg-struct-return
  55              	@ -fsched-critical-path-heuristic -fsched-dep-count-heuristic
  56              	@ -fsched-group-heuristic -fsched-interblock -fsched-last-insn-heuristic
  57              	@ -fsched-pressure -fsched-rank-heuristic -fsched-spec
ARM GAS  /tmp/ccykBDF0.s 			page 2


  58              	@ -fsched-spec-insn-heuristic -fsched-stalled-insns-dep -fsection-anchors
  59              	@ -fshow-column -fshrink-wrap -fsigned-zeros -fsplit-ivs-in-unroller
  60              	@ -fsplit-wide-types -fstrict-volatile-bitfields -fsync-libcalls
  61              	@ -ftoplevel-reorder -ftrapping-math -ftree-bit-ccp -ftree-ccp -ftree-ch
  62              	@ -ftree-coalesce-vars -ftree-copy-prop -ftree-copyrename -ftree-cselim
  63              	@ -ftree-dce -ftree-dominator-opts -ftree-dse -ftree-forwprop -ftree-fre
  64              	@ -ftree-loop-if-convert -ftree-loop-im -ftree-loop-ivcanon
  65              	@ -ftree-loop-optimize -ftree-parallelize-loops= -ftree-phiprop -ftree-pta
  66              	@ -ftree-reassoc -ftree-scev-cprop -ftree-sink -ftree-slp-vectorize
  67              	@ -ftree-slsr -ftree-sra -ftree-ter -ftree-vect-loop-version
  68              	@ -funit-at-a-time -fvar-tracking -fvar-tracking-assignments -fverbose-asm
  69              	@ -fzero-initialized-in-bss -mlittle-endian -mpic-data-is-text-relative
  70              	@ -msched-prolog -mthumb -mvectorize-with-neon-quad
  71              	
  72              		.text
  73              	.Ltext0:
  74              		.cfi_sections	.debug_frame
  75              		.align	2
  76              		.global	SPI0_init
  77              		.code	16
  78              		.thumb_func
  79              		.type	SPI0_init, %function
  80              	SPI0_init:
  81              	.LFB0:
  82              		.file 1 "../../cpu/arm/mkl25z/./spi.c"
   1:../../cpu/arm/mkl25z/./spi.c **** /*-------------------------------------------------------------------------------------------------
   2:../../cpu/arm/mkl25z/./spi.c **** /*	spi.c	
   3:../../cpu/arm/mkl25z/./spi.c ****  *	
   4:../../cpu/arm/mkl25z/./spi.c ****  *	SPI functions for the Freescale FRDM-KL25z Freedom Board
   5:../../cpu/arm/mkl25z/./spi.c ****  *	
   6:../../cpu/arm/mkl25z/./spi.c ****  *	Author: Graeme Bragg
   7:../../cpu/arm/mkl25z/./spi.c ****  * 			ARM-ECS / Pervasive Systems Centre
   8:../../cpu/arm/mkl25z/./spi.c ****  * 			School of Electronics & Computer Science
   9:../../cpu/arm/mkl25z/./spi.c ****  * 			University of Southampton
  10:../../cpu/arm/mkl25z/./spi.c ****  * 
  11:../../cpu/arm/mkl25z/./spi.c ****  * 
  12:../../cpu/arm/mkl25z/./spi.c ****  *	1/5/2014	Rev.01		Includes functions for initialising SPI0 for CC1120,
  13:../../cpu/arm/mkl25z/./spi.c ****  *							controlling CSn and sending data.
  14:../../cpu/arm/mkl25z/./spi.c ****  *
  15:../../cpu/arm/mkl25z/./spi.c ****  *	Page references relate to the KL25 Sub-Family Reference Manual, Document 
  16:../../cpu/arm/mkl25z/./spi.c ****  *	No. KL25P80M48SF0RM, Rev. 3 September 2012. Available on 25/02/2013 from: 
  17:../../cpu/arm/mkl25z/./spi.c ****  *	http://cache.freescale.com/files/32bit/doc/ref_manual/KL25P80M48SF0RM.pdf?fr=gdc
  18:../../cpu/arm/mkl25z/./spi.c ****  *	
  19:../../cpu/arm/mkl25z/./spi.c ****  *	Page references to "M0 Book" refer to "The Definitive Guide to the 
  20:../../cpu/arm/mkl25z/./spi.c ****  *	ARM Cortex-M0" by Joseph Yiu, ISBN 978-0-12-385477-3.
  21:../../cpu/arm/mkl25z/./spi.c ****  *	
  22:../../cpu/arm/mkl25z/./spi.c ****  *
  23:../../cpu/arm/mkl25z/./spi.c ****  * Copyright (c) 2014, University of Southampton, Electronics and Computer Science
  24:../../cpu/arm/mkl25z/./spi.c ****  * All rights reserved.
  25:../../cpu/arm/mkl25z/./spi.c ****  *
  26:../../cpu/arm/mkl25z/./spi.c ****  * Redistribution and use in source and binary forms, with or without
  27:../../cpu/arm/mkl25z/./spi.c ****  * modification, are permitted provided that the following conditions
  28:../../cpu/arm/mkl25z/./spi.c ****  * are met:
  29:../../cpu/arm/mkl25z/./spi.c ****  * 1. Redistributions of source code must retain the above copyright
  30:../../cpu/arm/mkl25z/./spi.c ****  * notice, this list of conditions and the following disclaimer.
  31:../../cpu/arm/mkl25z/./spi.c ****  * 2. Redistributions in binary form must reproduce the above copyright
  32:../../cpu/arm/mkl25z/./spi.c ****  * notice, this list of conditions and the following disclaimer in the
ARM GAS  /tmp/ccykBDF0.s 			page 3


  33:../../cpu/arm/mkl25z/./spi.c ****  * documentation and/or other materials provided with the distribution.
  34:../../cpu/arm/mkl25z/./spi.c ****  * 3. Neither the name of the Institute nor the names of its contributors
  35:../../cpu/arm/mkl25z/./spi.c ****  * may be used to endorse or promote products derived from this software
  36:../../cpu/arm/mkl25z/./spi.c ****  * without specific prior written permission.
  37:../../cpu/arm/mkl25z/./spi.c ****  *
  38:../../cpu/arm/mkl25z/./spi.c ****  * THIS SOFTWARE IS PROVIDED BY THE INSTITUTE AND CONTRIBUTORS ``AS IS'' AND
  39:../../cpu/arm/mkl25z/./spi.c ****  * ANY EXPRESS OR IMPLIED WARRANTIES, INCLUDING, BUT NOT LIMITED TO, THE
  40:../../cpu/arm/mkl25z/./spi.c ****  * IMPLIED WARRANTIES OF MERCHANTABILITY AND FITNESS FOR A PARTICULAR PURPOSE
  41:../../cpu/arm/mkl25z/./spi.c ****  * ARE DISCLAIMED. IN NO EVENT SHALL THE INSTITUTE OR CONTRIBUTORS BE LIABLE
  42:../../cpu/arm/mkl25z/./spi.c ****  * FOR ANY DIRECT, INDIRECT, INCIDENTAL, SPECIAL, EXEMPLARY, OR CONSEQUENTIAL
  43:../../cpu/arm/mkl25z/./spi.c ****  * DAMAGES (INCLUDING, BUT NOT LIMITED TO, PROCUREMENT OF SUBSTITUTE GOODS
  44:../../cpu/arm/mkl25z/./spi.c ****  * OR SERVICES; LOSS OF USE, DATA, OR PROFITS; OR BUSINESS INTERRUPTION)
  45:../../cpu/arm/mkl25z/./spi.c ****  * HOWEVER CAUSED AND ON ANY THEORY OF LIABILITY, WHETHER IN CONTRACT, STRICT
  46:../../cpu/arm/mkl25z/./spi.c ****  * LIABILITY, OR TORT (INCLUDING NEGLIGENCE OR OTHERWISE) ARISING IN ANY WAY
  47:../../cpu/arm/mkl25z/./spi.c ****  * OUT OF THE USE OF THIS SOFTWARE, EVEN IF ADVISED OF THE POSSIBILITY OF
  48:../../cpu/arm/mkl25z/./spi.c ****  * SUCH DAMAGE.
  49:../../cpu/arm/mkl25z/./spi.c ****  *
  50:../../cpu/arm/mkl25z/./spi.c ****  */				
  51:../../cpu/arm/mkl25z/./spi.c **** /*-------------------------------------------------------------------------------------------------
  52:../../cpu/arm/mkl25z/./spi.c **** 
  53:../../cpu/arm/mkl25z/./spi.c **** #include <MKL25Z4.h>                   /* I/O map for MKL25Z128VLK4 */
  54:../../cpu/arm/mkl25z/./spi.c **** #include "cpu.h"
  55:../../cpu/arm/mkl25z/./spi.c **** 
  56:../../cpu/arm/mkl25z/./spi.c **** #include "spi.h"
  57:../../cpu/arm/mkl25z/./spi.c **** 
  58:../../cpu/arm/mkl25z/./spi.c **** #include <stdlib.h>
  59:../../cpu/arm/mkl25z/./spi.c **** 
  60:../../cpu/arm/mkl25z/./spi.c **** void SPI0_init(void)
  61:../../cpu/arm/mkl25z/./spi.c **** {
  83              		.loc 1 61 0
  84              		.cfi_startproc
  85 0000 38B5     		push	{r3, r4, r5, lr}	@
  86              	.LCFI0:
  87              		.cfi_def_cfa_offset 16
  88              		.cfi_offset 3, -16
  89              		.cfi_offset 4, -12
  90              		.cfi_offset 5, -8
  91              		.cfi_offset 14, -4
  62:../../cpu/arm/mkl25z/./spi.c ****   port_enable(PORTD_EN_MASK | PORTC_EN_MASK); 				/* Make sure that clocks are enable to Port D and
  92              		.loc 1 62 0
  93 0002 0620     		mov	r0, #6	@,
  94 0004 FFF7FEFF 		bl	port_enable	@
  95              	.LVL0:
  63:../../cpu/arm/mkl25z/./spi.c ****   
  64:../../cpu/arm/mkl25z/./spi.c ****   
  65:../../cpu/arm/mkl25z/./spi.c ****   /* Configure CSn pin on Port D, Pin 0 */
  66:../../cpu/arm/mkl25z/./spi.c ****   GPIOD_PDDR |= GPIO_PDDR_PDD(0x01); 						/* Set pin as Output. */                                
  96              		.loc 1 66 0
  97 0008 294B     		ldr	r3, .L2	@ tmp144,
  98 000a 5969     		ldr	r1, [r3, #20]	@ D.4870, MEM[(volatile struct GPIO_MemMap *)1074786496B].PDDR
  99 000c 0122     		mov	r2, #1	@ tmp145,
 100 000e 1143     		orr	r1, r2	@ D.4870, tmp145
 101 0010 5961     		str	r1, [r3, #20]	@ D.4870, MEM[(volatile struct GPIO_MemMap *)1074786496B].PDDR
  67:../../cpu/arm/mkl25z/./spi.c ****   GPIOD_PDOR |= GPIO_PDOR_PDO(0x01);    					/* Set initialisation value on 1 */                   
 102              		.loc 1 67 0
 103 0012 1968     		ldr	r1, [r3]	@ D.4870, MEM[(volatile struct GPIO_MemMap *)1074786496B].PDOR
 104 0014 0A43     		orr	r2, r1	@ D.4870, D.4870
ARM GAS  /tmp/ccykBDF0.s 			page 4


 105 0016 1A60     		str	r2, [r3]	@ D.4870, MEM[(volatile struct GPIO_MemMap *)1074786496B].PDOR
  68:../../cpu/arm/mkl25z/./spi.c **** 
  69:../../cpu/arm/mkl25z/./spi.c ****   PORTD_PCR0 &= ~PORT_PCR_MUX_MASK;							/* Clear PCR Multiplex. */
 106              		.loc 1 69 0
 107 0018 264B     		ldr	r3, .L2+4	@ tmp150,
 108 001a 1968     		ldr	r1, [r3]	@ D.4870, MEM[(volatile struct PORT_MemMap *)1074053120B].PCR
 109 001c 264A     		ldr	r2, .L2+8	@ tmp151,
 110 001e 1140     		and	r1, r2	@ D.4870, tmp151
 111 0020 1960     		str	r1, [r3]	@ D.4870, MEM[(volatile struct PORT_MemMap *)1074053120B].PCR
  70:../../cpu/arm/mkl25z/./spi.c ****   PORTD_PCR0 |= PORT_PCR_ISF_MASK | PORT_PCR_MUX(0x01);		/* Clear ISF & set MUX to be basic pin. */
 112              		.loc 1 70 0
 113 0022 1968     		ldr	r1, [r3]	@ D.4870, MEM[(volatile struct PORT_MemMap *)1074053120B].PCR
 114 0024 2548     		ldr	r0, .L2+12	@ tmp154,
 115 0026 0143     		orr	r1, r0	@ D.4870, tmp154
 116 0028 1960     		str	r1, [r3]	@ D.4870, MEM[(volatile struct PORT_MemMap *)1074053120B].PCR
  71:../../cpu/arm/mkl25z/./spi.c ****   
  72:../../cpu/arm/mkl25z/./spi.c ****   
  73:../../cpu/arm/mkl25z/./spi.c ****   /* Configure SPI0. */
  74:../../cpu/arm/mkl25z/./spi.c ****   SIM_SCGC4 |= SIM_SCGC4_SPI0_MASK;      					/* Enable clock to SPI Module */
 117              		.loc 1 74 0
 118 002a 2548     		ldr	r0, .L2+16	@ tmp156,
 119 002c 2549     		ldr	r1, .L2+20	@ tmp157,
 120 002e 4558     		ldr	r5, [r0, r1]	@ D.4870, MEM[(volatile struct SIM_MemMap *)1074032640B].SCGC4
 121 0030 8024     		mov	r4, #128	@ tmp210,
 122 0032 E403     		lsl	r4, r4, #15	@ tmp158, tmp210,
 123 0034 2C43     		orr	r4, r5	@ D.4870, D.4870
 124 0036 4450     		str	r4, [r0, r1]	@ D.4870, MEM[(volatile struct SIM_MemMap *)1074032640B].SCGC4
  75:../../cpu/arm/mkl25z/./spi.c ****   
  76:../../cpu/arm/mkl25z/./spi.c ****   PORTD_PCR3 &= ~PORT_PCR_MUX_MASK; 						/* Clear Port D, Pin 3 Mux. */
 125              		.loc 1 76 0
 126 0038 D968     		ldr	r1, [r3, #12]	@ D.4870, MEM[(volatile struct PORT_MemMap *)1074053120B].PCR
 127 003a 1140     		and	r1, r2	@ D.4870, tmp151
 128 003c D960     		str	r1, [r3, #12]	@ D.4870, MEM[(volatile struct PORT_MemMap *)1074053120B].PCR
  77:../../cpu/arm/mkl25z/./spi.c ****   PORTD_PCR3 |= PORT_PCR_ISF_MASK | PORT_PCR_MUX(0x02);     /* Clear ISF & Set Port D, Pin 3 as MIS
 129              		.loc 1 77 0
 130 003e D868     		ldr	r0, [r3, #12]	@ D.4870, MEM[(volatile struct PORT_MemMap *)1074053120B].PCR
 131 0040 2149     		ldr	r1, .L2+24	@ tmp165,
 132 0042 0843     		orr	r0, r1	@ D.4870, tmp165
 133 0044 D860     		str	r0, [r3, #12]	@ D.4870, MEM[(volatile struct PORT_MemMap *)1074053120B].PCR
  78:../../cpu/arm/mkl25z/./spi.c ****   
  79:../../cpu/arm/mkl25z/./spi.c ****   PORTD_PCR2 &= ~PORT_PCR_MUX_MASK;							/* Clear Port D, Pin 2 Mux. */
 134              		.loc 1 79 0
 135 0046 9868     		ldr	r0, [r3, #8]	@ D.4870, MEM[(volatile struct PORT_MemMap *)1074053120B].PCR
 136 0048 1040     		and	r0, r2	@ D.4870, tmp151
 137 004a 9860     		str	r0, [r3, #8]	@ D.4870, MEM[(volatile struct PORT_MemMap *)1074053120B].PCR
  80:../../cpu/arm/mkl25z/./spi.c ****   PORTD_PCR2 |= PORT_PCR_ISF_MASK | PORT_PCR_MUX(0x02);     /* Clear ISF & Set Port D, Pin 2 as MOS
 138              		.loc 1 80 0
 139 004c 9868     		ldr	r0, [r3, #8]	@ D.4870, MEM[(volatile struct PORT_MemMap *)1074053120B].PCR
 140 004e 0843     		orr	r0, r1	@ D.4870, tmp165
 141 0050 9860     		str	r0, [r3, #8]	@ D.4870, MEM[(volatile struct PORT_MemMap *)1074053120B].PCR
  81:../../cpu/arm/mkl25z/./spi.c ****   
  82:../../cpu/arm/mkl25z/./spi.c ****   PORTC_PCR5 &= ~PORT_PCR_MUX_MASK;							/* Clear Port C, Pin 5 Mux. */
 142              		.loc 1 82 0
 143 0052 1E4B     		ldr	r3, .L2+28	@ tmp173,
 144 0054 5869     		ldr	r0, [r3, #20]	@ D.4870, MEM[(volatile struct PORT_MemMap *)1074049024B].PCR
 145 0056 0240     		and	r2, r0	@ D.4870, D.4870
 146 0058 5A61     		str	r2, [r3, #20]	@ D.4870, MEM[(volatile struct PORT_MemMap *)1074049024B].PCR
ARM GAS  /tmp/ccykBDF0.s 			page 5


  83:../../cpu/arm/mkl25z/./spi.c ****   PORTC_PCR5 |= PORT_PCR_ISF_MASK | PORT_PCR_MUX(0x02); 	/* Clear ISF & Set Port C, Pin 5 as Clock.
 147              		.loc 1 83 0
 148 005a 5A69     		ldr	r2, [r3, #20]	@ D.4870, MEM[(volatile struct PORT_MemMap *)1074049024B].PCR
 149 005c 1143     		orr	r1, r2	@ D.4870, D.4870
 150 005e 5961     		str	r1, [r3, #20]	@ D.4870, MEM[(volatile struct PORT_MemMap *)1074049024B].PCR
  84:../../cpu/arm/mkl25z/./spi.c ****   
  85:../../cpu/arm/mkl25z/./spi.c ****   printf("\n\rSPI0_C1 = %d...", SPI0_C1);
 151              		.loc 1 85 0
 152 0060 1B4C     		ldr	r4, .L2+32	@ tmp179,
 153 0062 2168     		ldr	r1, [r4]	@ tmp180,
 154 0064 C9B2     		uxtb	r1, r1	@ D.4871, tmp180
 155 0066 1B4D     		ldr	r5, .L2+36	@ tmp181,
 156 0068 281C     		mov	r0, r5	@, tmp181
 157 006a FFF7FEFF 		bl	printf	@
 158              	.LVL1:
  86:../../cpu/arm/mkl25z/./spi.c ****   SPI0_C1 = (SPI_C1_MSTR_MASK | SPI_C1_SSOE_MASK); 							/* Set SPI0_C1: Master Mode */
 159              		.loc 1 86 0
 160 006e 1223     		mov	r3, #18	@ tmp183,
 161 0070 2370     		strb	r3, [r4]	@ tmp183, MEM[(volatile struct SPI_MemMap *)1074225152B].C1
  87:../../cpu/arm/mkl25z/./spi.c ****   printf("\n\rSPI0_C1 = %d...", SPI0_C1);
 162              		.loc 1 87 0
 163 0072 2168     		ldr	r1, [r4]	@ tmp186,
 164 0074 C9B2     		uxtb	r1, r1	@ D.4871, tmp186
 165 0076 281C     		mov	r0, r5	@, tmp181
 166 0078 FFF7FEFF 		bl	printf	@
 167              	.LVL2:
  88:../../cpu/arm/mkl25z/./spi.c ****   SPI0_C2 = SPI_C2_MODFEN_MASK;        									/* Set SPI0_C2: Default state */
 168              		.loc 1 88 0
 169 007c 1023     		mov	r3, #16	@ tmp189,
 170 007e 6370     		strb	r3, [r4, #1]	@ tmp189, MEM[(volatile struct SPI_MemMap *)1074225152B].C2
  89:../../cpu/arm/mkl25z/./spi.c ****   printf("\n\rSPI0_C1 = %d...", SPI0_C1);
 171              		.loc 1 89 0
 172 0080 2168     		ldr	r1, [r4]	@ tmp192,
 173 0082 C9B2     		uxtb	r1, r1	@ D.4871, tmp192
 174 0084 281C     		mov	r0, r5	@, tmp181
 175 0086 FFF7FEFF 		bl	printf	@
 176              	.LVL3:
  90:../../cpu/arm/mkl25z/./spi.c ****   
  91:../../cpu/arm/mkl25z/./spi.c ****   SPI0_BR = SPI_BR_SPPR(0x20);         						/* Set baud rate register */
 177              		.loc 1 91 0
 178 008a 0023     		mov	r3, #0	@ tmp195,
 179 008c A370     		strb	r3, [r4, #2]	@ tmp195, MEM[(volatile struct SPI_MemMap *)1074225152B].BR
  92:../../cpu/arm/mkl25z/./spi.c ****   printf("\n\rSPI0_C1 = %d...", SPI0_C1);
 180              		.loc 1 92 0
 181 008e 2168     		ldr	r1, [r4]	@ tmp198,
 182 0090 C9B2     		uxtb	r1, r1	@ D.4871, tmp198
 183 0092 281C     		mov	r0, r5	@, tmp181
 184 0094 FFF7FEFF 		bl	printf	@
 185              	.LVL4:
  93:../../cpu/arm/mkl25z/./spi.c ****   
  94:../../cpu/arm/mkl25z/./spi.c ****   SPI0_C1 |= SPI_C1_SPE_MASK;          						/* Enable SPI module */
 186              		.loc 1 94 0
 187 0098 2368     		ldr	r3, [r4]	@ tmp201,
 188 009a DBB2     		uxtb	r3, r3	@ D.4871, tmp201
 189 009c 4022     		mov	r2, #64	@ tmp204,
 190 009e 1343     		orr	r3, r2	@ D.4871, tmp204
 191 00a0 2370     		strb	r3, [r4]	@ D.4871, MEM[(volatile struct SPI_MemMap *)1074225152B].C1
ARM GAS  /tmp/ccykBDF0.s 			page 6


  95:../../cpu/arm/mkl25z/./spi.c ****   printf("\n\rSPI0_C1 = %d...", SPI0_C1);
 192              		.loc 1 95 0
 193 00a2 2168     		ldr	r1, [r4]	@ tmp208,
 194 00a4 C9B2     		uxtb	r1, r1	@ D.4871, tmp208
 195 00a6 281C     		mov	r0, r5	@, tmp181
 196 00a8 FFF7FEFF 		bl	printf	@
 197              	.LVL5:
  96:../../cpu/arm/mkl25z/./spi.c **** }
 198              		.loc 1 96 0
 199              		@ sp needed	@
 200 00ac 38BD     		pop	{r3, r4, r5, pc}
 201              	.L3:
 202 00ae C046     		.align	2
 203              	.L2:
 204 00b0 C0F00F40 		.word	1074786496
 205 00b4 00C00440 		.word	1074053120
 206 00b8 FFF8FFFF 		.word	-1793
 207 00bc 00010001 		.word	16777472
 208 00c0 00700440 		.word	1074032640
 209 00c4 34100000 		.word	4148
 210 00c8 00020001 		.word	16777728
 211 00cc 00B00440 		.word	1074049024
 212 00d0 00600740 		.word	1074225152
 213 00d4 00000000 		.word	.LC0
 214              		.cfi_endproc
 215              	.LFE0:
 216              		.size	SPI0_init, .-SPI0_init
 217              		.align	2
 218              		.global	SPI0_csn_low
 219              		.code	16
 220              		.thumb_func
 221              		.type	SPI0_csn_low, %function
 222              	SPI0_csn_low:
 223              	.LFB1:
  97:../../cpu/arm/mkl25z/./spi.c **** 
  98:../../cpu/arm/mkl25z/./spi.c **** 
  99:../../cpu/arm/mkl25z/./spi.c **** /* SPI CSn control */
 100:../../cpu/arm/mkl25z/./spi.c **** void SPI0_csn_low(void)
 101:../../cpu/arm/mkl25z/./spi.c **** {
 224              		.loc 1 101 0
 225              		.cfi_startproc
 102:../../cpu/arm/mkl25z/./spi.c **** 	FGPIOD_PCOR = 0x01;		/* Clear CSn bit. */
 226              		.loc 1 102 0
 227 00d8 0122     		mov	r2, #1	@ tmp111,
 228 00da 014B     		ldr	r3, .L5	@ tmp110,
 229 00dc 9A60     		str	r2, [r3, #8]	@ tmp111, MEM[(volatile struct FGPIO_MemMap *)4161794240B].PCOR
 103:../../cpu/arm/mkl25z/./spi.c **** }
 230              		.loc 1 103 0
 231              		@ sp needed	@
 232 00de 7047     		bx	lr
 233              	.L6:
 234              		.align	2
 235              	.L5:
 236 00e0 C0F00FF8 		.word	-133173056
 237              		.cfi_endproc
 238              	.LFE1:
 239              		.size	SPI0_csn_low, .-SPI0_csn_low
ARM GAS  /tmp/ccykBDF0.s 			page 7


 240              		.align	2
 241              		.global	SPI0_csn_high
 242              		.code	16
 243              		.thumb_func
 244              		.type	SPI0_csn_high, %function
 245              	SPI0_csn_high:
 246              	.LFB2:
 104:../../cpu/arm/mkl25z/./spi.c **** 
 105:../../cpu/arm/mkl25z/./spi.c **** void SPI0_csn_high(void)
 106:../../cpu/arm/mkl25z/./spi.c **** {
 247              		.loc 1 106 0
 248              		.cfi_startproc
 107:../../cpu/arm/mkl25z/./spi.c **** 	FGPIOD_PSOR = 0x01;		/* Set CSn bit. */
 249              		.loc 1 107 0
 250 00e4 0122     		mov	r2, #1	@ tmp111,
 251 00e6 014B     		ldr	r3, .L8	@ tmp110,
 252 00e8 5A60     		str	r2, [r3, #4]	@ tmp111, MEM[(volatile struct FGPIO_MemMap *)4161794240B].PSOR
 108:../../cpu/arm/mkl25z/./spi.c **** }
 253              		.loc 1 108 0
 254              		@ sp needed	@
 255 00ea 7047     		bx	lr
 256              	.L9:
 257              		.align	2
 258              	.L8:
 259 00ec C0F00FF8 		.word	-133173056
 260              		.cfi_endproc
 261              	.LFE2:
 262              		.size	SPI0_csn_high, .-SPI0_csn_high
 263              		.align	2
 264              		.global	SPI_single_tx_rx
 265              		.code	16
 266              		.thumb_func
 267              		.type	SPI_single_tx_rx, %function
 268              	SPI_single_tx_rx:
 269              	.LFB3:
 109:../../cpu/arm/mkl25z/./spi.c **** 
 110:../../cpu/arm/mkl25z/./spi.c **** 
 111:../../cpu/arm/mkl25z/./spi.c **** /* Single SPI Send/Recieve. */
 112:../../cpu/arm/mkl25z/./spi.c **** uint16_t SPI_single_tx_rx(uint8_t in, uint8_t module) {
 270              		.loc 1 112 0
 271              		.cfi_startproc
 272              	.LVL6:
 273 00f0 F0B5     		push	{r4, r5, r6, r7, lr}	@
 274              	.LCFI1:
 275              		.cfi_def_cfa_offset 20
 276              		.cfi_offset 4, -20
 277              		.cfi_offset 5, -16
 278              		.cfi_offset 6, -12
 279              		.cfi_offset 7, -8
 280              		.cfi_offset 14, -4
 281 00f2 4746     		mov	r7, r8	@,
 282 00f4 80B4     		push	{r7}	@
 283              	.LCFI2:
 284              		.cfi_def_cfa_offset 24
 285              		.cfi_offset 8, -24
 286 00f6 8046     		mov	r8, r0	@ in, in
 287              	.LVL7:
ARM GAS  /tmp/ccykBDF0.s 			page 8


 113:../../cpu/arm/mkl25z/./spi.c **** 	
 114:../../cpu/arm/mkl25z/./spi.c **** 	uint8_t i = 1;
 115:../../cpu/arm/mkl25z/./spi.c **** 	uint16_t tmp;
 116:../../cpu/arm/mkl25z/./spi.c **** 	printf("\n\rSPI0_C1 = %d", SPI0_C1);
 288              		.loc 1 116 0
 289 00f8 174B     		ldr	r3, .L15	@ tmp124,
 290 00fa 1968     		ldr	r1, [r3]	@ tmp125,
 291              	.LVL8:
 292 00fc C9B2     		uxtb	r1, r1	@ D.4877, tmp125
 293 00fe 1748     		ldr	r0, .L15+4	@,
 294              	.LVL9:
 295 0100 FFF7FEFF 		bl	printf	@
 296              	.LVL10:
 117:../../cpu/arm/mkl25z/./spi.c **** 
 118:../../cpu/arm/mkl25z/./spi.c **** 	while(i){
 119:../../cpu/arm/mkl25z/./spi.c **** 		tmp = SPI0_S;
 297              		.loc 1 119 0
 298 0104 144F     		ldr	r7, .L15	@ tmp154,
 120:../../cpu/arm/mkl25z/./spi.c **** 		tmp &= SPI_S_SPTEF_MASK;
 299              		.loc 1 120 0
 300 0106 2026     		mov	r6, #32	@ tmp155,
 121:../../cpu/arm/mkl25z/./spi.c **** 		printf("\n\rTX tmp = %d", tmp);
 301              		.loc 1 121 0
 302 0108 154D     		ldr	r5, .L15+8	@ tmp156,
 303              	.L12:
 119:../../cpu/arm/mkl25z/./spi.c **** 		tmp = SPI0_S;
 304              		.loc 1 119 0
 305 010a 3C68     		ldr	r4, [r7]	@ tmp128,
 306 010c 240E     		lsr	r4, r4, #24	@ D.4877, tmp128,
 307              	.LVL11:
 120:../../cpu/arm/mkl25z/./spi.c **** 		tmp &= SPI_S_SPTEF_MASK;
 308              		.loc 1 120 0
 309 010e 3440     		and	r4, r6	@ D.4877, tmp155
 310              	.LVL12:
 311              		.loc 1 121 0
 312 0110 281C     		mov	r0, r5	@, tmp156
 313 0112 211C     		mov	r1, r4	@, D.4877
 314 0114 FFF7FEFF 		bl	printf	@
 315              	.LVL13:
 122:../../cpu/arm/mkl25z/./spi.c **** 		if (tmp == SPI_S_SPTEF_MASK) {
 316              		.loc 1 122 0
 317 0118 202C     		cmp	r4, #32	@ D.4877,
 318 011a F6D1     		bne	.L12	@,
 123:../../cpu/arm/mkl25z/./spi.c **** 			SPI0_D = in;
 319              		.loc 1 123 0
 320 011c 0E4B     		ldr	r3, .L15	@ tmp135,
 321 011e 4246     		mov	r2, r8	@,
 322 0120 5A71     		strb	r2, [r3, #5]	@, MEM[(volatile struct SPI_MemMap *)1074225152B].D
 323              	.LVL14:
 124:../../cpu/arm/mkl25z/./spi.c **** 			i = 0;
 125:../../cpu/arm/mkl25z/./spi.c **** 		}
 126:../../cpu/arm/mkl25z/./spi.c **** 	}
 127:../../cpu/arm/mkl25z/./spi.c **** 	
 128:../../cpu/arm/mkl25z/./spi.c **** 	i = 1;
 129:../../cpu/arm/mkl25z/./spi.c **** 	while(i) {
 130:../../cpu/arm/mkl25z/./spi.c **** 		tmp = SPI0_S;
 324              		.loc 1 130 0
ARM GAS  /tmp/ccykBDF0.s 			page 9


 325 0122 1F1C     		mov	r7, r3	@ tmp151, tmp135
 131:../../cpu/arm/mkl25z/./spi.c **** 		tmp &= SPI_S_SPRF_MASK;
 326              		.loc 1 131 0
 327 0124 7F26     		mov	r6, #127	@ tmp152,
 132:../../cpu/arm/mkl25z/./spi.c **** 		printf("\n\rRX tmp = %d", tmp);
 328              		.loc 1 132 0
 329 0126 0F4D     		ldr	r5, .L15+12	@ tmp153,
 330              	.L14:
 130:../../cpu/arm/mkl25z/./spi.c **** 		tmp = SPI0_S;
 331              		.loc 1 130 0
 332 0128 3C68     		ldr	r4, [r7]	@ tmp138,
 333 012a 240E     		lsr	r4, r4, #24	@ D.4877, tmp138,
 131:../../cpu/arm/mkl25z/./spi.c **** 		tmp &= SPI_S_SPRF_MASK;
 334              		.loc 1 131 0
 335 012c B443     		bic	r4, r6	@ D.4877, tmp152
 336              	.LVL15:
 337              		.loc 1 132 0
 338 012e 281C     		mov	r0, r5	@, tmp153
 339 0130 211C     		mov	r1, r4	@, D.4877
 340 0132 FFF7FEFF 		bl	printf	@
 341              	.LVL16:
 133:../../cpu/arm/mkl25z/./spi.c **** 		if (tmp == SPI_S_SPRF_MASK) {
 342              		.loc 1 133 0
 343 0136 802C     		cmp	r4, #128	@ D.4877,
 344 0138 F6D1     		bne	.L14	@,
 134:../../cpu/arm/mkl25z/./spi.c **** 			printf("\n\rData");
 345              		.loc 1 134 0
 346 013a 0B48     		ldr	r0, .L15+16	@,
 347 013c FFF7FEFF 		bl	printf	@
 348              	.LVL17:
 135:../../cpu/arm/mkl25z/./spi.c **** 			tmp = SPI0_D;
 349              		.loc 1 135 0
 350 0140 054B     		ldr	r3, .L15	@ tmp144,
 351 0142 5C68     		ldr	r4, [r3, #4]	@ tmp145,
 352              	.LVL18:
 353 0144 2404     		lsl	r4, r4, #16	@ tmp147, tmp145,
 354 0146 240E     		lsr	r4, r4, #24	@ D.4877, tmp147,
 136:../../cpu/arm/mkl25z/./spi.c **** 			printf("%d", tmp);
 355              		.loc 1 136 0
 356 0148 0848     		ldr	r0, .L15+20	@,
 357 014a 211C     		mov	r1, r4	@, D.4877
 358 014c FFF7FEFF 		bl	printf	@
 359              	.LVL19:
 137:../../cpu/arm/mkl25z/./spi.c **** 			i = 0;
 138:../../cpu/arm/mkl25z/./spi.c **** 		}
 139:../../cpu/arm/mkl25z/./spi.c **** 	}
 140:../../cpu/arm/mkl25z/./spi.c **** 	
 141:../../cpu/arm/mkl25z/./spi.c **** 	return (tmp);
 142:../../cpu/arm/mkl25z/./spi.c **** }
 360              		.loc 1 142 0
 361 0150 201C     		mov	r0, r4	@, D.4877
 362              		@ sp needed	@
 363 0152 04BC     		pop	{r2}
 364 0154 9046     		mov	r8, r2
 365 0156 F0BD     		pop	{r4, r5, r6, r7, pc}
 366              	.L16:
 367              		.align	2
ARM GAS  /tmp/ccykBDF0.s 			page 10


 368              	.L15:
 369 0158 00600740 		.word	1074225152
 370 015c 14000000 		.word	.LC2
 371 0160 24000000 		.word	.LC4
 372 0164 34000000 		.word	.LC6
 373 0168 44000000 		.word	.LC8
 374 016c 4C000000 		.word	.LC10
 375              		.cfi_endproc
 376              	.LFE3:
 377              		.size	SPI_single_tx_rx, .-SPI_single_tx_rx
 378              		.align	2
 379              		.global	SPI_tx_and_rx
 380              		.code	16
 381              		.thumb_func
 382              		.type	SPI_tx_and_rx, %function
 383              	SPI_tx_and_rx:
 384              	.LFB4:
 143:../../cpu/arm/mkl25z/./spi.c **** 
 144:../../cpu/arm/mkl25z/./spi.c **** /* Send data to SPI Address. */
 145:../../cpu/arm/mkl25z/./spi.c **** uint8_t SPI_tx_and_rx(uint8_t addr, uint8_t value, uint8_t module) {
 385              		.loc 1 145 0
 386              		.cfi_startproc
 387              	.LVL20:
 388 0170 10B5     		push	{r4, lr}	@
 389              	.LCFI3:
 390              		.cfi_def_cfa_offset 8
 391              		.cfi_offset 4, -8
 392              		.cfi_offset 14, -4
 393 0172 0C1C     		mov	r4, r1	@ value, value
 146:../../cpu/arm/mkl25z/./spi.c **** 
 147:../../cpu/arm/mkl25z/./spi.c **** 	uint8_t result;
 148:../../cpu/arm/mkl25z/./spi.c **** 	(void)SPI_single_tx_rx(addr,0); //Throw away the first received byte
 394              		.loc 1 148 0
 395 0174 0021     		mov	r1, #0	@,
 396              	.LVL21:
 397 0176 FFF7FEFF 		bl	SPI_single_tx_rx	@
 398              	.LVL22:
 149:../../cpu/arm/mkl25z/./spi.c **** 	result = SPI_single_tx_rx(value,0);
 399              		.loc 1 149 0
 400 017a 201C     		mov	r0, r4	@, value
 401 017c 0021     		mov	r1, #0	@,
 402 017e FFF7FEFF 		bl	SPI_single_tx_rx	@
 403              	.LVL23:
 150:../../cpu/arm/mkl25z/./spi.c **** 	return result;
 404              		.loc 1 150 0
 405 0182 C0B2     		uxtb	r0, r0	@ result, tmp116
 406              	.LVL24:
 151:../../cpu/arm/mkl25z/./spi.c **** }...
 407              		.loc 1 151 0
 408              		@ sp needed	@
 409 0184 10BD     		pop	{r4, pc}
 410              		.cfi_endproc
 411              	.LFE4:
 412              		.size	SPI_tx_and_rx, .-SPI_tx_and_rx
 413              		.section	.rodata.str1.4,"aMS",%progbits,1
 414              		.align	2
 415              	.LC0:
ARM GAS  /tmp/ccykBDF0.s 			page 11


 416 0000 0A0D5350 		.ascii	"\012\015SPI0_C1 = %d...\000"
 416      49305F43 
 416      31203D20 
 416      25642E2E 
 416      2E00
 417 0012 0000     		.space	2
 418              	.LC2:
 419 0014 0A0D5350 		.ascii	"\012\015SPI0_C1 = %d\000"
 419      49305F43 
 419      31203D20 
 419      256400
 420 0023 00       		.space	1
 421              	.LC4:
 422 0024 0A0D5458 		.ascii	"\012\015TX tmp = %d\000"
 422      20746D70 
 422      203D2025 
 422      6400
 423 0032 0000     		.space	2
 424              	.LC6:
 425 0034 0A0D5258 		.ascii	"\012\015RX tmp = %d\000"
 425      20746D70 
 425      203D2025 
 425      6400
 426 0042 0000     		.space	2
 427              	.LC8:
 428 0044 0A0D4461 		.ascii	"\012\015Data\000"
 428      746100
 429 004b 00       		.space	1
 430              	.LC10:
 431 004c 256400   		.ascii	"%d\000"
 432 004f 00       		.text
 433              	.Letext0:
 434              		.file 2 "/home/glacsweb/arm-gcc/ARM_GCC_Support/ewl/EWL_C/include/cstdint"
 435              		.file 3 "../../cpu/arm/mkl25z/MKL25Z4.h"
 436              		.file 4 "<built-in>"
 437              		.file 5 "../../cpu/arm/mkl25z/./cpu.h"
 438 0186 C046     		.section	.debug_info,"",%progbits
 439              	.Ldebug_info0:
 440 0000 65070000 		.4byte	0x765
 441 0004 0200     		.2byte	0x2
 442 0006 00000000 		.4byte	.Ldebug_abbrev0
 443 000a 04       		.byte	0x4
 444 000b 01       		.uleb128 0x1
 445 000c B4020000 		.4byte	.LASF70
 446 0010 01       		.byte	0x1
 447 0011 27000000 		.4byte	.LASF71
 448 0015 E4010000 		.4byte	.LASF72
 449 0019 00000000 		.4byte	.Ltext0
 450 001d 86010000 		.4byte	.Letext0
 451 0021 00000000 		.4byte	.Ldebug_line0
 452 0025 02       		.uleb128 0x2
 453 0026 04       		.byte	0x4
 454 0027 05       		.byte	0x5
 455 0028 696E7400 		.ascii	"int\000"
 456 002c 03       		.uleb128 0x3
 457 002d 01       		.byte	0x1
 458 002e 06       		.byte	0x6
ARM GAS  /tmp/ccykBDF0.s 			page 12


 459 002f 5B010000 		.4byte	.LASF0
 460 0033 03       		.uleb128 0x3
 461 0034 02       		.byte	0x2
 462 0035 05       		.byte	0x5
 463 0036 99000000 		.4byte	.LASF1
 464 003a 03       		.uleb128 0x3
 465 003b 04       		.byte	0x4
 466 003c 05       		.byte	0x5
 467 003d C7010000 		.4byte	.LASF2
 468 0041 03       		.uleb128 0x3
 469 0042 08       		.byte	0x8
 470 0043 05       		.byte	0x5
 471 0044 72000000 		.4byte	.LASF3
 472 0048 04       		.uleb128 0x4
 473 0049 AE000000 		.4byte	.LASF5
 474 004d 02       		.byte	0x2
 475 004e 2A       		.byte	0x2a
 476 004f 53000000 		.4byte	0x53
 477 0053 03       		.uleb128 0x3
 478 0054 01       		.byte	0x1
 479 0055 08       		.byte	0x8
 480 0056 48010000 		.4byte	.LASF4
 481 005a 04       		.uleb128 0x4
 482 005b 9A010000 		.4byte	.LASF6
 483 005f 02       		.byte	0x2
 484 0060 2B       		.byte	0x2b
 485 0061 65000000 		.4byte	0x65
 486 0065 03       		.uleb128 0x3
 487 0066 02       		.byte	0x2
 488 0067 07       		.byte	0x7
 489 0068 AF010000 		.4byte	.LASF7
 490 006c 04       		.uleb128 0x4
 491 006d 84010000 		.4byte	.LASF8
 492 0071 02       		.byte	0x2
 493 0072 2C       		.byte	0x2c
 494 0073 77000000 		.4byte	0x77
 495 0077 03       		.uleb128 0x3
 496 0078 04       		.byte	0x4
 497 0079 07       		.byte	0x7
 498 007a 1E020000 		.4byte	.LASF9
 499 007e 03       		.uleb128 0x3
 500 007f 08       		.byte	0x8
 501 0080 07       		.byte	0x7
 502 0081 67010000 		.4byte	.LASF10
 503 0085 03       		.uleb128 0x3
 504 0086 04       		.byte	0x4
 505 0087 07       		.byte	0x7
 506 0088 5B000000 		.4byte	.LASF11
 507 008c 05       		.uleb128 0x5
 508 008d 48000000 		.4byte	0x48
 509 0091 9C000000 		.4byte	0x9c
 510 0095 06       		.uleb128 0x6
 511 0096 85000000 		.4byte	0x85
 512 009a 03       		.byte	0x3
 513 009b 00       		.byte	0
 514 009c 05       		.uleb128 0x5
 515 009d 48000000 		.4byte	0x48
ARM GAS  /tmp/ccykBDF0.s 			page 13


 516 00a1 AC000000 		.4byte	0xac
 517 00a5 06       		.uleb128 0x6
 518 00a6 85000000 		.4byte	0x85
 519 00aa 17       		.byte	0x17
 520 00ab 00       		.byte	0
 521 00ac 07       		.uleb128 0x7
 522 00ad 16010000 		.4byte	.LASF19
 523 00b1 18       		.byte	0x18
 524 00b2 03       		.byte	0x3
 525 00b3 4D05     		.2byte	0x54d
 526 00b5 14010000 		.4byte	0x114
 527 00b9 08       		.uleb128 0x8
 528 00ba 4C030000 		.4byte	.LASF12
 529 00be 03       		.byte	0x3
 530 00bf 4E05     		.2byte	0x54e
 531 00c1 6C000000 		.4byte	0x6c
 532 00c5 02       		.byte	0x2
 533 00c6 23       		.byte	0x23
 534 00c7 00       		.uleb128 0
 535 00c8 08       		.uleb128 0x8
 536 00c9 A9000000 		.4byte	.LASF13
 537 00cd 03       		.byte	0x3
 538 00ce 4F05     		.2byte	0x54f
 539 00d0 6C000000 		.4byte	0x6c
 540 00d4 02       		.byte	0x2
 541 00d5 23       		.byte	0x23
 542 00d6 04       		.uleb128 0x4
 543 00d7 08       		.uleb128 0x8
 544 00d8 1D000000 		.4byte	.LASF14
 545 00dc 03       		.byte	0x3
 546 00dd 5005     		.2byte	0x550
 547 00df 6C000000 		.4byte	0x6c
 548 00e3 02       		.byte	0x2
 549 00e4 23       		.byte	0x23
 550 00e5 08       		.uleb128 0x8
 551 00e6 08       		.uleb128 0x8
 552 00e7 4F000000 		.4byte	.LASF15
 553 00eb 03       		.byte	0x3
 554 00ec 5105     		.2byte	0x551
 555 00ee 6C000000 		.4byte	0x6c
 556 00f2 02       		.byte	0x2
 557 00f3 23       		.byte	0x23
 558 00f4 0C       		.uleb128 0xc
 559 00f5 08       		.uleb128 0x8
 560 00f6 DB000000 		.4byte	.LASF16
 561 00fa 03       		.byte	0x3
 562 00fb 5205     		.2byte	0x552
 563 00fd 6C000000 		.4byte	0x6c
 564 0101 02       		.byte	0x2
 565 0102 23       		.byte	0x23
 566 0103 10       		.uleb128 0x10
 567 0104 08       		.uleb128 0x8
 568 0105 0C000000 		.4byte	.LASF17
 569 0109 03       		.byte	0x3
 570 010a 5305     		.2byte	0x553
 571 010c 6C000000 		.4byte	0x6c
 572 0110 02       		.byte	0x2
ARM GAS  /tmp/ccykBDF0.s 			page 14


 573 0111 23       		.byte	0x23
 574 0112 14       		.uleb128 0x14
 575 0113 00       		.byte	0
 576 0114 09       		.uleb128 0x9
 577 0115 51030000 		.4byte	.LASF18
 578 0119 03       		.byte	0x3
 579 011a 5405     		.2byte	0x554
 580 011c 20010000 		.4byte	0x120
 581 0120 0A       		.uleb128 0xa
 582 0121 04       		.byte	0x4
 583 0122 26010000 		.4byte	0x126
 584 0126 0B       		.uleb128 0xb
 585 0127 AC000000 		.4byte	0xac
 586 012b 07       		.uleb128 0x7
 587 012c B6000000 		.4byte	.LASF20
 588 0130 18       		.byte	0x18
 589 0131 03       		.byte	0x3
 590 0132 D006     		.2byte	0x6d0
 591 0134 93010000 		.4byte	0x193
 592 0138 08       		.uleb128 0x8
 593 0139 4C030000 		.4byte	.LASF12
 594 013d 03       		.byte	0x3
 595 013e D106     		.2byte	0x6d1
 596 0140 6C000000 		.4byte	0x6c
 597 0144 02       		.byte	0x2
 598 0145 23       		.byte	0x23
 599 0146 00       		.uleb128 0
 600 0147 08       		.uleb128 0x8
 601 0148 A9000000 		.4byte	.LASF13
 602 014c 03       		.byte	0x3
 603 014d D206     		.2byte	0x6d2
 604 014f 6C000000 		.4byte	0x6c
 605 0153 02       		.byte	0x2
 606 0154 23       		.byte	0x23
 607 0155 04       		.uleb128 0x4
 608 0156 08       		.uleb128 0x8
 609 0157 1D000000 		.4byte	.LASF14
 610 015b 03       		.byte	0x3
 611 015c D306     		.2byte	0x6d3
 612 015e 6C000000 		.4byte	0x6c
 613 0162 02       		.byte	0x2
 614 0163 23       		.byte	0x23
 615 0164 08       		.uleb128 0x8
 616 0165 08       		.uleb128 0x8
 617 0166 4F000000 		.4byte	.LASF15
 618 016a 03       		.byte	0x3
 619 016b D406     		.2byte	0x6d4
 620 016d 6C000000 		.4byte	0x6c
 621 0171 02       		.byte	0x2
 622 0172 23       		.byte	0x23
 623 0173 0C       		.uleb128 0xc
 624 0174 08       		.uleb128 0x8
 625 0175 DB000000 		.4byte	.LASF16
 626 0179 03       		.byte	0x3
 627 017a D506     		.2byte	0x6d5
 628 017c 6C000000 		.4byte	0x6c
 629 0180 02       		.byte	0x2
ARM GAS  /tmp/ccykBDF0.s 			page 15


 630 0181 23       		.byte	0x23
 631 0182 10       		.uleb128 0x10
 632 0183 08       		.uleb128 0x8
 633 0184 0C000000 		.4byte	.LASF17
 634 0188 03       		.byte	0x3
 635 0189 D606     		.2byte	0x6d6
 636 018b 6C000000 		.4byte	0x6c
 637 018f 02       		.byte	0x2
 638 0190 23       		.byte	0x23
 639 0191 14       		.uleb128 0x14
 640 0192 00       		.byte	0
 641 0193 09       		.uleb128 0x9
 642 0194 8A000000 		.4byte	.LASF21
 643 0198 03       		.byte	0x3
 644 0199 D706     		.2byte	0x6d7
 645 019b 9F010000 		.4byte	0x19f
 646 019f 0A       		.uleb128 0xa
 647 01a0 04       		.byte	0x4
 648 01a1 A5010000 		.4byte	0x1a5
 649 01a5 0B       		.uleb128 0xb
 650 01a6 2B010000 		.4byte	0x12b
 651 01aa 05       		.uleb128 0x5
 652 01ab 48000000 		.4byte	0x48
 653 01af BA010000 		.4byte	0x1ba
 654 01b3 06       		.uleb128 0x6
 655 01b4 85000000 		.4byte	0x85
 656 01b8 00       		.byte	0
 657 01b9 00       		.byte	0
 658 01ba 05       		.uleb128 0x5
 659 01bb 48000000 		.4byte	0x48
 660 01bf CA010000 		.4byte	0x1ca
 661 01c3 06       		.uleb128 0x6
 662 01c4 85000000 		.4byte	0x85
 663 01c8 07       		.byte	0x7
 664 01c9 00       		.byte	0
 665 01ca 05       		.uleb128 0x5
 666 01cb 48000000 		.4byte	0x48
 667 01cf DA010000 		.4byte	0x1da
 668 01d3 06       		.uleb128 0x6
 669 01d4 85000000 		.4byte	0x85
 670 01d8 9B       		.byte	0x9b
 671 01d9 00       		.byte	0
 672 01da 07       		.uleb128 0x7
 673 01db A3010000 		.4byte	.LASF22
 674 01df A4       		.byte	0xa4
 675 01e0 03       		.byte	0x3
 676 01e1 870F     		.2byte	0xf87
 677 01e3 37020000 		.4byte	0x237
 678 01e7 0C       		.uleb128 0xc
 679 01e8 50435200 		.ascii	"PCR\000"
 680 01ec 03       		.byte	0x3
 681 01ed 880F     		.2byte	0xf88
 682 01ef 37020000 		.4byte	0x237
 683 01f3 02       		.byte	0x2
 684 01f4 23       		.byte	0x23
 685 01f5 00       		.uleb128 0
 686 01f6 08       		.uleb128 0x8
ARM GAS  /tmp/ccykBDF0.s 			page 16


 687 01f7 7E010000 		.4byte	.LASF23
 688 01fb 03       		.byte	0x3
 689 01fc 890F     		.2byte	0xf89
 690 01fe 6C000000 		.4byte	0x6c
 691 0202 03       		.byte	0x3
 692 0203 23       		.byte	0x23
 693 0204 8001     		.uleb128 0x80
 694 0206 08       		.uleb128 0x8
 695 0207 34010000 		.4byte	.LASF24
 696 020b 03       		.byte	0x3
 697 020c 8A0F     		.2byte	0xf8a
 698 020e 6C000000 		.4byte	0x6c
 699 0212 03       		.byte	0x3
 700 0213 23       		.byte	0x23
 701 0214 8401     		.uleb128 0x84
 702 0216 08       		.uleb128 0x8
 703 0217 3B020000 		.4byte	.LASF25
 704 021b 03       		.byte	0x3
 705 021c 8B0F     		.2byte	0xf8b
 706 021e 9C000000 		.4byte	0x9c
 707 0222 03       		.byte	0x3
 708 0223 23       		.byte	0x23
 709 0224 8801     		.uleb128 0x88
 710 0226 08       		.uleb128 0x8
 711 0227 6D030000 		.4byte	.LASF26
 712 022b 03       		.byte	0x3
 713 022c 8C0F     		.2byte	0xf8c
 714 022e 6C000000 		.4byte	0x6c
 715 0232 03       		.byte	0x3
 716 0233 23       		.byte	0x23
 717 0234 A001     		.uleb128 0xa0
 718 0236 00       		.byte	0
 719 0237 05       		.uleb128 0x5
 720 0238 6C000000 		.4byte	0x6c
 721 023c 47020000 		.4byte	0x247
 722 0240 06       		.uleb128 0x6
 723 0241 85000000 		.4byte	0x85
 724 0245 1F       		.byte	0x1f
 725 0246 00       		.byte	0
 726 0247 09       		.uleb128 0x9
 727 0248 D0010000 		.4byte	.LASF27
 728 024c 03       		.byte	0x3
 729 024d 8D0F     		.2byte	0xf8d
 730 024f 53020000 		.4byte	0x253
 731 0253 0A       		.uleb128 0xa
 732 0254 04       		.byte	0x4
 733 0255 59020000 		.4byte	0x259
 734 0259 0B       		.uleb128 0xb
 735 025a DA010000 		.4byte	0x1da
 736 025e 0D       		.uleb128 0xd
 737 025f 30020000 		.4byte	.LASF28
 738 0263 0811     		.2byte	0x1108
 739 0265 03       		.byte	0x3
 740 0266 5113     		.2byte	0x1351
 741 0268 1A040000 		.4byte	0x41a
 742 026c 08       		.uleb128 0x8
 743 026d 61030000 		.4byte	.LASF29
ARM GAS  /tmp/ccykBDF0.s 			page 17


 744 0271 03       		.byte	0x3
 745 0272 5213     		.2byte	0x1352
 746 0274 6C000000 		.4byte	0x6c
 747 0278 02       		.byte	0x2
 748 0279 23       		.byte	0x23
 749 027a 00       		.uleb128 0
 750 027b 08       		.uleb128 0x8
 751 027c F5000000 		.4byte	.LASF30
 752 0280 03       		.byte	0x3
 753 0281 5313     		.2byte	0x1353
 754 0283 6C000000 		.4byte	0x6c
 755 0287 02       		.byte	0x2
 756 0288 23       		.byte	0x23
 757 0289 04       		.uleb128 0x4
 758 028a 08       		.uleb128 0x8
 759 028b 3B020000 		.4byte	.LASF25
 760 028f 03       		.byte	0x3
 761 0290 5413     		.2byte	0x1354
 762 0292 1A040000 		.4byte	0x41a
 763 0296 02       		.byte	0x2
 764 0297 23       		.byte	0x23
 765 0298 08       		.uleb128 0x8
 766 0299 08       		.uleb128 0x8
 767 029a 67030000 		.4byte	.LASF31
 768 029e 03       		.byte	0x3
 769 029f 5513     		.2byte	0x1355
 770 02a1 6C000000 		.4byte	0x6c
 771 02a5 03       		.byte	0x3
 772 02a6 23       		.byte	0x23
 773 02a7 8420     		.uleb128 0x1004
 774 02a9 08       		.uleb128 0x8
 775 02aa 46020000 		.4byte	.LASF32
 776 02ae 03       		.byte	0x3
 777 02af 5613     		.2byte	0x1356
 778 02b1 8C000000 		.4byte	0x8c
 779 02b5 03       		.byte	0x3
 780 02b6 23       		.byte	0x23
 781 02b7 8820     		.uleb128 0x1008
 782 02b9 08       		.uleb128 0x8
 783 02ba 12020000 		.4byte	.LASF33
 784 02be 03       		.byte	0x3
 785 02bf 5713     		.2byte	0x1357
 786 02c1 6C000000 		.4byte	0x6c
 787 02c5 03       		.byte	0x3
 788 02c6 23       		.byte	0x23
 789 02c7 8C20     		.uleb128 0x100c
 790 02c9 08       		.uleb128 0x8
 791 02ca 00000000 		.4byte	.LASF34
 792 02ce 03       		.byte	0x3
 793 02cf 5813     		.2byte	0x1358
 794 02d1 6C000000 		.4byte	0x6c
 795 02d5 03       		.byte	0x3
 796 02d6 23       		.byte	0x23
 797 02d7 9020     		.uleb128 0x1010
 798 02d9 08       		.uleb128 0x8
 799 02da 44000000 		.4byte	.LASF35
 800 02de 03       		.byte	0x3
ARM GAS  /tmp/ccykBDF0.s 			page 18


 801 02df 5913     		.2byte	0x1359
 802 02e1 8C000000 		.4byte	0x8c
 803 02e5 03       		.byte	0x3
 804 02e6 23       		.byte	0x23
 805 02e7 9420     		.uleb128 0x1014
 806 02e9 08       		.uleb128 0x8
 807 02ea 3A010000 		.4byte	.LASF36
 808 02ee 03       		.byte	0x3
 809 02ef 5A13     		.2byte	0x135a
 810 02f1 6C000000 		.4byte	0x6c
 811 02f5 03       		.byte	0x3
 812 02f6 23       		.byte	0x23
 813 02f7 9820     		.uleb128 0x1018
 814 02f9 08       		.uleb128 0x8
 815 02fa 57020000 		.4byte	.LASF37
 816 02fe 03       		.byte	0x3
 817 02ff 5B13     		.2byte	0x135b
 818 0301 BA010000 		.4byte	0x1ba
 819 0305 03       		.byte	0x3
 820 0306 23       		.byte	0x23
 821 0307 9C20     		.uleb128 0x101c
 822 0309 08       		.uleb128 0x8
 823 030a 22000000 		.4byte	.LASF38
 824 030e 03       		.byte	0x3
 825 030f 5C13     		.2byte	0x135c
 826 0311 6C000000 		.4byte	0x6c
 827 0315 03       		.byte	0x3
 828 0316 23       		.byte	0x23
 829 0317 A420     		.uleb128 0x1024
 830 0319 08       		.uleb128 0x8
 831 031a 62020000 		.4byte	.LASF39
 832 031e 03       		.byte	0x3
 833 031f 5D13     		.2byte	0x135d
 834 0321 2B040000 		.4byte	0x42b
 835 0325 03       		.byte	0x3
 836 0326 23       		.byte	0x23
 837 0327 A820     		.uleb128 0x1028
 838 0329 08       		.uleb128 0x8
 839 032a FE000000 		.4byte	.LASF40
 840 032e 03       		.byte	0x3
 841 032f 5E13     		.2byte	0x135e
 842 0331 6C000000 		.4byte	0x6c
 843 0335 03       		.byte	0x3
 844 0336 23       		.byte	0x23
 845 0337 B420     		.uleb128 0x1034
 846 0339 08       		.uleb128 0x8
 847 033a 04010000 		.4byte	.LASF41
 848 033e 03       		.byte	0x3
 849 033f 5F13     		.2byte	0x135f
 850 0341 6C000000 		.4byte	0x6c
 851 0345 03       		.byte	0x3
 852 0346 23       		.byte	0x23
 853 0347 B820     		.uleb128 0x1038
 854 0349 08       		.uleb128 0x8
 855 034a 0A010000 		.4byte	.LASF42
 856 034e 03       		.byte	0x3
 857 034f 6013     		.2byte	0x1360
ARM GAS  /tmp/ccykBDF0.s 			page 19


 858 0351 6C000000 		.4byte	0x6c
 859 0355 03       		.byte	0x3
 860 0356 23       		.byte	0x23
 861 0357 BC20     		.uleb128 0x103c
 862 0359 08       		.uleb128 0x8
 863 035a 10010000 		.4byte	.LASF43
 864 035e 03       		.byte	0x3
 865 035f 6113     		.2byte	0x1361
 866 0361 6C000000 		.4byte	0x6c
 867 0365 03       		.byte	0x3
 868 0366 23       		.byte	0x23
 869 0367 C020     		.uleb128 0x1040
 870 0369 08       		.uleb128 0x8
 871 036a 40010000 		.4byte	.LASF44
 872 036e 03       		.byte	0x3
 873 036f 6213     		.2byte	0x1362
 874 0371 6C000000 		.4byte	0x6c
 875 0375 03       		.byte	0x3
 876 0376 23       		.byte	0x23
 877 0377 C420     		.uleb128 0x1044
 878 0379 08       		.uleb128 0x8
 879 037a 6D020000 		.4byte	.LASF45
 880 037e 03       		.byte	0x3
 881 037f 6313     		.2byte	0x1363
 882 0381 8C000000 		.4byte	0x8c
 883 0385 03       		.byte	0x3
 884 0386 23       		.byte	0x23
 885 0387 C820     		.uleb128 0x1048
 886 0389 08       		.uleb128 0x8
 887 038a 06000000 		.4byte	.LASF46
 888 038e 03       		.byte	0x3
 889 038f 6413     		.2byte	0x1364
 890 0391 6C000000 		.4byte	0x6c
 891 0395 03       		.byte	0x3
 892 0396 23       		.byte	0x23
 893 0397 CC20     		.uleb128 0x104c
 894 0399 08       		.uleb128 0x8
 895 039a 51020000 		.4byte	.LASF47
 896 039e 03       		.byte	0x3
 897 039f 6513     		.2byte	0x1365
 898 03a1 6C000000 		.4byte	0x6c
 899 03a5 03       		.byte	0x3
 900 03a6 23       		.byte	0x23
 901 03a7 D020     		.uleb128 0x1050
 902 03a9 08       		.uleb128 0x8
 903 03aa 78020000 		.4byte	.LASF48
 904 03ae 03       		.byte	0x3
 905 03af 6613     		.2byte	0x1366
 906 03b1 8C000000 		.4byte	0x8c
 907 03b5 03       		.byte	0x3
 908 03b6 23       		.byte	0x23
 909 03b7 D420     		.uleb128 0x1054
 910 03b9 08       		.uleb128 0x8
 911 03ba 18020000 		.4byte	.LASF49
 912 03be 03       		.byte	0x3
 913 03bf 6713     		.2byte	0x1367
 914 03c1 6C000000 		.4byte	0x6c
ARM GAS  /tmp/ccykBDF0.s 			page 20


 915 03c5 03       		.byte	0x3
 916 03c6 23       		.byte	0x23
 917 03c7 D820     		.uleb128 0x1058
 918 03c9 08       		.uleb128 0x8
 919 03ca 2E010000 		.4byte	.LASF50
 920 03ce 03       		.byte	0x3
 921 03cf 6813     		.2byte	0x1368
 922 03d1 6C000000 		.4byte	0x6c
 923 03d5 03       		.byte	0x3
 924 03d6 23       		.byte	0x23
 925 03d7 DC20     		.uleb128 0x105c
 926 03d9 08       		.uleb128 0x8
 927 03da DF010000 		.4byte	.LASF51
 928 03de 03       		.byte	0x3
 929 03df 6913     		.2byte	0x1369
 930 03e1 6C000000 		.4byte	0x6c
 931 03e5 03       		.byte	0x3
 932 03e6 23       		.byte	0x23
 933 03e7 E020     		.uleb128 0x1060
 934 03e9 08       		.uleb128 0x8
 935 03ea 23010000 		.4byte	.LASF52
 936 03ee 03       		.byte	0x3
 937 03ef 6A13     		.2byte	0x136a
 938 03f1 CA010000 		.4byte	0x1ca
 939 03f5 03       		.byte	0x3
 940 03f6 23       		.byte	0x23
 941 03f7 E420     		.uleb128 0x1064
 942 03f9 08       		.uleb128 0x8
 943 03fa 56010000 		.4byte	.LASF53
 944 03fe 03       		.byte	0x3
 945 03ff 6B13     		.2byte	0x136b
 946 0401 6C000000 		.4byte	0x6c
 947 0405 03       		.byte	0x3
 948 0406 23       		.byte	0x23
 949 0407 8022     		.uleb128 0x1100
 950 0409 08       		.uleb128 0x8
 951 040a 83020000 		.4byte	.LASF54
 952 040e 03       		.byte	0x3
 953 040f 6C13     		.2byte	0x136c
 954 0411 6C000000 		.4byte	0x6c
 955 0415 03       		.byte	0x3
 956 0416 23       		.byte	0x23
 957 0417 8422     		.uleb128 0x1104
 958 0419 00       		.byte	0
 959 041a 05       		.uleb128 0x5
 960 041b 48000000 		.4byte	0x48
 961 041f 2B040000 		.4byte	0x42b
 962 0423 0E       		.uleb128 0xe
 963 0424 85000000 		.4byte	0x85
 964 0428 FB0F     		.2byte	0xffb
 965 042a 00       		.byte	0
 966 042b 05       		.uleb128 0x5
 967 042c 48000000 		.4byte	0x48
 968 0430 3B040000 		.4byte	0x43b
 969 0434 06       		.uleb128 0x6
 970 0435 85000000 		.4byte	0x85
 971 0439 0B       		.byte	0xb
ARM GAS  /tmp/ccykBDF0.s 			page 21


 972 043a 00       		.byte	0
 973 043b 09       		.uleb128 0x9
 974 043c 64000000 		.4byte	.LASF55
 975 0440 03       		.byte	0x3
 976 0441 6D13     		.2byte	0x136d
 977 0443 47040000 		.4byte	0x447
 978 0447 0A       		.uleb128 0xa
 979 0448 04       		.byte	0x4
 980 0449 4D040000 		.4byte	0x44d
 981 044d 0B       		.uleb128 0xb
 982 044e 5E020000 		.4byte	0x25e
 983 0452 07       		.uleb128 0x7
 984 0453 A9020000 		.4byte	.LASF56
 985 0457 08       		.byte	0x8
 986 0458 03       		.byte	0x3
 987 0459 0D15     		.2byte	0x150d
 988 045b CF040000 		.4byte	0x4cf
 989 045f 0C       		.uleb128 0xc
 990 0460 433100   		.ascii	"C1\000"
 991 0463 03       		.byte	0x3
 992 0464 0E15     		.2byte	0x150e
 993 0466 48000000 		.4byte	0x48
 994 046a 02       		.byte	0x2
 995 046b 23       		.byte	0x23
 996 046c 00       		.uleb128 0
 997 046d 0C       		.uleb128 0xc
 998 046e 433200   		.ascii	"C2\000"
 999 0471 03       		.byte	0x3
 1000 0472 0F15     		.2byte	0x150f
 1001 0474 48000000 		.4byte	0x48
 1002 0478 02       		.byte	0x2
 1003 0479 23       		.byte	0x23
 1004 047a 01       		.uleb128 0x1
 1005 047b 0C       		.uleb128 0xc
 1006 047c 425200   		.ascii	"BR\000"
 1007 047f 03       		.byte	0x3
 1008 0480 1015     		.2byte	0x1510
 1009 0482 48000000 		.4byte	0x48
 1010 0486 02       		.byte	0x2
 1011 0487 23       		.byte	0x23
 1012 0488 02       		.uleb128 0x2
 1013 0489 0C       		.uleb128 0xc
 1014 048a 5300     		.ascii	"S\000"
 1015 048c 03       		.byte	0x3
 1016 048d 1115     		.2byte	0x1511
 1017 048f 48000000 		.4byte	0x48
 1018 0493 02       		.byte	0x2
 1019 0494 23       		.byte	0x23
 1020 0495 03       		.uleb128 0x3
 1021 0496 08       		.uleb128 0x8
 1022 0497 3B020000 		.4byte	.LASF25
 1023 049b 03       		.byte	0x3
 1024 049c 1215     		.2byte	0x1512
 1025 049e AA010000 		.4byte	0x1aa
 1026 04a2 02       		.byte	0x2
 1027 04a3 23       		.byte	0x23
 1028 04a4 04       		.uleb128 0x4
ARM GAS  /tmp/ccykBDF0.s 			page 22


 1029 04a5 0C       		.uleb128 0xc
 1030 04a6 4400     		.ascii	"D\000"
 1031 04a8 03       		.byte	0x3
 1032 04a9 1315     		.2byte	0x1513
 1033 04ab 48000000 		.4byte	0x48
 1034 04af 02       		.byte	0x2
 1035 04b0 23       		.byte	0x23
 1036 04b1 05       		.uleb128 0x5
 1037 04b2 08       		.uleb128 0x8
 1038 04b3 46020000 		.4byte	.LASF32
 1039 04b7 03       		.byte	0x3
 1040 04b8 1415     		.2byte	0x1514
 1041 04ba AA010000 		.4byte	0x1aa
 1042 04be 02       		.byte	0x2
 1043 04bf 23       		.byte	0x23
 1044 04c0 06       		.uleb128 0x6
 1045 04c1 0C       		.uleb128 0xc
 1046 04c2 4D00     		.ascii	"M\000"
 1047 04c4 03       		.byte	0x3
 1048 04c5 1515     		.2byte	0x1515
 1049 04c7 48000000 		.4byte	0x48
 1050 04cb 02       		.byte	0x2
 1051 04cc 23       		.byte	0x23
 1052 04cd 07       		.uleb128 0x7
 1053 04ce 00       		.byte	0
 1054 04cf 09       		.uleb128 0x9
 1055 04d0 3E030000 		.4byte	.LASF57
 1056 04d4 03       		.byte	0x3
 1057 04d5 1615     		.2byte	0x1516
 1058 04d7 DB040000 		.4byte	0x4db
 1059 04db 0A       		.uleb128 0xa
 1060 04dc 04       		.byte	0x4
 1061 04dd E1040000 		.4byte	0x4e1
 1062 04e1 0B       		.uleb128 0xb
 1063 04e2 52040000 		.4byte	0x452
 1064 04e6 03       		.uleb128 0x3
 1065 04e7 04       		.byte	0x4
 1066 04e8 07       		.byte	0x7
 1067 04e9 8D010000 		.4byte	.LASF58
 1068 04ed 0A       		.uleb128 0xa
 1069 04ee 04       		.byte	0x4
 1070 04ef F3040000 		.4byte	0x4f3
 1071 04f3 0F       		.uleb128 0xf
 1072 04f4 F8040000 		.4byte	0x4f8
 1073 04f8 03       		.uleb128 0x3
 1074 04f9 01       		.byte	0x1
 1075 04fa 08       		.byte	0x8
 1076 04fb C2010000 		.4byte	.LASF59
 1077 04ff 10       		.uleb128 0x10
 1078 0500 01       		.byte	0x1
 1079 0501 80000000 		.4byte	.LASF73
 1080 0505 01       		.byte	0x1
 1081 0506 3C       		.byte	0x3c
 1082 0507 01       		.byte	0x1
 1083 0508 00000000 		.4byte	.LFB0
 1084 050c D8000000 		.4byte	.LFE0
 1085 0510 00000000 		.4byte	.LLST0
ARM GAS  /tmp/ccykBDF0.s 			page 23


 1086 0514 01       		.byte	0x1
 1087 0515 A6050000 		.4byte	0x5a6
 1088 0519 11       		.uleb128 0x11
 1089 051a 01       		.byte	0x1
 1090 051b EE000000 		.4byte	.LASF63
 1091 051f 04       		.byte	0x4
 1092 0520 00       		.byte	0
 1093 0521 01       		.byte	0x1
 1094 0522 25000000 		.4byte	0x25
 1095 0526 01       		.byte	0x1
 1096 0527 32050000 		.4byte	0x532
 1097 052b 12       		.uleb128 0x12
 1098 052c ED040000 		.4byte	0x4ed
 1099 0530 13       		.uleb128 0x13
 1100 0531 00       		.byte	0
 1101 0532 14       		.uleb128 0x14
 1102 0533 08000000 		.4byte	.LVL0
 1103 0537 3F070000 		.4byte	0x73f
 1104 053b 45050000 		.4byte	0x545
 1105 053f 15       		.uleb128 0x15
 1106 0540 01       		.byte	0x1
 1107 0541 50       		.byte	0x50
 1108 0542 01       		.byte	0x1
 1109 0543 36       		.byte	0x36
 1110 0544 00       		.byte	0
 1111 0545 14       		.uleb128 0x14
 1112 0546 6E000000 		.4byte	.LVL1
 1113 054a 53070000 		.4byte	0x753
 1114 054e 59050000 		.4byte	0x559
 1115 0552 15       		.uleb128 0x15
 1116 0553 01       		.byte	0x1
 1117 0554 50       		.byte	0x50
 1118 0555 02       		.byte	0x2
 1119 0556 75       		.byte	0x75
 1120 0557 00       		.sleb128 0
 1121 0558 00       		.byte	0
 1122 0559 14       		.uleb128 0x14
 1123 055a 7C000000 		.4byte	.LVL2
 1124 055e 53070000 		.4byte	0x753
 1125 0562 6D050000 		.4byte	0x56d
 1126 0566 15       		.uleb128 0x15
 1127 0567 01       		.byte	0x1
 1128 0568 50       		.byte	0x50
 1129 0569 02       		.byte	0x2
 1130 056a 75       		.byte	0x75
 1131 056b 00       		.sleb128 0
 1132 056c 00       		.byte	0
 1133 056d 14       		.uleb128 0x14
 1134 056e 8A000000 		.4byte	.LVL3
 1135 0572 53070000 		.4byte	0x753
 1136 0576 81050000 		.4byte	0x581
 1137 057a 15       		.uleb128 0x15
 1138 057b 01       		.byte	0x1
 1139 057c 50       		.byte	0x50
 1140 057d 02       		.byte	0x2
 1141 057e 75       		.byte	0x75
 1142 057f 00       		.sleb128 0
ARM GAS  /tmp/ccykBDF0.s 			page 24


 1143 0580 00       		.byte	0
 1144 0581 14       		.uleb128 0x14
 1145 0582 98000000 		.4byte	.LVL4
 1146 0586 53070000 		.4byte	0x753
 1147 058a 95050000 		.4byte	0x595
 1148 058e 15       		.uleb128 0x15
 1149 058f 01       		.byte	0x1
 1150 0590 50       		.byte	0x50
 1151 0591 02       		.byte	0x2
 1152 0592 75       		.byte	0x75
 1153 0593 00       		.sleb128 0
 1154 0594 00       		.byte	0
 1155 0595 16       		.uleb128 0x16
 1156 0596 AC000000 		.4byte	.LVL5
 1157 059a 53070000 		.4byte	0x753
 1158 059e 15       		.uleb128 0x15
 1159 059f 01       		.byte	0x1
 1160 05a0 50       		.byte	0x50
 1161 05a1 02       		.byte	0x2
 1162 05a2 75       		.byte	0x75
 1163 05a3 00       		.sleb128 0
 1164 05a4 00       		.byte	0
 1165 05a5 00       		.byte	0
 1166 05a6 17       		.uleb128 0x17
 1167 05a7 01       		.byte	0x1
 1168 05a8 C2000000 		.4byte	.LASF60
 1169 05ac 01       		.byte	0x1
 1170 05ad 64       		.byte	0x64
 1171 05ae 01       		.byte	0x1
 1172 05af D8000000 		.4byte	.LFB1
 1173 05b3 E4000000 		.4byte	.LFE1
 1174 05b7 02       		.byte	0x2
 1175 05b8 7D       		.byte	0x7d
 1176 05b9 00       		.sleb128 0
 1177 05ba 01       		.byte	0x1
 1178 05bb 17       		.uleb128 0x17
 1179 05bc 01       		.byte	0x1
 1180 05bd E0000000 		.4byte	.LASF61
 1181 05c1 01       		.byte	0x1
 1182 05c2 69       		.byte	0x69
 1183 05c3 01       		.byte	0x1
 1184 05c4 E4000000 		.4byte	.LFB2
 1185 05c8 F0000000 		.4byte	.LFE2
 1186 05cc 02       		.byte	0x2
 1187 05cd 7D       		.byte	0x7d
 1188 05ce 00       		.sleb128 0
 1189 05cf 01       		.byte	0x1
 1190 05d0 18       		.uleb128 0x18
 1191 05d1 01       		.byte	0x1
 1192 05d2 8A020000 		.4byte	.LASF64
 1193 05d6 01       		.byte	0x1
 1194 05d7 70       		.byte	0x70
 1195 05d8 01       		.byte	0x1
 1196 05d9 5A000000 		.4byte	0x5a
 1197 05dd F0000000 		.4byte	.LFB3
 1198 05e1 70010000 		.4byte	.LFE3
 1199 05e5 20000000 		.4byte	.LLST1
ARM GAS  /tmp/ccykBDF0.s 			page 25


 1200 05e9 01       		.byte	0x1
 1201 05ea BC060000 		.4byte	0x6bc
 1202 05ee 19       		.uleb128 0x19
 1203 05ef 696E00   		.ascii	"in\000"
 1204 05f2 01       		.byte	0x1
 1205 05f3 70       		.byte	0x70
 1206 05f4 48000000 		.4byte	0x48
 1207 05f8 4C000000 		.4byte	.LLST2
 1208 05fc 1A       		.uleb128 0x1a
 1209 05fd 54000000 		.4byte	.LASF62
 1210 0601 01       		.byte	0x1
 1211 0602 70       		.byte	0x70
 1212 0603 48000000 		.4byte	0x48
 1213 0607 6D000000 		.4byte	.LLST3
 1214 060b 1B       		.uleb128 0x1b
 1215 060c 6900     		.ascii	"i\000"
 1216 060e 01       		.byte	0x1
 1217 060f 72       		.byte	0x72
 1218 0610 48000000 		.4byte	0x48
 1219 0614 8E000000 		.4byte	.LLST4
 1220 0618 1B       		.uleb128 0x1b
 1221 0619 746D7000 		.ascii	"tmp\000"
 1222 061d 01       		.byte	0x1
 1223 061e 73       		.byte	0x73
 1224 061f 5A000000 		.4byte	0x5a
 1225 0623 AE000000 		.4byte	.LLST5
 1226 0627 11       		.uleb128 0x11
 1227 0628 01       		.byte	0x1
 1228 0629 EE000000 		.4byte	.LASF63
 1229 062d 04       		.byte	0x4
 1230 062e 00       		.byte	0
 1231 062f 01       		.byte	0x1
 1232 0630 25000000 		.4byte	0x25
 1233 0634 01       		.byte	0x1
 1234 0635 40060000 		.4byte	0x640
 1235 0639 12       		.uleb128 0x12
 1236 063a ED040000 		.4byte	0x4ed
 1237 063e 13       		.uleb128 0x13
 1238 063f 00       		.byte	0
 1239 0640 14       		.uleb128 0x14
 1240 0641 04010000 		.4byte	.LVL10
 1241 0645 53070000 		.4byte	0x753
 1242 0649 57060000 		.4byte	0x657
 1243 064d 15       		.uleb128 0x15
 1244 064e 01       		.byte	0x1
 1245 064f 50       		.byte	0x50
 1246 0650 05       		.byte	0x5
 1247 0651 03       		.byte	0x3
 1248 0652 14000000 		.4byte	.LC2
 1249 0656 00       		.byte	0
 1250 0657 14       		.uleb128 0x14
 1251 0658 18010000 		.4byte	.LVL13
 1252 065c 53070000 		.4byte	0x753
 1253 0660 71060000 		.4byte	0x671
 1254 0664 15       		.uleb128 0x15
 1255 0665 01       		.byte	0x1
 1256 0666 51       		.byte	0x51
ARM GAS  /tmp/ccykBDF0.s 			page 26


 1257 0667 02       		.byte	0x2
 1258 0668 74       		.byte	0x74
 1259 0669 00       		.sleb128 0
 1260 066a 15       		.uleb128 0x15
 1261 066b 01       		.byte	0x1
 1262 066c 50       		.byte	0x50
 1263 066d 02       		.byte	0x2
 1264 066e 75       		.byte	0x75
 1265 066f 00       		.sleb128 0
 1266 0670 00       		.byte	0
 1267 0671 14       		.uleb128 0x14
 1268 0672 36010000 		.4byte	.LVL16
 1269 0676 53070000 		.4byte	0x753
 1270 067a 8B060000 		.4byte	0x68b
 1271 067e 15       		.uleb128 0x15
 1272 067f 01       		.byte	0x1
 1273 0680 51       		.byte	0x51
 1274 0681 02       		.byte	0x2
 1275 0682 74       		.byte	0x74
 1276 0683 00       		.sleb128 0
 1277 0684 15       		.uleb128 0x15
 1278 0685 01       		.byte	0x1
 1279 0686 50       		.byte	0x50
 1280 0687 02       		.byte	0x2
 1281 0688 75       		.byte	0x75
 1282 0689 00       		.sleb128 0
 1283 068a 00       		.byte	0
 1284 068b 14       		.uleb128 0x14
 1285 068c 40010000 		.4byte	.LVL17
 1286 0690 53070000 		.4byte	0x753
 1287 0694 A2060000 		.4byte	0x6a2
 1288 0698 15       		.uleb128 0x15
 1289 0699 01       		.byte	0x1
 1290 069a 50       		.byte	0x50
 1291 069b 05       		.byte	0x5
 1292 069c 03       		.byte	0x3
 1293 069d 44000000 		.4byte	.LC8
 1294 06a1 00       		.byte	0
 1295 06a2 16       		.uleb128 0x16
 1296 06a3 50010000 		.4byte	.LVL19
 1297 06a7 53070000 		.4byte	0x753
 1298 06ab 15       		.uleb128 0x15
 1299 06ac 01       		.byte	0x1
 1300 06ad 51       		.byte	0x51
 1301 06ae 02       		.byte	0x2
 1302 06af 74       		.byte	0x74
 1303 06b0 00       		.sleb128 0
 1304 06b1 15       		.uleb128 0x15
 1305 06b2 01       		.byte	0x1
 1306 06b3 50       		.byte	0x50
 1307 06b4 05       		.byte	0x5
 1308 06b5 03       		.byte	0x3
 1309 06b6 4C000000 		.4byte	.LC10
 1310 06ba 00       		.byte	0
 1311 06bb 00       		.byte	0
 1312 06bc 18       		.uleb128 0x18
 1313 06bd 01       		.byte	0x1
ARM GAS  /tmp/ccykBDF0.s 			page 27


 1314 06be 9B020000 		.4byte	.LASF65
 1315 06c2 01       		.byte	0x1
 1316 06c3 91       		.byte	0x91
 1317 06c4 01       		.byte	0x1
 1318 06c5 48000000 		.4byte	0x48
 1319 06c9 70010000 		.4byte	.LFB4
 1320 06cd 86010000 		.4byte	.LFE4
 1321 06d1 D6000000 		.4byte	.LLST6
 1322 06d5 01       		.byte	0x1
 1323 06d6 3F070000 		.4byte	0x73f
 1324 06da 1A       		.uleb128 0x1a
 1325 06db 18000000 		.4byte	.LASF66
 1326 06df 01       		.byte	0x1
 1327 06e0 91       		.byte	0x91
 1328 06e1 48000000 		.4byte	0x48
 1329 06e5 F6000000 		.4byte	.LLST7
 1330 06e9 1A       		.uleb128 0x1a
 1331 06ea A3000000 		.4byte	.LASF67
 1332 06ee 01       		.byte	0x1
 1333 06ef 91       		.byte	0x91
 1334 06f0 48000000 		.4byte	0x48
 1335 06f4 17010000 		.4byte	.LLST8
 1336 06f8 1A       		.uleb128 0x1a
 1337 06f9 54000000 		.4byte	.LASF62
 1338 06fd 01       		.byte	0x1
 1339 06fe 91       		.byte	0x91
 1340 06ff 48000000 		.4byte	0x48
 1341 0703 38010000 		.4byte	.LLST9
 1342 0707 1C       		.uleb128 0x1c
 1343 0708 11000000 		.4byte	.LASF68
 1344 070c 01       		.byte	0x1
 1345 070d 93       		.byte	0x93
 1346 070e 48000000 		.4byte	0x48
 1347 0712 59010000 		.4byte	.LLST10
 1348 0716 14       		.uleb128 0x14
 1349 0717 7A010000 		.4byte	.LVL22
 1350 071b D0050000 		.4byte	0x5d0
 1351 071f 29070000 		.4byte	0x729
 1352 0723 15       		.uleb128 0x15
 1353 0724 01       		.byte	0x1
 1354 0725 51       		.byte	0x51
 1355 0726 01       		.byte	0x1
 1356 0727 30       		.byte	0x30
 1357 0728 00       		.byte	0
 1358 0729 16       		.uleb128 0x16
 1359 072a 82010000 		.4byte	.LVL23
 1360 072e D0050000 		.4byte	0x5d0
 1361 0732 15       		.uleb128 0x15
 1362 0733 01       		.byte	0x1
 1363 0734 51       		.byte	0x51
 1364 0735 01       		.byte	0x1
 1365 0736 30       		.byte	0x30
 1366 0737 15       		.uleb128 0x15
 1367 0738 01       		.byte	0x1
 1368 0739 50       		.byte	0x50
 1369 073a 02       		.byte	0x2
 1370 073b 74       		.byte	0x74
ARM GAS  /tmp/ccykBDF0.s 			page 28


 1371 073c 00       		.sleb128 0
 1372 073d 00       		.byte	0
 1373 073e 00       		.byte	0
 1374 073f 1D       		.uleb128 0x1d
 1375 0740 01       		.byte	0x1
 1376 0741 CF000000 		.4byte	.LASF69
 1377 0745 05       		.byte	0x5
 1378 0746 41       		.byte	0x41
 1379 0747 01       		.byte	0x1
 1380 0748 01       		.byte	0x1
 1381 0749 53070000 		.4byte	0x753
 1382 074d 12       		.uleb128 0x12
 1383 074e 48000000 		.4byte	0x48
 1384 0752 00       		.byte	0
 1385 0753 1E       		.uleb128 0x1e
 1386 0754 01       		.byte	0x1
 1387 0755 EE000000 		.4byte	.LASF63
 1388 0759 04       		.byte	0x4
 1389 075a 00       		.byte	0
 1390 075b 01       		.byte	0x1
 1391 075c 25000000 		.4byte	0x25
 1392 0760 01       		.byte	0x1
 1393 0761 12       		.uleb128 0x12
 1394 0762 ED040000 		.4byte	0x4ed
 1395 0766 13       		.uleb128 0x13
 1396 0767 00       		.byte	0
 1397 0768 00       		.byte	0
 1398              		.section	.debug_abbrev,"",%progbits
 1399              	.Ldebug_abbrev0:
 1400 0000 01       		.uleb128 0x1
 1401 0001 11       		.uleb128 0x11
 1402 0002 01       		.byte	0x1
 1403 0003 25       		.uleb128 0x25
 1404 0004 0E       		.uleb128 0xe
 1405 0005 13       		.uleb128 0x13
 1406 0006 0B       		.uleb128 0xb
 1407 0007 03       		.uleb128 0x3
 1408 0008 0E       		.uleb128 0xe
 1409 0009 1B       		.uleb128 0x1b
 1410 000a 0E       		.uleb128 0xe
 1411 000b 11       		.uleb128 0x11
 1412 000c 01       		.uleb128 0x1
 1413 000d 12       		.uleb128 0x12
 1414 000e 01       		.uleb128 0x1
 1415 000f 10       		.uleb128 0x10
 1416 0010 06       		.uleb128 0x6
 1417 0011 00       		.byte	0
 1418 0012 00       		.byte	0
 1419 0013 02       		.uleb128 0x2
 1420 0014 24       		.uleb128 0x24
 1421 0015 00       		.byte	0
 1422 0016 0B       		.uleb128 0xb
 1423 0017 0B       		.uleb128 0xb
 1424 0018 3E       		.uleb128 0x3e
 1425 0019 0B       		.uleb128 0xb
 1426 001a 03       		.uleb128 0x3
 1427 001b 08       		.uleb128 0x8
ARM GAS  /tmp/ccykBDF0.s 			page 29


 1428 001c 00       		.byte	0
 1429 001d 00       		.byte	0
 1430 001e 03       		.uleb128 0x3
 1431 001f 24       		.uleb128 0x24
 1432 0020 00       		.byte	0
 1433 0021 0B       		.uleb128 0xb
 1434 0022 0B       		.uleb128 0xb
 1435 0023 3E       		.uleb128 0x3e
 1436 0024 0B       		.uleb128 0xb
 1437 0025 03       		.uleb128 0x3
 1438 0026 0E       		.uleb128 0xe
 1439 0027 00       		.byte	0
 1440 0028 00       		.byte	0
 1441 0029 04       		.uleb128 0x4
 1442 002a 16       		.uleb128 0x16
 1443 002b 00       		.byte	0
 1444 002c 03       		.uleb128 0x3
 1445 002d 0E       		.uleb128 0xe
 1446 002e 3A       		.uleb128 0x3a
 1447 002f 0B       		.uleb128 0xb
 1448 0030 3B       		.uleb128 0x3b
 1449 0031 0B       		.uleb128 0xb
 1450 0032 49       		.uleb128 0x49
 1451 0033 13       		.uleb128 0x13
 1452 0034 00       		.byte	0
 1453 0035 00       		.byte	0
 1454 0036 05       		.uleb128 0x5
 1455 0037 01       		.uleb128 0x1
 1456 0038 01       		.byte	0x1
 1457 0039 49       		.uleb128 0x49
 1458 003a 13       		.uleb128 0x13
 1459 003b 01       		.uleb128 0x1
 1460 003c 13       		.uleb128 0x13
 1461 003d 00       		.byte	0
 1462 003e 00       		.byte	0
 1463 003f 06       		.uleb128 0x6
 1464 0040 21       		.uleb128 0x21
 1465 0041 00       		.byte	0
 1466 0042 49       		.uleb128 0x49
 1467 0043 13       		.uleb128 0x13
 1468 0044 2F       		.uleb128 0x2f
 1469 0045 0B       		.uleb128 0xb
 1470 0046 00       		.byte	0
 1471 0047 00       		.byte	0
 1472 0048 07       		.uleb128 0x7
 1473 0049 13       		.uleb128 0x13
 1474 004a 01       		.byte	0x1
 1475 004b 03       		.uleb128 0x3
 1476 004c 0E       		.uleb128 0xe
 1477 004d 0B       		.uleb128 0xb
 1478 004e 0B       		.uleb128 0xb
 1479 004f 3A       		.uleb128 0x3a
 1480 0050 0B       		.uleb128 0xb
 1481 0051 3B       		.uleb128 0x3b
 1482 0052 05       		.uleb128 0x5
 1483 0053 01       		.uleb128 0x1
 1484 0054 13       		.uleb128 0x13
ARM GAS  /tmp/ccykBDF0.s 			page 30


 1485 0055 00       		.byte	0
 1486 0056 00       		.byte	0
 1487 0057 08       		.uleb128 0x8
 1488 0058 0D       		.uleb128 0xd
 1489 0059 00       		.byte	0
 1490 005a 03       		.uleb128 0x3
 1491 005b 0E       		.uleb128 0xe
 1492 005c 3A       		.uleb128 0x3a
 1493 005d 0B       		.uleb128 0xb
 1494 005e 3B       		.uleb128 0x3b
 1495 005f 05       		.uleb128 0x5
 1496 0060 49       		.uleb128 0x49
 1497 0061 13       		.uleb128 0x13
 1498 0062 38       		.uleb128 0x38
 1499 0063 0A       		.uleb128 0xa
 1500 0064 00       		.byte	0
 1501 0065 00       		.byte	0
 1502 0066 09       		.uleb128 0x9
 1503 0067 16       		.uleb128 0x16
 1504 0068 00       		.byte	0
 1505 0069 03       		.uleb128 0x3
 1506 006a 0E       		.uleb128 0xe
 1507 006b 3A       		.uleb128 0x3a
 1508 006c 0B       		.uleb128 0xb
 1509 006d 3B       		.uleb128 0x3b
 1510 006e 05       		.uleb128 0x5
 1511 006f 49       		.uleb128 0x49
 1512 0070 13       		.uleb128 0x13
 1513 0071 00       		.byte	0
 1514 0072 00       		.byte	0
 1515 0073 0A       		.uleb128 0xa
 1516 0074 0F       		.uleb128 0xf
 1517 0075 00       		.byte	0
 1518 0076 0B       		.uleb128 0xb
 1519 0077 0B       		.uleb128 0xb
 1520 0078 49       		.uleb128 0x49
 1521 0079 13       		.uleb128 0x13
 1522 007a 00       		.byte	0
 1523 007b 00       		.byte	0
 1524 007c 0B       		.uleb128 0xb
 1525 007d 35       		.uleb128 0x35
 1526 007e 00       		.byte	0
 1527 007f 49       		.uleb128 0x49
 1528 0080 13       		.uleb128 0x13
 1529 0081 00       		.byte	0
 1530 0082 00       		.byte	0
 1531 0083 0C       		.uleb128 0xc
 1532 0084 0D       		.uleb128 0xd
 1533 0085 00       		.byte	0
 1534 0086 03       		.uleb128 0x3
 1535 0087 08       		.uleb128 0x8
 1536 0088 3A       		.uleb128 0x3a
 1537 0089 0B       		.uleb128 0xb
 1538 008a 3B       		.uleb128 0x3b
 1539 008b 05       		.uleb128 0x5
 1540 008c 49       		.uleb128 0x49
 1541 008d 13       		.uleb128 0x13
ARM GAS  /tmp/ccykBDF0.s 			page 31


 1542 008e 38       		.uleb128 0x38
 1543 008f 0A       		.uleb128 0xa
 1544 0090 00       		.byte	0
 1545 0091 00       		.byte	0
 1546 0092 0D       		.uleb128 0xd
 1547 0093 13       		.uleb128 0x13
 1548 0094 01       		.byte	0x1
 1549 0095 03       		.uleb128 0x3
 1550 0096 0E       		.uleb128 0xe
 1551 0097 0B       		.uleb128 0xb
 1552 0098 05       		.uleb128 0x5
 1553 0099 3A       		.uleb128 0x3a
 1554 009a 0B       		.uleb128 0xb
 1555 009b 3B       		.uleb128 0x3b
 1556 009c 05       		.uleb128 0x5
 1557 009d 01       		.uleb128 0x1
 1558 009e 13       		.uleb128 0x13
 1559 009f 00       		.byte	0
 1560 00a0 00       		.byte	0
 1561 00a1 0E       		.uleb128 0xe
 1562 00a2 21       		.uleb128 0x21
 1563 00a3 00       		.byte	0
 1564 00a4 49       		.uleb128 0x49
 1565 00a5 13       		.uleb128 0x13
 1566 00a6 2F       		.uleb128 0x2f
 1567 00a7 05       		.uleb128 0x5
 1568 00a8 00       		.byte	0
 1569 00a9 00       		.byte	0
 1570 00aa 0F       		.uleb128 0xf
 1571 00ab 26       		.uleb128 0x26
 1572 00ac 00       		.byte	0
 1573 00ad 49       		.uleb128 0x49
 1574 00ae 13       		.uleb128 0x13
 1575 00af 00       		.byte	0
 1576 00b0 00       		.byte	0
 1577 00b1 10       		.uleb128 0x10
 1578 00b2 2E       		.uleb128 0x2e
 1579 00b3 01       		.byte	0x1
 1580 00b4 3F       		.uleb128 0x3f
 1581 00b5 0C       		.uleb128 0xc
 1582 00b6 03       		.uleb128 0x3
 1583 00b7 0E       		.uleb128 0xe
 1584 00b8 3A       		.uleb128 0x3a
 1585 00b9 0B       		.uleb128 0xb
 1586 00ba 3B       		.uleb128 0x3b
 1587 00bb 0B       		.uleb128 0xb
 1588 00bc 27       		.uleb128 0x27
 1589 00bd 0C       		.uleb128 0xc
 1590 00be 11       		.uleb128 0x11
 1591 00bf 01       		.uleb128 0x1
 1592 00c0 12       		.uleb128 0x12
 1593 00c1 01       		.uleb128 0x1
 1594 00c2 40       		.uleb128 0x40
 1595 00c3 06       		.uleb128 0x6
 1596 00c4 9742     		.uleb128 0x2117
 1597 00c6 0C       		.uleb128 0xc
 1598 00c7 01       		.uleb128 0x1
ARM GAS  /tmp/ccykBDF0.s 			page 32


 1599 00c8 13       		.uleb128 0x13
 1600 00c9 00       		.byte	0
 1601 00ca 00       		.byte	0
 1602 00cb 11       		.uleb128 0x11
 1603 00cc 2E       		.uleb128 0x2e
 1604 00cd 01       		.byte	0x1
 1605 00ce 3F       		.uleb128 0x3f
 1606 00cf 0C       		.uleb128 0xc
 1607 00d0 03       		.uleb128 0x3
 1608 00d1 0E       		.uleb128 0xe
 1609 00d2 3A       		.uleb128 0x3a
 1610 00d3 0B       		.uleb128 0xb
 1611 00d4 3B       		.uleb128 0x3b
 1612 00d5 0B       		.uleb128 0xb
 1613 00d6 27       		.uleb128 0x27
 1614 00d7 0C       		.uleb128 0xc
 1615 00d8 49       		.uleb128 0x49
 1616 00d9 13       		.uleb128 0x13
 1617 00da 3C       		.uleb128 0x3c
 1618 00db 0C       		.uleb128 0xc
 1619 00dc 01       		.uleb128 0x1
 1620 00dd 13       		.uleb128 0x13
 1621 00de 00       		.byte	0
 1622 00df 00       		.byte	0
 1623 00e0 12       		.uleb128 0x12
 1624 00e1 05       		.uleb128 0x5
 1625 00e2 00       		.byte	0
 1626 00e3 49       		.uleb128 0x49
 1627 00e4 13       		.uleb128 0x13
 1628 00e5 00       		.byte	0
 1629 00e6 00       		.byte	0
 1630 00e7 13       		.uleb128 0x13
 1631 00e8 18       		.uleb128 0x18
 1632 00e9 00       		.byte	0
 1633 00ea 00       		.byte	0
 1634 00eb 00       		.byte	0
 1635 00ec 14       		.uleb128 0x14
 1636 00ed 898201   		.uleb128 0x4109
 1637 00f0 01       		.byte	0x1
 1638 00f1 11       		.uleb128 0x11
 1639 00f2 01       		.uleb128 0x1
 1640 00f3 31       		.uleb128 0x31
 1641 00f4 13       		.uleb128 0x13
 1642 00f5 01       		.uleb128 0x1
 1643 00f6 13       		.uleb128 0x13
 1644 00f7 00       		.byte	0
 1645 00f8 00       		.byte	0
 1646 00f9 15       		.uleb128 0x15
 1647 00fa 8A8201   		.uleb128 0x410a
 1648 00fd 00       		.byte	0
 1649 00fe 02       		.uleb128 0x2
 1650 00ff 0A       		.uleb128 0xa
 1651 0100 9142     		.uleb128 0x2111
 1652 0102 0A       		.uleb128 0xa
 1653 0103 00       		.byte	0
 1654 0104 00       		.byte	0
 1655 0105 16       		.uleb128 0x16
ARM GAS  /tmp/ccykBDF0.s 			page 33


 1656 0106 898201   		.uleb128 0x4109
 1657 0109 01       		.byte	0x1
 1658 010a 11       		.uleb128 0x11
 1659 010b 01       		.uleb128 0x1
 1660 010c 31       		.uleb128 0x31
 1661 010d 13       		.uleb128 0x13
 1662 010e 00       		.byte	0
 1663 010f 00       		.byte	0
 1664 0110 17       		.uleb128 0x17
 1665 0111 2E       		.uleb128 0x2e
 1666 0112 00       		.byte	0
 1667 0113 3F       		.uleb128 0x3f
 1668 0114 0C       		.uleb128 0xc
 1669 0115 03       		.uleb128 0x3
 1670 0116 0E       		.uleb128 0xe
 1671 0117 3A       		.uleb128 0x3a
 1672 0118 0B       		.uleb128 0xb
 1673 0119 3B       		.uleb128 0x3b
 1674 011a 0B       		.uleb128 0xb
 1675 011b 27       		.uleb128 0x27
 1676 011c 0C       		.uleb128 0xc
 1677 011d 11       		.uleb128 0x11
 1678 011e 01       		.uleb128 0x1
 1679 011f 12       		.uleb128 0x12
 1680 0120 01       		.uleb128 0x1
 1681 0121 40       		.uleb128 0x40
 1682 0122 0A       		.uleb128 0xa
 1683 0123 9742     		.uleb128 0x2117
 1684 0125 0C       		.uleb128 0xc
 1685 0126 00       		.byte	0
 1686 0127 00       		.byte	0
 1687 0128 18       		.uleb128 0x18
 1688 0129 2E       		.uleb128 0x2e
 1689 012a 01       		.byte	0x1
 1690 012b 3F       		.uleb128 0x3f
 1691 012c 0C       		.uleb128 0xc
 1692 012d 03       		.uleb128 0x3
 1693 012e 0E       		.uleb128 0xe
 1694 012f 3A       		.uleb128 0x3a
 1695 0130 0B       		.uleb128 0xb
 1696 0131 3B       		.uleb128 0x3b
 1697 0132 0B       		.uleb128 0xb
 1698 0133 27       		.uleb128 0x27
 1699 0134 0C       		.uleb128 0xc
 1700 0135 49       		.uleb128 0x49
 1701 0136 13       		.uleb128 0x13
 1702 0137 11       		.uleb128 0x11
 1703 0138 01       		.uleb128 0x1
 1704 0139 12       		.uleb128 0x12
 1705 013a 01       		.uleb128 0x1
 1706 013b 40       		.uleb128 0x40
 1707 013c 06       		.uleb128 0x6
 1708 013d 9742     		.uleb128 0x2117
 1709 013f 0C       		.uleb128 0xc
 1710 0140 01       		.uleb128 0x1
 1711 0141 13       		.uleb128 0x13
 1712 0142 00       		.byte	0
ARM GAS  /tmp/ccykBDF0.s 			page 34


 1713 0143 00       		.byte	0
 1714 0144 19       		.uleb128 0x19
 1715 0145 05       		.uleb128 0x5
 1716 0146 00       		.byte	0
 1717 0147 03       		.uleb128 0x3
 1718 0148 08       		.uleb128 0x8
 1719 0149 3A       		.uleb128 0x3a
 1720 014a 0B       		.uleb128 0xb
 1721 014b 3B       		.uleb128 0x3b
 1722 014c 0B       		.uleb128 0xb
 1723 014d 49       		.uleb128 0x49
 1724 014e 13       		.uleb128 0x13
 1725 014f 02       		.uleb128 0x2
 1726 0150 06       		.uleb128 0x6
 1727 0151 00       		.byte	0
 1728 0152 00       		.byte	0
 1729 0153 1A       		.uleb128 0x1a
 1730 0154 05       		.uleb128 0x5
 1731 0155 00       		.byte	0
 1732 0156 03       		.uleb128 0x3
 1733 0157 0E       		.uleb128 0xe
 1734 0158 3A       		.uleb128 0x3a
 1735 0159 0B       		.uleb128 0xb
 1736 015a 3B       		.uleb128 0x3b
 1737 015b 0B       		.uleb128 0xb
 1738 015c 49       		.uleb128 0x49
 1739 015d 13       		.uleb128 0x13
 1740 015e 02       		.uleb128 0x2
 1741 015f 06       		.uleb128 0x6
 1742 0160 00       		.byte	0
 1743 0161 00       		.byte	0
 1744 0162 1B       		.uleb128 0x1b
 1745 0163 34       		.uleb128 0x34
 1746 0164 00       		.byte	0
 1747 0165 03       		.uleb128 0x3
 1748 0166 08       		.uleb128 0x8
 1749 0167 3A       		.uleb128 0x3a
 1750 0168 0B       		.uleb128 0xb
 1751 0169 3B       		.uleb128 0x3b
 1752 016a 0B       		.uleb128 0xb
 1753 016b 49       		.uleb128 0x49
 1754 016c 13       		.uleb128 0x13
 1755 016d 02       		.uleb128 0x2
 1756 016e 06       		.uleb128 0x6
 1757 016f 00       		.byte	0
 1758 0170 00       		.byte	0
 1759 0171 1C       		.uleb128 0x1c
 1760 0172 34       		.uleb128 0x34
 1761 0173 00       		.byte	0
 1762 0174 03       		.uleb128 0x3
 1763 0175 0E       		.uleb128 0xe
 1764 0176 3A       		.uleb128 0x3a
 1765 0177 0B       		.uleb128 0xb
 1766 0178 3B       		.uleb128 0x3b
 1767 0179 0B       		.uleb128 0xb
 1768 017a 49       		.uleb128 0x49
 1769 017b 13       		.uleb128 0x13
ARM GAS  /tmp/ccykBDF0.s 			page 35


 1770 017c 02       		.uleb128 0x2
 1771 017d 06       		.uleb128 0x6
 1772 017e 00       		.byte	0
 1773 017f 00       		.byte	0
 1774 0180 1D       		.uleb128 0x1d
 1775 0181 2E       		.uleb128 0x2e
 1776 0182 01       		.byte	0x1
 1777 0183 3F       		.uleb128 0x3f
 1778 0184 0C       		.uleb128 0xc
 1779 0185 03       		.uleb128 0x3
 1780 0186 0E       		.uleb128 0xe
 1781 0187 3A       		.uleb128 0x3a
 1782 0188 0B       		.uleb128 0xb
 1783 0189 3B       		.uleb128 0x3b
 1784 018a 0B       		.uleb128 0xb
 1785 018b 27       		.uleb128 0x27
 1786 018c 0C       		.uleb128 0xc
 1787 018d 3C       		.uleb128 0x3c
 1788 018e 0C       		.uleb128 0xc
 1789 018f 01       		.uleb128 0x1
 1790 0190 13       		.uleb128 0x13
 1791 0191 00       		.byte	0
 1792 0192 00       		.byte	0
 1793 0193 1E       		.uleb128 0x1e
 1794 0194 2E       		.uleb128 0x2e
 1795 0195 01       		.byte	0x1
 1796 0196 3F       		.uleb128 0x3f
 1797 0197 0C       		.uleb128 0xc
 1798 0198 03       		.uleb128 0x3
 1799 0199 0E       		.uleb128 0xe
 1800 019a 3A       		.uleb128 0x3a
 1801 019b 0B       		.uleb128 0xb
 1802 019c 3B       		.uleb128 0x3b
 1803 019d 0B       		.uleb128 0xb
 1804 019e 27       		.uleb128 0x27
 1805 019f 0C       		.uleb128 0xc
 1806 01a0 49       		.uleb128 0x49
 1807 01a1 13       		.uleb128 0x13
 1808 01a2 3C       		.uleb128 0x3c
 1809 01a3 0C       		.uleb128 0xc
 1810 01a4 00       		.byte	0
 1811 01a5 00       		.byte	0
 1812 01a6 00       		.byte	0
 1813              		.section	.debug_loc,"",%progbits
 1814              	.Ldebug_loc0:
 1815              	.LLST0:
 1816 0000 00000000 		.4byte	.LFB0-.Ltext0
 1817 0004 02000000 		.4byte	.LCFI0-.Ltext0
 1818 0008 0200     		.2byte	0x2
 1819 000a 7D       		.byte	0x7d
 1820 000b 00       		.sleb128 0
 1821 000c 02000000 		.4byte	.LCFI0-.Ltext0
 1822 0010 D8000000 		.4byte	.LFE0-.Ltext0
 1823 0014 0200     		.2byte	0x2
 1824 0016 7D       		.byte	0x7d
 1825 0017 10       		.sleb128 16
 1826 0018 00000000 		.4byte	0
ARM GAS  /tmp/ccykBDF0.s 			page 36


 1827 001c 00000000 		.4byte	0
 1828              	.LLST1:
 1829 0020 F0000000 		.4byte	.LFB3-.Ltext0
 1830 0024 F2000000 		.4byte	.LCFI1-.Ltext0
 1831 0028 0200     		.2byte	0x2
 1832 002a 7D       		.byte	0x7d
 1833 002b 00       		.sleb128 0
 1834 002c F2000000 		.4byte	.LCFI1-.Ltext0
 1835 0030 F6000000 		.4byte	.LCFI2-.Ltext0
 1836 0034 0200     		.2byte	0x2
 1837 0036 7D       		.byte	0x7d
 1838 0037 14       		.sleb128 20
 1839 0038 F6000000 		.4byte	.LCFI2-.Ltext0
 1840 003c 70010000 		.4byte	.LFE3-.Ltext0
 1841 0040 0200     		.2byte	0x2
 1842 0042 7D       		.byte	0x7d
 1843 0043 18       		.sleb128 24
 1844 0044 00000000 		.4byte	0
 1845 0048 00000000 		.4byte	0
 1846              	.LLST2:
 1847 004c F0000000 		.4byte	.LVL6-.Ltext0
 1848 0050 00010000 		.4byte	.LVL9-.Ltext0
 1849 0054 0100     		.2byte	0x1
 1850 0056 50       		.byte	0x50
 1851 0057 00010000 		.4byte	.LVL9-.Ltext0
 1852 005b 70010000 		.4byte	.LFE3-.Ltext0
 1853 005f 0400     		.2byte	0x4
 1854 0061 F3       		.byte	0xf3
 1855 0062 01       		.uleb128 0x1
 1856 0063 50       		.byte	0x50
 1857 0064 9F       		.byte	0x9f
 1858 0065 00000000 		.4byte	0
 1859 0069 00000000 		.4byte	0
 1860              	.LLST3:
 1861 006d F0000000 		.4byte	.LVL6-.Ltext0
 1862 0071 FC000000 		.4byte	.LVL8-.Ltext0
 1863 0075 0100     		.2byte	0x1
 1864 0077 51       		.byte	0x51
 1865 0078 FC000000 		.4byte	.LVL8-.Ltext0
 1866 007c 70010000 		.4byte	.LFE3-.Ltext0
 1867 0080 0400     		.2byte	0x4
 1868 0082 F3       		.byte	0xf3
 1869 0083 01       		.uleb128 0x1
 1870 0084 51       		.byte	0x51
 1871 0085 9F       		.byte	0x9f
 1872 0086 00000000 		.4byte	0
 1873 008a 00000000 		.4byte	0
 1874              	.LLST4:
 1875 008e F8000000 		.4byte	.LVL7-.Ltext0
 1876 0092 50010000 		.4byte	.LVL19-.Ltext0
 1877 0096 0200     		.2byte	0x2
 1878 0098 31       		.byte	0x31
 1879 0099 9F       		.byte	0x9f
 1880 009a 50010000 		.4byte	.LVL19-.Ltext0
 1881 009e 70010000 		.4byte	.LFE3-.Ltext0
 1882 00a2 0200     		.2byte	0x2
 1883 00a4 30       		.byte	0x30
ARM GAS  /tmp/ccykBDF0.s 			page 37


 1884 00a5 9F       		.byte	0x9f
 1885 00a6 00000000 		.4byte	0
 1886 00aa 00000000 		.4byte	0
 1887              	.LLST5:
 1888 00ae 10010000 		.4byte	.LVL12-.Ltext0
 1889 00b2 22010000 		.4byte	.LVL14-.Ltext0
 1890 00b6 0600     		.2byte	0x6
 1891 00b8 74       		.byte	0x74
 1892 00b9 00       		.sleb128 0
 1893 00ba 08       		.byte	0x8
 1894 00bb FF       		.byte	0xff
 1895 00bc 1A       		.byte	0x1a
 1896 00bd 9F       		.byte	0x9f
 1897 00be 2E010000 		.4byte	.LVL15-.Ltext0
 1898 00c2 44010000 		.4byte	.LVL18-.Ltext0
 1899 00c6 0600     		.2byte	0x6
 1900 00c8 74       		.byte	0x74
 1901 00c9 00       		.sleb128 0
 1902 00ca 08       		.byte	0x8
 1903 00cb FF       		.byte	0xff
 1904 00cc 1A       		.byte	0x1a
 1905 00cd 9F       		.byte	0x9f
 1906 00ce 00000000 		.4byte	0
 1907 00d2 00000000 		.4byte	0
 1908              	.LLST6:
 1909 00d6 70010000 		.4byte	.LFB4-.Ltext0
 1910 00da 72010000 		.4byte	.LCFI3-.Ltext0
 1911 00de 0200     		.2byte	0x2
 1912 00e0 7D       		.byte	0x7d
 1913 00e1 00       		.sleb128 0
 1914 00e2 72010000 		.4byte	.LCFI3-.Ltext0
 1915 00e6 86010000 		.4byte	.LFE4-.Ltext0
 1916 00ea 0200     		.2byte	0x2
 1917 00ec 7D       		.byte	0x7d
 1918 00ed 08       		.sleb128 8
 1919 00ee 00000000 		.4byte	0
 1920 00f2 00000000 		.4byte	0
 1921              	.LLST7:
 1922 00f6 70010000 		.4byte	.LVL20-.Ltext0
 1923 00fa 79010000 		.4byte	.LVL22-1-.Ltext0
 1924 00fe 0100     		.2byte	0x1
 1925 0100 50       		.byte	0x50
 1926 0101 79010000 		.4byte	.LVL22-1-.Ltext0
 1927 0105 86010000 		.4byte	.LFE4-.Ltext0
 1928 0109 0400     		.2byte	0x4
 1929 010b F3       		.byte	0xf3
 1930 010c 01       		.uleb128 0x1
 1931 010d 50       		.byte	0x50
 1932 010e 9F       		.byte	0x9f
 1933 010f 00000000 		.4byte	0
 1934 0113 00000000 		.4byte	0
 1935              	.LLST8:
 1936 0117 70010000 		.4byte	.LVL20-.Ltext0
 1937 011b 76010000 		.4byte	.LVL21-.Ltext0
 1938 011f 0100     		.2byte	0x1
 1939 0121 51       		.byte	0x51
 1940 0122 76010000 		.4byte	.LVL21-.Ltext0
ARM GAS  /tmp/ccykBDF0.s 			page 38


 1941 0126 86010000 		.4byte	.LFE4-.Ltext0
 1942 012a 0400     		.2byte	0x4
 1943 012c F3       		.byte	0xf3
 1944 012d 01       		.uleb128 0x1
 1945 012e 51       		.byte	0x51
 1946 012f 9F       		.byte	0x9f
 1947 0130 00000000 		.4byte	0
 1948 0134 00000000 		.4byte	0
 1949              	.LLST9:
 1950 0138 70010000 		.4byte	.LVL20-.Ltext0
 1951 013c 79010000 		.4byte	.LVL22-1-.Ltext0
 1952 0140 0100     		.2byte	0x1
 1953 0142 52       		.byte	0x52
 1954 0143 79010000 		.4byte	.LVL22-1-.Ltext0
 1955 0147 86010000 		.4byte	.LFE4-.Ltext0
 1956 014b 0400     		.2byte	0x4
 1957 014d F3       		.byte	0xf3
 1958 014e 01       		.uleb128 0x1
 1959 014f 52       		.byte	0x52
 1960 0150 9F       		.byte	0x9f
 1961 0151 00000000 		.4byte	0
 1962 0155 00000000 		.4byte	0
 1963              	.LLST10:
 1964 0159 82010000 		.4byte	.LVL23-.Ltext0
 1965 015d 84010000 		.4byte	.LVL24-.Ltext0
 1966 0161 0100     		.2byte	0x1
 1967 0163 50       		.byte	0x50
 1968 0164 00000000 		.4byte	0
 1969 0168 00000000 		.4byte	0
 1970              		.section	.debug_aranges,"",%progbits
 1971 0000 1C000000 		.4byte	0x1c
 1972 0004 0200     		.2byte	0x2
 1973 0006 00000000 		.4byte	.Ldebug_info0
 1974 000a 04       		.byte	0x4
 1975 000b 00       		.byte	0
 1976 000c 0000     		.2byte	0
 1977 000e 0000     		.2byte	0
 1978 0010 00000000 		.4byte	.Ltext0
 1979 0014 86010000 		.4byte	.Letext0-.Ltext0
 1980 0018 00000000 		.4byte	0
 1981 001c 00000000 		.4byte	0
 1982              		.section	.debug_line,"",%progbits
 1983              	.Ldebug_line0:
 1984 0000 FC000000 		.section	.debug_str,"MS",%progbits,1
 1984      0200B000 
 1984      00000201 
 1984      FB0E0D00 
 1984      01010101 
 1985              	.LASF34:
 1986 0000 534F5054 		.ascii	"SOPT5\000"
 1986      3500
 1987              	.LASF46:
 1988 0006 46434647 		.ascii	"FCFG1\000"
 1988      3100
 1989              	.LASF17:
 1990 000c 50444452 		.ascii	"PDDR\000"
 1990      00
ARM GAS  /tmp/ccykBDF0.s 			page 39


 1991              	.LASF68:
 1992 0011 72657375 		.ascii	"result\000"
 1992      6C7400
 1993              	.LASF66:
 1994 0018 61646472 		.ascii	"addr\000"
 1994      00
 1995              	.LASF14:
 1996 001d 50434F52 		.ascii	"PCOR\000"
 1996      00
 1997              	.LASF38:
 1998 0022 53444944 		.ascii	"SDID\000"
 1998      00
 1999              	.LASF71:
 2000 0027 2E2E2F2E 		.ascii	"../../cpu/arm/mkl25z/./spi.c\000"
 2000      2E2F6370 
 2000      752F6172 
 2000      6D2F6D6B 
 2000      6C32357A 
 2001              	.LASF35:
 2002 0044 52455345 		.ascii	"RESERVED_2\000"
 2002      52564544 
 2002      5F3200
 2003              	.LASF15:
 2004 004f 50544F52 		.ascii	"PTOR\000"
 2004      00
 2005              	.LASF62:
 2006 0054 6D6F6475 		.ascii	"module\000"
 2006      6C6500
 2007              	.LASF11:
 2008 005b 73697A65 		.ascii	"sizetype\000"
 2008      74797065 
 2008      00
 2009              	.LASF55:
 2010 0064 53494D5F 		.ascii	"SIM_MemMapPtr\000"
 2010      4D656D4D 
 2010      61705074 
 2010      7200
 2011              	.LASF3:
 2012 0072 6C6F6E67 		.ascii	"long long int\000"
 2012      206C6F6E 
 2012      6720696E 
 2012      7400
 2013              	.LASF73:
 2014 0080 53504930 		.ascii	"SPI0_init\000"
 2014      5F696E69 
 2014      7400
 2015              	.LASF21:
 2016 008a 4750494F 		.ascii	"GPIO_MemMapPtr\000"
 2016      5F4D656D 
 2016      4D617050 
 2016      747200
 2017              	.LASF1:
 2018 0099 73686F72 		.ascii	"short int\000"
 2018      7420696E 
 2018      7400
 2019              	.LASF67:
 2020 00a3 76616C75 		.ascii	"value\000"
ARM GAS  /tmp/ccykBDF0.s 			page 40


 2020      6500
 2021              	.LASF13:
 2022 00a9 50534F52 		.ascii	"PSOR\000"
 2022      00
 2023              	.LASF5:
 2024 00ae 75696E74 		.ascii	"uint8_t\000"
 2024      385F7400 
 2025              	.LASF20:
 2026 00b6 4750494F 		.ascii	"GPIO_MemMap\000"
 2026      5F4D656D 
 2026      4D617000 
 2027              	.LASF60:
 2028 00c2 53504930 		.ascii	"SPI0_csn_low\000"
 2028      5F63736E 
 2028      5F6C6F77 
 2028      00
 2029              	.LASF69:
 2030 00cf 706F7274 		.ascii	"port_enable\000"
 2030      5F656E61 
 2030      626C6500 
 2031              	.LASF16:
 2032 00db 50444952 		.ascii	"PDIR\000"
 2032      00
 2033              	.LASF61:
 2034 00e0 53504930 		.ascii	"SPI0_csn_high\000"
 2034      5F63736E 
 2034      5F686967 
 2034      6800
 2035              	.LASF63:
 2036 00ee 7072696E 		.ascii	"printf\000"
 2036      746600
 2037              	.LASF30:
 2038 00f5 534F5054 		.ascii	"SOPT1CFG\000"
 2038      31434647 
 2038      00
 2039              	.LASF40:
 2040 00fe 53434743 		.ascii	"SCGC4\000"
 2040      3400
 2041              	.LASF41:
 2042 0104 53434743 		.ascii	"SCGC5\000"
 2042      3500
 2043              	.LASF42:
 2044 010a 53434743 		.ascii	"SCGC6\000"
 2044      3600
 2045              	.LASF43:
 2046 0110 53434743 		.ascii	"SCGC7\000"
 2046      3700
 2047              	.LASF19:
 2048 0116 46475049 		.ascii	"FGPIO_MemMap\000"
 2048      4F5F4D65 
 2048      6D4D6170 
 2048      00
 2049              	.LASF52:
 2050 0123 52455345 		.ascii	"RESERVED_7\000"
 2050      52564544 
 2050      5F3700
 2051              	.LASF50:
ARM GAS  /tmp/ccykBDF0.s 			page 41


 2052 012e 5549444D 		.ascii	"UIDML\000"
 2052      4C00
 2053              	.LASF24:
 2054 0134 47504348 		.ascii	"GPCHR\000"
 2054      5200
 2055              	.LASF36:
 2056 013a 534F5054 		.ascii	"SOPT7\000"
 2056      3700
 2057              	.LASF44:
 2058 0140 434C4B44 		.ascii	"CLKDIV1\000"
 2058      49563100 
 2059              	.LASF4:
 2060 0148 756E7369 		.ascii	"unsigned char\000"
 2060      676E6564 
 2060      20636861 
 2060      7200
 2061              	.LASF53:
 2062 0156 434F5043 		.ascii	"COPC\000"
 2062      00
 2063              	.LASF0:
 2064 015b 7369676E 		.ascii	"signed char\000"
 2064      65642063 
 2064      68617200 
 2065              	.LASF10:
 2066 0167 6C6F6E67 		.ascii	"long long unsigned int\000"
 2066      206C6F6E 
 2066      6720756E 
 2066      7369676E 
 2066      65642069 
 2067              	.LASF23:
 2068 017e 4750434C 		.ascii	"GPCLR\000"
 2068      5200
 2069              	.LASF8:
 2070 0184 75696E74 		.ascii	"uint32_t\000"
 2070      33325F74 
 2070      00
 2071              	.LASF58:
 2072 018d 756E7369 		.ascii	"unsigned int\000"
 2072      676E6564 
 2072      20696E74 
 2072      00
 2073              	.LASF6:
 2074 019a 75696E74 		.ascii	"uint16_t\000"
 2074      31365F74 
 2074      00
 2075              	.LASF22:
 2076 01a3 504F5254 		.ascii	"PORT_MemMap\000"
 2076      5F4D656D 
 2076      4D617000 
 2077              	.LASF7:
 2078 01af 73686F72 		.ascii	"short unsigned int\000"
 2078      7420756E 
 2078      7369676E 
 2078      65642069 
 2078      6E7400
 2079              	.LASF59:
 2080 01c2 63686172 		.ascii	"char\000"
ARM GAS  /tmp/ccykBDF0.s 			page 42


 2080      00
 2081              	.LASF2:
 2082 01c7 6C6F6E67 		.ascii	"long int\000"
 2082      20696E74 
 2082      00
 2083              	.LASF27:
 2084 01d0 504F5254 		.ascii	"PORT_MemMapPtr\000"
 2084      5F4D656D 
 2084      4D617050 
 2084      747200
 2085              	.LASF51:
 2086 01df 5549444C 		.ascii	"UIDL\000"
 2086      00
 2087              	.LASF72:
 2088 01e4 2F686F6D 		.ascii	"/home/glacsweb/glacsweb/contiki/examples/rime\000"
 2088      652F676C 
 2088      61637377 
 2088      65622F67 
 2088      6C616373 
 2089              	.LASF33:
 2090 0212 534F5054 		.ascii	"SOPT4\000"
 2090      3400
 2091              	.LASF49:
 2092 0218 5549444D 		.ascii	"UIDMH\000"
 2092      4800
 2093              	.LASF9:
 2094 021e 6C6F6E67 		.ascii	"long unsigned int\000"
 2094      20756E73 
 2094      69676E65 
 2094      6420696E 
 2094      7400
 2095              	.LASF28:
 2096 0230 53494D5F 		.ascii	"SIM_MemMap\000"
 2096      4D656D4D 
 2096      617000
 2097              	.LASF25:
 2098 023b 52455345 		.ascii	"RESERVED_0\000"
 2098      52564544 
 2098      5F3000
 2099              	.LASF32:
 2100 0246 52455345 		.ascii	"RESERVED_1\000"
 2100      52564544 
 2100      5F3100
 2101              	.LASF47:
 2102 0251 46434647 		.ascii	"FCFG2\000"
 2102      3200
 2103              	.LASF37:
 2104 0257 52455345 		.ascii	"RESERVED_3\000"
 2104      52564544 
 2104      5F3300
 2105              	.LASF39:
 2106 0262 52455345 		.ascii	"RESERVED_4\000"
 2106      52564544 
 2106      5F3400
 2107              	.LASF45:
 2108 026d 52455345 		.ascii	"RESERVED_5\000"
 2108      52564544 
ARM GAS  /tmp/ccykBDF0.s 			page 43


 2108      5F3500
 2109              	.LASF48:
 2110 0278 52455345 		.ascii	"RESERVED_6\000"
 2110      52564544 
 2110      5F3600
 2111              	.LASF54:
 2112 0283 53525643 		.ascii	"SRVCOP\000"
 2112      4F5000
 2113              	.LASF64:
 2114 028a 5350495F 		.ascii	"SPI_single_tx_rx\000"
 2114      73696E67 
 2114      6C655F74 
 2114      785F7278 
 2114      00
 2115              	.LASF65:
 2116 029b 5350495F 		.ascii	"SPI_tx_and_rx\000"
 2116      74785F61 
 2116      6E645F72 
 2116      7800
 2117              	.LASF56:
 2118 02a9 5350495F 		.ascii	"SPI_MemMap\000"
 2118      4D656D4D 
 2118      617000
 2119              	.LASF70:
 2120 02b4 474E5520 		.ascii	"GNU C 4.8.3 20131129 (release) [ARM/embedded-4_8-br"
 2120      4320342E 
 2120      382E3320 
 2120      32303133 
 2120      31313239 
 2121 02e7 616E6368 		.ascii	"anch revision 205641] -mcpu=cortex-m0plus -mthumb -"
 2121      20726576 
 2121      6973696F 
 2121      6E203230 
 2121      35363431 
 2122 031a 67647761 		.ascii	"gdwarf-2 -g -O -fomit-frame-pointer\000"
 2122      72662D32 
 2122      202D6720 
 2122      2D4F202D 
 2122      666F6D69 
 2123              	.LASF57:
 2124 033e 5350495F 		.ascii	"SPI_MemMapPtr\000"
 2124      4D656D4D 
 2124      61705074 
 2124      7200
 2125              	.LASF12:
 2126 034c 50444F52 		.ascii	"PDOR\000"
 2126      00
 2127              	.LASF18:
 2128 0351 46475049 		.ascii	"FGPIO_MemMapPtr\000"
 2128      4F5F4D65 
 2128      6D4D6170 
 2128      50747200 
 2129              	.LASF29:
 2130 0361 534F5054 		.ascii	"SOPT1\000"
 2130      3100
 2131              	.LASF31:
 2132 0367 534F5054 		.ascii	"SOPT2\000"
ARM GAS  /tmp/ccykBDF0.s 			page 44


 2132      3200
 2133              	.LASF26:
 2134 036d 49534652 		.ascii	"ISFR\000"
 2134      00
 2135              		.ident	"GCC: (GNU Tools for ARM Embedded Processors) 4.8.3 20131129 (release) [ARM/embedded-4_8-br
ARM GAS  /tmp/ccykBDF0.s 			page 45


DEFINED SYMBOLS
                            *ABS*:00000000 spi.c
     /tmp/ccykBDF0.s:75     .text:00000000 $t
     /tmp/ccykBDF0.s:80     .text:00000000 SPI0_init
     /tmp/ccykBDF0.s:204    .text:000000b0 $d
     /tmp/ccykBDF0.s:217    .text:000000d8 $t
     /tmp/ccykBDF0.s:222    .text:000000d8 SPI0_csn_low
     /tmp/ccykBDF0.s:236    .text:000000e0 $d
     /tmp/ccykBDF0.s:240    .text:000000e4 $t
     /tmp/ccykBDF0.s:245    .text:000000e4 SPI0_csn_high
     /tmp/ccykBDF0.s:259    .text:000000ec $d
     /tmp/ccykBDF0.s:263    .text:000000f0 $t
     /tmp/ccykBDF0.s:268    .text:000000f0 SPI_single_tx_rx
     /tmp/ccykBDF0.s:369    .text:00000158 $d
     /tmp/ccykBDF0.s:378    .text:00000170 $t
     /tmp/ccykBDF0.s:383    .text:00000170 SPI_tx_and_rx
     /tmp/ccykBDF0.s:414    .rodata.str1.4:00000000 $d
                     .debug_frame:00000010 $d

UNDEFINED SYMBOLS
port_enable
printf
