ARM GAS  /tmp/ccaJBlaH.s 			page 1


   1              		.cpu cortex-m0plus
   2              		.fpu softvfp
   3              		.eabi_attribute 20, 1	@ Tag_ABI_FP_denormal
   4              		.eabi_attribute 21, 1	@ Tag_ABI_FP_exceptions
   5              		.eabi_attribute 23, 3	@ Tag_ABI_FP_number_model
   6              		.eabi_attribute 24, 1	@ Tag_ABI_align8_needed
   7              		.eabi_attribute 25, 1	@ Tag_ABI_align8_preserved
   8              		.eabi_attribute 26, 1	@ Tag_ABI_enum_size
   9              		.eabi_attribute 30, 1	@ Tag_ABI_optimization_goals
  10              		.eabi_attribute 34, 0	@ Tag_CPU_unaligned_access
  11              		.eabi_attribute 18, 4	@ Tag_ABI_PCS_wchar_t
  12              		.file	"contiki-main.c"
  13              	@ GNU C (GNU Tools for ARM Embedded Processors) version 4.8.3 20131129 (release) [ARM/embedded-4_8-
  14              	@	compiled by GNU C version 4.6.3, GMP version 4.3.2, MPFR version 2.4.2, MPC version 0.8.1
  15              	@ GGC heuristics: --param ggc-min-expand=100 --param ggc-min-heapsize=131072
  16              	@ options passed:  -I . -I ../../cpu/arm/mkl25z
  17              	@ -I ../../cpu/arm/mkl25z/loader -I ../../cpu/arm/mkl25z/dbg-io
  18              	@ -I ../../dev -I ../../platform/frdm-kl25z-rf
  19              	@ -I /home/glacsweb/arm-gcc/ARM_GCC_Support/ewl/EWL_C/include
  20              	@ -I /home/glacsweb/arm-gcc/ARM_GCC_Support/ewl/EWL_Runtime/include
  21              	@ -I /home/glacsweb/arm-gcc/lib/gcc/arm-none-eabi/4.8.3/include
  22              	@ -I /home/glacsweb/arm-gcc/lib/gcc/arm-none-eabi/4.8.3/include-fixed
  23              	@ -I /home/glacsweb/arm-gcc/arm-none-eabi/include -I ../../dev/cc1120 -I .
  24              	@ -I ../../platform/frdm-kl25z-rf/. -I ../../platform/frdm-kl25z-rf/dev
  25              	@ -I ../../platform/frdm-kl25z-rf/apps -I ../../platform/frdm-kl25z-rf/net
  26              	@ -I ../../platform/frdm-kl25z-rf/../../dev/cc1120
  27              	@ -I ../../platform/frdm-kl25z-rf/../../core/net -I ../../cpu/arm/mkl25z/.
  28              	@ -I ../../cpu/arm/mkl25z/../common/dbg-io -I ../../cpu/arm/mkl25z/loader
  29              	@ -I ../../core/dev -I ../../core/lib -I ../../core/net
  30              	@ -I ../../core/net/mac -I ../../core/net/rime -I ../../core/net/rpl
  31              	@ -I ../../core/sys -I ../../core/cfs -I ../../core/ctk
  32              	@ -I ../../core/lib/ctk -I ../../core/loader -I ../../core/.
  33              	@ -I ../../platform/frdm-kl25z-rf/ -imultilib armv6-m
  34              	@ -iprefix /home/glacsweb/arm-gcc/bin/../lib/gcc/arm-none-eabi/4.8.3/
  35              	@ -isysroot /home/glacsweb/arm-gcc/bin/../arm-none-eabi -D__USES_INITFINI__
  36              	@ -D CONTIKI=1 -D CONTIKI_TARGET_FRDM_KL25Z_RF=1 -D WITH_UIP=1
  37              	@ -D MCK=48000000 -D AUTOSTART_ENABLE -D CC11xx_CC1120=1 -D RUN_AS_SYSTEM
  38              	@ -D ROM_RUN -D __SDCC
  39              	@ -D CONTIKI_VERSION_STRING="Contiki-KL25Z-Port-18-g5a8e189"
  40              	@ ../../platform/frdm-kl25z-rf/./contiki-main.c -mcpu=cortex-m0plus -mthumb
  41              	@ -auxbase-strip obj_frdm-kl25z-rf/contiki-main.o -gdwarf-2 -g -O -Wall
  42              	@ -Wstrict-prototypes -fomit-frame-pointer -fverbose-asm
  43              	@ options enabled:  -faggressive-loop-optimizations -fauto-inc-dec
  44              	@ -fbranch-count-reg -fcombine-stack-adjustments -fcommon -fcompare-elim
  45              	@ -fcprop-registers -fdefer-pop -fdelete-null-pointer-checks
  46              	@ -fdwarf2-cfi-asm -fearly-inlining -feliminate-unused-debug-types
  47              	@ -fforward-propagate -ffunction-cse -fgcse-lm -fgnu-runtime
  48              	@ -fguess-branch-probability -fident -fif-conversion -fif-conversion2
  49              	@ -finline -finline-atomics -finline-functions-called-once -fipa-profile
  50              	@ -fipa-pure-const -fipa-reference -fira-hoist-pressure
  51              	@ -fira-share-save-slots -fira-share-spill-slots -fivopts
  52              	@ -fkeep-static-consts -fleading-underscore -fmath-errno -fmerge-constants
  53              	@ -fmerge-debug-strings -fmove-loop-invariants -fomit-frame-pointer
  54              	@ -fpeephole -fprefetch-loop-arrays -freg-struct-return
  55              	@ -fsched-critical-path-heuristic -fsched-dep-count-heuristic
  56              	@ -fsched-group-heuristic -fsched-interblock -fsched-last-insn-heuristic
  57              	@ -fsched-pressure -fsched-rank-heuristic -fsched-spec
ARM GAS  /tmp/ccaJBlaH.s 			page 2


  58              	@ -fsched-spec-insn-heuristic -fsched-stalled-insns-dep -fsection-anchors
  59              	@ -fshow-column -fshrink-wrap -fsigned-zeros -fsplit-ivs-in-unroller
  60              	@ -fsplit-wide-types -fstrict-volatile-bitfields -fsync-libcalls
  61              	@ -ftoplevel-reorder -ftrapping-math -ftree-bit-ccp -ftree-ccp -ftree-ch
  62              	@ -ftree-coalesce-vars -ftree-copy-prop -ftree-copyrename -ftree-cselim
  63              	@ -ftree-dce -ftree-dominator-opts -ftree-dse -ftree-forwprop -ftree-fre
  64              	@ -ftree-loop-if-convert -ftree-loop-im -ftree-loop-ivcanon
  65              	@ -ftree-loop-optimize -ftree-parallelize-loops= -ftree-phiprop -ftree-pta
  66              	@ -ftree-reassoc -ftree-scev-cprop -ftree-sink -ftree-slp-vectorize
  67              	@ -ftree-slsr -ftree-sra -ftree-ter -ftree-vect-loop-version
  68              	@ -funit-at-a-time -fvar-tracking -fvar-tracking-assignments -fverbose-asm
  69              	@ -fzero-initialized-in-bss -mlittle-endian -mpic-data-is-text-relative
  70              	@ -msched-prolog -mthumb -mvectorize-with-neon-quad
  71              	
  72              		.text
  73              	.Ltext0:
  74              		.cfi_sections	.debug_frame
  75              		.global	__aeabi_idiv
  76              		.align	2
  77              		.global	main
  78              		.code	16
  79              		.thumb_func
  80              		.type	main, %function
  81              	main:
  82              	.LFB5:
  83              		.file 1 "../../platform/frdm-kl25z-rf/./contiki-main.c"
   1:../../platform/frdm-kl25z-rf/./contiki-main.c **** #include <stdint.h>
   2:../../platform/frdm-kl25z-rf/./contiki-main.c **** #include <stdio.h>
   3:../../platform/frdm-kl25z-rf/./contiki-main.c **** 
   4:../../platform/frdm-kl25z-rf/./contiki-main.c **** #include <clock.h>
   5:../../platform/frdm-kl25z-rf/./contiki-main.c **** #include <etimer.h>
   6:../../platform/frdm-kl25z-rf/./contiki-main.c **** 
   7:../../platform/frdm-kl25z-rf/./contiki-main.c **** #include <sys/process.h>
   8:../../platform/frdm-kl25z-rf/./contiki-main.c **** #include <sys/procinit.h>
   9:../../platform/frdm-kl25z-rf/./contiki-main.c **** #include <sys/autostart.h>
  10:../../platform/frdm-kl25z-rf/./contiki-main.c **** 
  11:../../platform/frdm-kl25z-rf/./contiki-main.c **** #include <MKL25Z4.h>
  12:../../platform/frdm-kl25z-rf/./contiki-main.c **** 
  13:../../platform/frdm-kl25z-rf/./contiki-main.c **** #include "nvic.h"
  14:../../platform/frdm-kl25z-rf/./contiki-main.c **** #include "debug-uart.h"
  15:../../platform/frdm-kl25z-rf/./contiki-main.c **** #include "cpu.h"
  16:../../platform/frdm-kl25z-rf/./contiki-main.c **** 
  17:../../platform/frdm-kl25z-rf/./contiki-main.c **** #include <cc11xx.h>
  18:../../platform/frdm-kl25z-rf/./contiki-main.c **** #include "contiki-conf.h"
  19:../../platform/frdm-kl25z-rf/./contiki-main.c **** 
  20:../../platform/frdm-kl25z-rf/./contiki-main.c **** 
  21:../../platform/frdm-kl25z-rf/./contiki-main.c **** 
  22:../../platform/frdm-kl25z-rf/./contiki-main.c **** //#include "dev/slip.h"
  23:../../platform/frdm-kl25z-rf/./contiki-main.c **** #include "dev/watchdog.h"
  24:../../platform/frdm-kl25z-rf/./contiki-main.c **** #include "sys/clock.h"
  25:../../platform/frdm-kl25z-rf/./contiki-main.c **** #include "lib/random.h"
  26:../../platform/frdm-kl25z-rf/./contiki-main.c **** #include "net/netstack.h"
  27:../../platform/frdm-kl25z-rf/./contiki-main.c **** #include "net/mac/frame802154.h"
  28:../../platform/frdm-kl25z-rf/./contiki-main.c **** 
  29:../../platform/frdm-kl25z-rf/./contiki-main.c **** #if WITH_UIP6
  30:../../platform/frdm-kl25z-rf/./contiki-main.c **** #include "net/uip-ds6.h"
  31:../../platform/frdm-kl25z-rf/./contiki-main.c **** #endif /* WITH_UIP6 */
ARM GAS  /tmp/ccaJBlaH.s 			page 3


  32:../../platform/frdm-kl25z-rf/./contiki-main.c **** 
  33:../../platform/frdm-kl25z-rf/./contiki-main.c **** #include "net/rime.h"
  34:../../platform/frdm-kl25z-rf/./contiki-main.c **** 
  35:../../platform/frdm-kl25z-rf/./contiki-main.c **** #include "sys/node-id.h"
  36:../../platform/frdm-kl25z-rf/./contiki-main.c **** #include "sys/autostart.h"
  37:../../platform/frdm-kl25z-rf/./contiki-main.c **** #include "sys/profile.h"
  38:../../platform/frdm-kl25z-rf/./contiki-main.c **** 
  39:../../platform/frdm-kl25z-rf/./contiki-main.c **** #ifndef WITH_UIP
  40:../../platform/frdm-kl25z-rf/./contiki-main.c **** #define WITH_UIP 0
  41:../../platform/frdm-kl25z-rf/./contiki-main.c **** #endif
  42:../../platform/frdm-kl25z-rf/./contiki-main.c **** 
  43:../../platform/frdm-kl25z-rf/./contiki-main.c **** #if WITH_UIP
  44:../../platform/frdm-kl25z-rf/./contiki-main.c **** #include "net/uip.h"
  45:../../platform/frdm-kl25z-rf/./contiki-main.c **** #include "net/uip-fw.h"
  46:../../platform/frdm-kl25z-rf/./contiki-main.c **** #include "net/uip-fw-drv.h"
  47:../../platform/frdm-kl25z-rf/./contiki-main.c **** #include "net/uip-over-mesh.h"
  48:../../platform/frdm-kl25z-rf/./contiki-main.c **** //static struct uip_fw_netif slipif =
  49:../../platform/frdm-kl25z-rf/./contiki-main.c ****  // {UIP_FW_NETIF(192,168,1,2, 255,255,255,255, slip_send)};
  50:../../platform/frdm-kl25z-rf/./contiki-main.c **** static struct uip_fw_netif meshif =
  51:../../platform/frdm-kl25z-rf/./contiki-main.c ****   {UIP_FW_NETIF(172,16,0,0, 255,255,0,0, uip_over_mesh_send)};
  52:../../platform/frdm-kl25z-rf/./contiki-main.c **** 
  53:../../platform/frdm-kl25z-rf/./contiki-main.c **** #endif /* WITH_UIP */
  54:../../platform/frdm-kl25z-rf/./contiki-main.c **** 
  55:../../platform/frdm-kl25z-rf/./contiki-main.c **** #define UIP_OVER_MESH_CHANNEL 8
  56:../../platform/frdm-kl25z-rf/./contiki-main.c **** #if WITH_UIP
  57:../../platform/frdm-kl25z-rf/./contiki-main.c **** static uint8_t is_gateway;
  58:../../platform/frdm-kl25z-rf/./contiki-main.c **** #endif /* WITH_UIP */
  59:../../platform/frdm-kl25z-rf/./contiki-main.c **** 
  60:../../platform/frdm-kl25z-rf/./contiki-main.c **** unsigned short node_id = 0;
  61:../../platform/frdm-kl25z-rf/./contiki-main.c **** unsigned char node_mac[8];
  62:../../platform/frdm-kl25z-rf/./contiki-main.c **** 
  63:../../platform/frdm-kl25z-rf/./contiki-main.c **** unsigned int idle_count = 0;
  64:../../platform/frdm-kl25z-rf/./contiki-main.c **** 
  65:../../platform/frdm-kl25z-rf/./contiki-main.c **** static void
  66:../../platform/frdm-kl25z-rf/./contiki-main.c **** set_rime_addr(void)
  67:../../platform/frdm-kl25z-rf/./contiki-main.c **** {
  68:../../platform/frdm-kl25z-rf/./contiki-main.c ****   rimeaddr_t addr;
  69:../../platform/frdm-kl25z-rf/./contiki-main.c ****   int i;
  70:../../platform/frdm-kl25z-rf/./contiki-main.c **** 
  71:../../platform/frdm-kl25z-rf/./contiki-main.c ****   memset(&addr, 0, sizeof(rimeaddr_t));
  72:../../platform/frdm-kl25z-rf/./contiki-main.c **** #if UIP_CONF_IPV6
  73:../../platform/frdm-kl25z-rf/./contiki-main.c ****   memcpy(addr.u8, node_mac, sizeof(addr.u8));
  74:../../platform/frdm-kl25z-rf/./contiki-main.c **** #else
  75:../../platform/frdm-kl25z-rf/./contiki-main.c ****   if(node_id == 0) {
  76:../../platform/frdm-kl25z-rf/./contiki-main.c ****     for(i = 0; i < sizeof(rimeaddr_t); ++i) {
  77:../../platform/frdm-kl25z-rf/./contiki-main.c ****       addr.u8[i] = node_mac[7 - i];
  78:../../platform/frdm-kl25z-rf/./contiki-main.c ****     }
  79:../../platform/frdm-kl25z-rf/./contiki-main.c ****   } else {
  80:../../platform/frdm-kl25z-rf/./contiki-main.c ****     addr.u8[0] = node_id & 0xff;
  81:../../platform/frdm-kl25z-rf/./contiki-main.c ****     addr.u8[1] = node_id >> 8;
  82:../../platform/frdm-kl25z-rf/./contiki-main.c ****   }
  83:../../platform/frdm-kl25z-rf/./contiki-main.c **** #endif
  84:../../platform/frdm-kl25z-rf/./contiki-main.c ****   rimeaddr_set_node_addr(&addr);
  85:../../platform/frdm-kl25z-rf/./contiki-main.c ****   printf("Rime started with address ");
  86:../../platform/frdm-kl25z-rf/./contiki-main.c ****   for(i = 0; i < sizeof(addr.u8) - 1; i++) {
  87:../../platform/frdm-kl25z-rf/./contiki-main.c ****     printf("%d.", addr.u8[i]);
  88:../../platform/frdm-kl25z-rf/./contiki-main.c ****   }
ARM GAS  /tmp/ccaJBlaH.s 			page 4


  89:../../platform/frdm-kl25z-rf/./contiki-main.c ****   printf("%d\n", addr.u8[i]);
  90:../../platform/frdm-kl25z-rf/./contiki-main.c **** }
  91:../../platform/frdm-kl25z-rf/./contiki-main.c **** 
  92:../../platform/frdm-kl25z-rf/./contiki-main.c **** int
  93:../../platform/frdm-kl25z-rf/./contiki-main.c **** main(void)
  94:../../platform/frdm-kl25z-rf/./contiki-main.c **** {
  84              		.loc 1 94 0
  85              		.cfi_startproc
  86 0000 70B5     		push	{r4, r5, r6, lr}	@
  87              	.LCFI0:
  88              		.cfi_def_cfa_offset 16
  89              		.cfi_offset 4, -16
  90              		.cfi_offset 5, -12
  91              		.cfi_offset 6, -8
  92              		.cfi_offset 14, -4
  93 0002 84B0     		sub	sp, sp, #16	@,,
  94              	.LCFI1:
  95              		.cfi_def_cfa_offset 32
  95:../../platform/frdm-kl25z-rf/./contiki-main.c ****   cpu_init();
  96              		.loc 1 95 0
  97 0004 FFF7FEFF 		bl	cpu_init	@
  98              	.LVL0:
  96:../../platform/frdm-kl25z-rf/./contiki-main.c ****   port_enable(PORTB_EN_MASK | PORTC_EN_MASK | PORTD_EN_MASK | PORTE_EN_MASK);
  99              		.loc 1 96 0
 100 0008 0F20     		mov	r0, #15	@,
 101 000a FFF7FEFF 		bl	port_enable	@
 102              	.LVL1:
  97:../../platform/frdm-kl25z-rf/./contiki-main.c ****   
  98:../../platform/frdm-kl25z-rf/./contiki-main.c ****   dbg_setup_uart();
 103              		.loc 1 98 0
 104 000e FFF7FEFF 		bl	dbg_setup_uart_default	@
 105              	.LVL2:
  99:../../platform/frdm-kl25z-rf/./contiki-main.c ****   printf("Initialising...");
 106              		.loc 1 99 0
 107 0012 6948     		ldr	r0, .L9	@,
 108 0014 FFF7FEFF 		bl	printf	@
 109              	.LVL3:
 100:../../platform/frdm-kl25z-rf/./contiki-main.c ****   
 101:../../platform/frdm-kl25z-rf/./contiki-main.c ****   printf("clock...");
 110              		.loc 1 101 0
 111 0018 6848     		ldr	r0, .L9+4	@,
 112 001a FFF7FEFF 		bl	printf	@
 113              	.LVL4:
 102:../../platform/frdm-kl25z-rf/./contiki-main.c ****   clock_init();
 114              		.loc 1 102 0
 115 001e FFF7FEFF 		bl	clock_init	@
 116              	.LVL5:
 103:../../platform/frdm-kl25z-rf/./contiki-main.c ****   
 104:../../platform/frdm-kl25z-rf/./contiki-main.c ****   //printf("rtimer...");
 105:../../platform/frdm-kl25z-rf/./contiki-main.c ****   //rtimer_init();
 106:../../platform/frdm-kl25z-rf/./contiki-main.c ****   
 107:../../platform/frdm-kl25z-rf/./contiki-main.c ****   printf("set node_mac...");
 117              		.loc 1 107 0
 118 0022 6748     		ldr	r0, .L9+8	@,
 119 0024 FFF7FEFF 		bl	printf	@
 120              	.LVL6:
 108:../../platform/frdm-kl25z-rf/./contiki-main.c ****   node_mac[0] = 0xc1;  /* Hardcoded for Z1 */
ARM GAS  /tmp/ccaJBlaH.s 			page 5


 121              		.loc 1 108 0
 122 0028 664B     		ldr	r3, .L9+12	@ tmp148,
 123 002a C122     		mov	r2, #193	@ tmp149,
 124 002c 1A70     		strb	r2, [r3]	@ tmp149, node_mac
 109:../../platform/frdm-kl25z-rf/./contiki-main.c ****   node_mac[1] = 0x0c;  /* Hardcoded for Revision C */
 125              		.loc 1 109 0
 126 002e 0C22     		mov	r2, #12	@ tmp152,
 127 0030 5A70     		strb	r2, [r3, #1]	@ tmp152, node_mac
 110:../../platform/frdm-kl25z-rf/./contiki-main.c ****   node_mac[2] = 0x00;  /* Hardcoded to arbitrary even number so that
 128              		.loc 1 110 0
 129 0032 0022     		mov	r2, #0	@ tmp155,
 130 0034 9A70     		strb	r2, [r3, #2]	@ tmp155, node_mac
 111:../../platform/frdm-kl25z-rf/./contiki-main.c ****                           the 802.15.4 MAC address is compatible with
 112:../../platform/frdm-kl25z-rf/./contiki-main.c ****                           an Ethernet MAC address - byte 0 (byte 2 in
 113:../../platform/frdm-kl25z-rf/./contiki-main.c ****                           the DS ID) */
 114:../../platform/frdm-kl25z-rf/./contiki-main.c ****   node_mac[3] = 0x00;  /* Hardcoded */
 131              		.loc 1 114 0
 132 0036 DA70     		strb	r2, [r3, #3]	@ tmp155, node_mac
 115:../../platform/frdm-kl25z-rf/./contiki-main.c ****   node_mac[4] = 0x00;  /* Hardcoded */
 133              		.loc 1 115 0
 134 0038 1A71     		strb	r2, [r3, #4]	@ tmp155, node_mac
 116:../../platform/frdm-kl25z-rf/./contiki-main.c ****   node_mac[5] = 0x00;  /* Hardcoded */
 135              		.loc 1 116 0
 136 003a 5A71     		strb	r2, [r3, #5]	@ tmp155, node_mac
 117:../../platform/frdm-kl25z-rf/./contiki-main.c ****   node_mac[6] = 12345678 >> 8;
 137              		.loc 1 117 0
 138 003c 6122     		mov	r2, #97	@ tmp167,
 139 003e 9A71     		strb	r2, [r3, #6]	@ tmp167, node_mac
 118:../../platform/frdm-kl25z-rf/./contiki-main.c ****   node_mac[7] = 12345678 & 0xff;
 140              		.loc 1 118 0
 141 0040 4E22     		mov	r2, #78	@ tmp170,
 142 0042 DA71     		strb	r2, [r3, #7]	@ tmp170, node_mac
 119:../../platform/frdm-kl25z-rf/./contiki-main.c ****   
 120:../../platform/frdm-kl25z-rf/./contiki-main.c ****   
 121:../../platform/frdm-kl25z-rf/./contiki-main.c ****   printf("process...");
 143              		.loc 1 121 0
 144 0044 6048     		ldr	r0, .L9+16	@,
 145 0046 FFF7FEFF 		bl	printf	@
 146              	.LVL7:
 122:../../platform/frdm-kl25z-rf/./contiki-main.c ****   process_init();
 147              		.loc 1 122 0
 148 004a FFF7FEFF 		bl	process_init	@
 149              	.LVL8:
 123:../../platform/frdm-kl25z-rf/./contiki-main.c ****   printf("start etimer...");
 150              		.loc 1 123 0
 151 004e 5F48     		ldr	r0, .L9+20	@,
 152 0050 FFF7FEFF 		bl	printf	@
 153              	.LVL9:
 124:../../platform/frdm-kl25z-rf/./contiki-main.c ****   process_start(&etimer_process, NULL);
 154              		.loc 1 124 0
 155 0054 5E48     		ldr	r0, .L9+24	@,
 156 0056 0021     		mov	r1, #0	@,
 157 0058 FFF7FEFF 		bl	process_start	@
 158              	.LVL10:
 125:../../platform/frdm-kl25z-rf/./contiki-main.c ****   printf("ctimer...");
 159              		.loc 1 125 0
 160 005c 5D48     		ldr	r0, .L9+28	@,
ARM GAS  /tmp/ccaJBlaH.s 			page 6


 161 005e FFF7FEFF 		bl	printf	@
 162              	.LVL11:
 126:../../platform/frdm-kl25z-rf/./contiki-main.c ****   ctimer_init();
 163              		.loc 1 126 0
 164 0062 FFF7FEFF 		bl	ctimer_init	@
 165              	.LVL12:
 127:../../platform/frdm-kl25z-rf/./contiki-main.c ****   printf("set rime_address...");
 166              		.loc 1 127 0
 167 0066 5C48     		ldr	r0, .L9+32	@,
 168 0068 FFF7FEFF 		bl	printf	@
 169              	.LVL13:
 170              	.LBB6:
 171              	.LBB7:
  75:../../platform/frdm-kl25z-rf/./contiki-main.c ****   if(node_id == 0) {
 172              		.loc 1 75 0
 173 006c 5B4B     		ldr	r3, .L9+36	@ tmp180,
 174 006e 1B88     		ldrh	r3, [r3]	@ node_id.3, node_id
 175 0070 002B     		cmp	r3, #0	@ node_id.3,
 176 0072 06D1     		bne	.L2	@,
 177              	.LVL14:
  77:../../platform/frdm-kl25z-rf/./contiki-main.c ****       addr.u8[i] = node_mac[7 - i];
 178              		.loc 1 77 0
 179 0074 03AB     		add	r3, sp, #12	@ tmp181,,
 180 0076 534A     		ldr	r2, .L9+12	@ tmp182,
 181 0078 D179     		ldrb	r1, [r2, #7]	@ node_mac, node_mac
 182 007a 1970     		strb	r1, [r3]	@ node_mac, addr.u8
 183              	.LVL15:
 184 007c 9279     		ldrb	r2, [r2, #6]	@ node_mac, node_mac
 185 007e 5A70     		strb	r2, [r3, #1]	@ node_mac, addr.u8
 186              	.LVL16:
 187 0080 03E0     		b	.L3	@
 188              	.LVL17:
 189              	.L2:
  80:../../platform/frdm-kl25z-rf/./contiki-main.c ****     addr.u8[0] = node_id & 0xff;
 190              		.loc 1 80 0
 191 0082 03AA     		add	r2, sp, #12	@ tmp189,,
 192 0084 1370     		strb	r3, [r2]	@ node_id.3, addr.u8
  81:../../platform/frdm-kl25z-rf/./contiki-main.c ****     addr.u8[1] = node_id >> 8;
 193              		.loc 1 81 0
 194 0086 1B0A     		lsr	r3, r3, #8	@ tmp192, node_id.3,
 195 0088 5370     		strb	r3, [r2, #1]	@ tmp192, addr.u8
 196              	.L3:
  84:../../platform/frdm-kl25z-rf/./contiki-main.c ****   rimeaddr_set_node_addr(&addr);
 197              		.loc 1 84 0
 198 008a 03AC     		add	r4, sp, #12	@ tmp194,,
 199 008c 201C     		mov	r0, r4	@, tmp194
 200 008e FFF7FEFF 		bl	rimeaddr_set_node_addr	@
 201              	.LVL18:
  85:../../platform/frdm-kl25z-rf/./contiki-main.c ****   printf("Rime started with address ");
 202              		.loc 1 85 0
 203 0092 5348     		ldr	r0, .L9+40	@,
 204 0094 FFF7FEFF 		bl	printf	@
 205              	.LVL19:
  87:../../platform/frdm-kl25z-rf/./contiki-main.c ****     printf("%d.", addr.u8[i]);
 206              		.loc 1 87 0
 207 0098 2178     		ldrb	r1, [r4]	@ D.6768, addr
 208 009a 5248     		ldr	r0, .L9+44	@,
ARM GAS  /tmp/ccaJBlaH.s 			page 7


 209 009c FFF7FEFF 		bl	printf	@
 210              	.LVL20:
  89:../../platform/frdm-kl25z-rf/./contiki-main.c ****   printf("%d\n", addr.u8[i]);
 211              		.loc 1 89 0
 212 00a0 6178     		ldrb	r1, [r4, #1]	@ D.6768, addr
 213 00a2 5148     		ldr	r0, .L9+48	@,
 214 00a4 FFF7FEFF 		bl	printf	@
 215              	.LVL21:
 216              	.LBE7:
 217              	.LBE6:
 128:../../platform/frdm-kl25z-rf/./contiki-main.c ****   set_rime_addr();
 129:../../platform/frdm-kl25z-rf/./contiki-main.c ****   printf("\n\r\n\r");
 218              		.loc 1 129 0
 219 00a8 5048     		ldr	r0, .L9+52	@,
 220 00aa FFF7FEFF 		bl	printf	@
 221              	.LVL22:
 130:../../platform/frdm-kl25z-rf/./contiki-main.c ****   
 131:../../platform/frdm-kl25z-rf/./contiki-main.c ****   
 132:../../platform/frdm-kl25z-rf/./contiki-main.c ****   printf("Init Radio...");
 222              		.loc 1 132 0
 223 00ae 5048     		ldr	r0, .L9+56	@,
 224 00b0 FFF7FEFF 		bl	printf	@
 225              	.LVL23:
 133:../../platform/frdm-kl25z-rf/./contiki-main.c ****   NETSTACK_CONF_RADIO.init();
 226              		.loc 1 133 0
 227 00b4 4F4B     		ldr	r3, .L9+60	@ tmp204,
 228 00b6 1B68     		ldr	r3, [r3]	@ cc11xx_driver.init, cc11xx_driver.init
 229 00b8 9847     		blx	r3	@ cc11xx_driver.init
 230              	.LVL24:
 134:../../platform/frdm-kl25z-rf/./contiki-main.c ****   
 135:../../platform/frdm-kl25z-rf/./contiki-main.c ****   printf("Set channel to 42 (868.25MHz)...");
 231              		.loc 1 135 0
 232 00ba 4F48     		ldr	r0, .L9+64	@,
 233 00bc FFF7FEFF 		bl	printf	@
 234              	.LVL25:
 136:../../platform/frdm-kl25z-rf/./contiki-main.c ****   cc11xx_channel_set(RF_CHANNEL);
 235              		.loc 1 136 0
 236 00c0 2A20     		mov	r0, #42	@,
 237 00c2 FFF7FEFF 		bl	cc11xx_channel_set	@
 238              	.LVL26:
 137:../../platform/frdm-kl25z-rf/./contiki-main.c ****   printf("OK\n\r");
 239              		.loc 1 137 0
 240 00c6 4D48     		ldr	r0, .L9+68	@,
 241 00c8 FFF7FEFF 		bl	printf	@
 242              	.LVL27:
 138:../../platform/frdm-kl25z-rf/./contiki-main.c ****   
 139:../../platform/frdm-kl25z-rf/./contiki-main.c ****   printf(CONTIKI_VERSION_STRING " started. ");
 243              		.loc 1 139 0
 244 00cc 4C48     		ldr	r0, .L9+72	@,
 245 00ce FFF7FEFF 		bl	printf	@
 246              	.LVL28:
 140:../../platform/frdm-kl25z-rf/./contiki-main.c ****   
 141:../../platform/frdm-kl25z-rf/./contiki-main.c ****   #if WITH_UIP6
 142:../../platform/frdm-kl25z-rf/./contiki-main.c ****   memcpy(&uip_lladdr.addr, node_mac, sizeof(uip_lladdr.addr));
 143:../../platform/frdm-kl25z-rf/./contiki-main.c ****   /* Setup nullmac-like MAC for 802.15.4 */
 144:../../platform/frdm-kl25z-rf/./contiki-main.c **** /*   sicslowpan_init(sicslowmac_init(&cc2420_driver)); */
 145:../../platform/frdm-kl25z-rf/./contiki-main.c **** /*   printf(" %s channel %u\n", sicslowmac_driver.name, RF_CHANNEL); */
ARM GAS  /tmp/ccaJBlaH.s 			page 8


 146:../../platform/frdm-kl25z-rf/./contiki-main.c **** 
 147:../../platform/frdm-kl25z-rf/./contiki-main.c ****   //sicslowpan_init(sicslowmac_init(&cc11xx_driver));
 148:../../platform/frdm-kl25z-rf/./contiki-main.c ****   //printf(" %s channel %u\n", sicslowmac_driver.name, RF_CHANNEL);
 149:../../platform/frdm-kl25z-rf/./contiki-main.c **** 
 150:../../platform/frdm-kl25z-rf/./contiki-main.c **** 
 151:../../platform/frdm-kl25z-rf/./contiki-main.c **** 
 152:../../platform/frdm-kl25z-rf/./contiki-main.c ****   /* Setup X-MAC for 802.15.4 */
 153:../../platform/frdm-kl25z-rf/./contiki-main.c ****   queuebuf_init();
 154:../../platform/frdm-kl25z-rf/./contiki-main.c **** 
 155:../../platform/frdm-kl25z-rf/./contiki-main.c ****   NETSTACK_RDC.init();
 156:../../platform/frdm-kl25z-rf/./contiki-main.c ****   NETSTACK_MAC.init();
 157:../../platform/frdm-kl25z-rf/./contiki-main.c ****   NETSTACK_NETWORK.init();
 158:../../platform/frdm-kl25z-rf/./contiki-main.c **** 
 159:../../platform/frdm-kl25z-rf/./contiki-main.c ****   printf("%s %s, channel check rate %lu Hz, radio channel %u\n",
 160:../../platform/frdm-kl25z-rf/./contiki-main.c ****          NETSTACK_MAC.name, NETSTACK_RDC.name,
 161:../../platform/frdm-kl25z-rf/./contiki-main.c ****          CLOCK_SECOND / (NETSTACK_RDC.channel_check_interval() == 0 ? 1:
 162:../../platform/frdm-kl25z-rf/./contiki-main.c ****                          NETSTACK_RDC.channel_check_interval()),
 163:../../platform/frdm-kl25z-rf/./contiki-main.c ****          RF_CHANNEL);
 164:../../platform/frdm-kl25z-rf/./contiki-main.c **** 
 165:../../platform/frdm-kl25z-rf/./contiki-main.c ****   process_start(&tcpip_process, NULL);
 166:../../platform/frdm-kl25z-rf/./contiki-main.c **** 
 167:../../platform/frdm-kl25z-rf/./contiki-main.c ****   printf("Tentative link-local IPv6 address ");
 168:../../platform/frdm-kl25z-rf/./contiki-main.c ****   {
 169:../../platform/frdm-kl25z-rf/./contiki-main.c ****     uip_ds6_addr_t *lladdr;
 170:../../platform/frdm-kl25z-rf/./contiki-main.c ****     int i;
 171:../../platform/frdm-kl25z-rf/./contiki-main.c ****     lladdr = uip_ds6_get_link_local(-1);
 172:../../platform/frdm-kl25z-rf/./contiki-main.c ****     for(i = 0; i < 7; ++i) {
 173:../../platform/frdm-kl25z-rf/./contiki-main.c ****       printf("%02x%02x:", lladdr->ipaddr.u8[i * 2],
 174:../../platform/frdm-kl25z-rf/./contiki-main.c ****              lladdr->ipaddr.u8[i * 2 + 1]);
 175:../../platform/frdm-kl25z-rf/./contiki-main.c ****     }
 176:../../platform/frdm-kl25z-rf/./contiki-main.c ****     printf("%02x%02x\n", lladdr->ipaddr.u8[14], lladdr->ipaddr.u8[15]);
 177:../../platform/frdm-kl25z-rf/./contiki-main.c ****   }
 178:../../platform/frdm-kl25z-rf/./contiki-main.c ****   
 179:../../platform/frdm-kl25z-rf/./contiki-main.c ****   if(!UIP_CONF_IPV6_RPL) {
 180:../../platform/frdm-kl25z-rf/./contiki-main.c ****     uip_ipaddr_t ipaddr;
 181:../../platform/frdm-kl25z-rf/./contiki-main.c ****     int i;
 182:../../platform/frdm-kl25z-rf/./contiki-main.c ****     uip_ip6addr(&ipaddr, 0xaaaa, 0, 0, 0, 0, 0, 0, 0);
 183:../../platform/frdm-kl25z-rf/./contiki-main.c ****     uip_ds6_set_addr_iid(&ipaddr, &uip_lladdr);
 184:../../platform/frdm-kl25z-rf/./contiki-main.c ****     uip_ds6_addr_add(&ipaddr, 0, ADDR_TENTATIVE);
 185:../../platform/frdm-kl25z-rf/./contiki-main.c ****     printf("Tentative global IPv6 address ");
 186:../../platform/frdm-kl25z-rf/./contiki-main.c ****     for(i = 0; i < 7; ++i) {
 187:../../platform/frdm-kl25z-rf/./contiki-main.c ****       printf("%02x%02x:",
 188:../../platform/frdm-kl25z-rf/./contiki-main.c ****              ipaddr.u8[i * 2], ipaddr.u8[i * 2 + 1]);
 189:../../platform/frdm-kl25z-rf/./contiki-main.c ****     }
 190:../../platform/frdm-kl25z-rf/./contiki-main.c ****     printf("%02x%02x\n",
 191:../../platform/frdm-kl25z-rf/./contiki-main.c ****            ipaddr.u8[7 * 2], ipaddr.u8[7 * 2 + 1]);
 192:../../platform/frdm-kl25z-rf/./contiki-main.c ****   }
 193:../../platform/frdm-kl25z-rf/./contiki-main.c **** 
 194:../../platform/frdm-kl25z-rf/./contiki-main.c **** #else /* WITH_UIP6 */
 195:../../platform/frdm-kl25z-rf/./contiki-main.c **** 
 196:../../platform/frdm-kl25z-rf/./contiki-main.c ****   NETSTACK_RDC.init();
 247              		.loc 1 196 0
 248 00d2 4C4C     		ldr	r4, .L9+76	@ tmp209,
 249 00d4 6368     		ldr	r3, [r4, #4]	@, contikimac_driver.init
 250 00d6 9847     		blx	r3	@
 251              	.LVL29:
 197:../../platform/frdm-kl25z-rf/./contiki-main.c ****   NETSTACK_MAC.init();
ARM GAS  /tmp/ccaJBlaH.s 			page 9


 252              		.loc 1 197 0
 253 00d8 4B4D     		ldr	r5, .L9+80	@ tmp211,
 254 00da 6B68     		ldr	r3, [r5, #4]	@, csma_driver.init
 255 00dc 9847     		blx	r3	@
 256              	.LVL30:
 198:../../platform/frdm-kl25z-rf/./contiki-main.c ****   NETSTACK_NETWORK.init();
 257              		.loc 1 198 0
 258 00de 4B4B     		ldr	r3, .L9+84	@ tmp213,
 259 00e0 5B68     		ldr	r3, [r3, #4]	@ rime_driver.init, rime_driver.init
 260 00e2 9847     		blx	r3	@ rime_driver.init
 261              	.LVL31:
 199:../../platform/frdm-kl25z-rf/./contiki-main.c **** 
 200:../../platform/frdm-kl25z-rf/./contiki-main.c ****   printf("%s %s, channel check rate %lu Hz, radio channel %u\n",
 262              		.loc 1 200 0
 263 00e4 2E68     		ldr	r6, [r5]	@ D.6765, csma_driver.name
 264 00e6 2568     		ldr	r5, [r4]	@ D.6765, contikimac_driver.name
 201:../../platform/frdm-kl25z-rf/./contiki-main.c ****          NETSTACK_MAC.name, NETSTACK_RDC.name,
 202:../../platform/frdm-kl25z-rf/./contiki-main.c ****          CLOCK_SECOND / (NETSTACK_RDC.channel_check_interval() == 0? 1:
 265              		.loc 1 202 0
 266 00e8 E469     		ldr	r4, [r4, #28]	@ D.6766, contikimac_driver.channel_check_interval
 267 00ea A047     		blx	r4	@ D.6766
 268              	.LVL32:
 200:../../platform/frdm-kl25z-rf/./contiki-main.c ****   printf("%s %s, channel check rate %lu Hz, radio channel %u\n",
 269              		.loc 1 200 0
 270 00ec 6423     		mov	r3, #100	@ iftmp.0,
 271 00ee 0028     		cmp	r0, #0	@ tmp218,
 272 00f0 05D0     		beq	.L4	@,
 203:../../platform/frdm-kl25z-rf/./contiki-main.c ****                          NETSTACK_RDC.channel_check_interval()),
 273              		.loc 1 203 0
 274 00f2 A047     		blx	r4	@ D.6766
 275              	.LVL33:
 276 00f4 011C     		mov	r1, r0	@ tmp220,
 200:../../platform/frdm-kl25z-rf/./contiki-main.c ****   printf("%s %s, channel check rate %lu Hz, radio channel %u\n",
 277              		.loc 1 200 0
 278 00f6 6420     		mov	r0, #100	@,
 279 00f8 FFF7FEFF 		bl	__aeabi_idiv	@
 280              	.LVL34:
 281 00fc 031C     		mov	r3, r0	@ iftmp.0,
 282              	.L4:
 200:../../platform/frdm-kl25z-rf/./contiki-main.c ****   printf("%s %s, channel check rate %lu Hz, radio channel %u\n",
 283              		.loc 1 200 0 is_stmt 0 discriminator 2
 284 00fe 2A22     		mov	r2, #42	@ tmp226,
 285 0100 0092     		str	r2, [sp]	@ tmp226,
 286 0102 4348     		ldr	r0, .L9+88	@,
 287 0104 311C     		mov	r1, r6	@, D.6765
 288 0106 2A1C     		mov	r2, r5	@, D.6765
 289 0108 FFF7FEFF 		bl	printf	@
 290              	.LVL35:
 204:../../platform/frdm-kl25z-rf/./contiki-main.c ****          RF_CHANNEL);
 205:../../platform/frdm-kl25z-rf/./contiki-main.c **** #endif /* WITH_UIP6 */
 206:../../platform/frdm-kl25z-rf/./contiki-main.c **** 
 207:../../platform/frdm-kl25z-rf/./contiki-main.c **** #if !WITH_UIP && !WITH_UIP6
 208:../../platform/frdm-kl25z-rf/./contiki-main.c ****   uart0_set_input(serial_line_input_byte);
 209:../../platform/frdm-kl25z-rf/./contiki-main.c ****   serial_line_init();
 210:../../platform/frdm-kl25z-rf/./contiki-main.c **** #endif
 211:../../platform/frdm-kl25z-rf/./contiki-main.c **** 
 212:../../platform/frdm-kl25z-rf/./contiki-main.c **** #if PROFILE_CONF_ON
ARM GAS  /tmp/ccaJBlaH.s 			page 10


 213:../../platform/frdm-kl25z-rf/./contiki-main.c ****   profile_init();
 214:../../platform/frdm-kl25z-rf/./contiki-main.c **** #endif /* PROFILE_CONF_ON */
 215:../../platform/frdm-kl25z-rf/./contiki-main.c **** 
 216:../../platform/frdm-kl25z-rf/./contiki-main.c **** 
 217:../../platform/frdm-kl25z-rf/./contiki-main.c **** #if TIMESYNCH_CONF_ENABLED
 218:../../platform/frdm-kl25z-rf/./contiki-main.c ****   timesynch_init();
 219:../../platform/frdm-kl25z-rf/./contiki-main.c ****   timesynch_set_authority_level(rimeaddr_node_addr.u8[0]);
 220:../../platform/frdm-kl25z-rf/./contiki-main.c **** #endif /* TIMESYNCH_CONF_ENABLED */
 221:../../platform/frdm-kl25z-rf/./contiki-main.c **** 
 222:../../platform/frdm-kl25z-rf/./contiki-main.c **** #if WITH_UIP
 223:../../platform/frdm-kl25z-rf/./contiki-main.c ****   process_start(&tcpip_process, NULL);
 291              		.loc 1 223 0 is_stmt 1 discriminator 2
 292 010c 4148     		ldr	r0, .L9+92	@,
 293 010e 0021     		mov	r1, #0	@,
 294 0110 FFF7FEFF 		bl	process_start	@
 295              	.LVL36:
 224:../../platform/frdm-kl25z-rf/./contiki-main.c ****   process_start(&uip_fw_process, NULL);	/* Start IP output */
 296              		.loc 1 224 0 discriminator 2
 297 0114 4048     		ldr	r0, .L9+96	@,
 298 0116 0021     		mov	r1, #0	@,
 299 0118 FFF7FEFF 		bl	process_start	@
 300              	.LVL37:
 301              	.LBB8:
 225:../../platform/frdm-kl25z-rf/./contiki-main.c ****   //process_start(&slip_process, NULL);
 226:../../platform/frdm-kl25z-rf/./contiki-main.c **** 
 227:../../platform/frdm-kl25z-rf/./contiki-main.c ****   //slip_set_input_callback(set_gateway);
 228:../../platform/frdm-kl25z-rf/./contiki-main.c **** 
 229:../../platform/frdm-kl25z-rf/./contiki-main.c ****   {
 230:../../platform/frdm-kl25z-rf/./contiki-main.c ****     uip_ipaddr_t hostaddr, netmask;
 231:../../platform/frdm-kl25z-rf/./contiki-main.c **** 
 232:../../platform/frdm-kl25z-rf/./contiki-main.c ****     uip_init();
 302              		.loc 1 232 0 discriminator 2
 303 011c FFF7FEFF 		bl	uip_init	@
 304              	.LVL38:
 233:../../platform/frdm-kl25z-rf/./contiki-main.c **** 
 234:../../platform/frdm-kl25z-rf/./contiki-main.c ****     uip_ipaddr(&hostaddr, 172,16,
 305              		.loc 1 234 0 discriminator 2
 306 0120 02AC     		add	r4, sp, #8	@ tmp229,,
 307 0122 AC23     		mov	r3, #172	@ tmp230,
 308 0124 2370     		strb	r3, [r4]	@ tmp230, hostaddr.u8
 309 0126 1023     		mov	r3, #16	@ tmp233,
 310 0128 6370     		strb	r3, [r4, #1]	@ tmp233, hostaddr.u8
 311 012a 3C4B     		ldr	r3, .L9+100	@ tmp236,
 312 012c 1A78     		ldrb	r2, [r3]	@ rimeaddr_node_addr, rimeaddr_node_addr
 313 012e A270     		strb	r2, [r4, #2]	@ rimeaddr_node_addr, hostaddr.u8
 314 0130 5B78     		ldrb	r3, [r3, #1]	@ rimeaddr_node_addr, rimeaddr_node_addr
 315 0132 E370     		strb	r3, [r4, #3]	@ rimeaddr_node_addr, hostaddr.u8
 235:../../platform/frdm-kl25z-rf/./contiki-main.c **** 	       rimeaddr_node_addr.u8[0],rimeaddr_node_addr.u8[1]);
 236:../../platform/frdm-kl25z-rf/./contiki-main.c ****     uip_ipaddr(&netmask, 255,255,0,0);
 316              		.loc 1 236 0 discriminator 2
 317 0134 03AD     		add	r5, sp, #12	@ tmp243,,
 318 0136 FF23     		mov	r3, #255	@ tmp244,
 319 0138 2B70     		strb	r3, [r5]	@ tmp244, netmask.u8
 320 013a 6B70     		strb	r3, [r5, #1]	@ tmp244, netmask.u8
 321 013c 0023     		mov	r3, #0	@ tmp250,
 322 013e AB70     		strb	r3, [r5, #2]	@ tmp250, netmask.u8
 323 0140 EB70     		strb	r3, [r5, #3]	@ tmp250, netmask.u8
ARM GAS  /tmp/ccaJBlaH.s 			page 11


 237:../../platform/frdm-kl25z-rf/./contiki-main.c ****     uip_ipaddr_copy(&meshif.ipaddr, &hostaddr);
 324              		.loc 1 237 0 discriminator 2
 325 0142 374E     		ldr	r6, .L9+104	@ tmp255,
 326 0144 029B     		ldr	r3, [sp, #8]	@, hostaddr
 327 0146 7360     		str	r3, [r6, #4]	@, meshif.ipaddr
 238:../../platform/frdm-kl25z-rf/./contiki-main.c **** 
 239:../../platform/frdm-kl25z-rf/./contiki-main.c ****     uip_sethostaddr(&hostaddr);
 328              		.loc 1 239 0 discriminator 2
 329 0148 3648     		ldr	r0, .L9+108	@,
 330 014a 211C     		mov	r1, r4	@, tmp229
 331 014c 0422     		mov	r2, #4	@,
 332 014e FFF7FEFF 		bl	memcpy	@
 333              	.LVL39:
 240:../../platform/frdm-kl25z-rf/./contiki-main.c ****     uip_setnetmask(&netmask);
 334              		.loc 1 240 0 discriminator 2
 335 0152 3548     		ldr	r0, .L9+112	@,
 336 0154 291C     		mov	r1, r5	@, tmp243
 337 0156 0422     		mov	r2, #4	@,
 338 0158 FFF7FEFF 		bl	memcpy	@
 339              	.LVL40:
 241:../../platform/frdm-kl25z-rf/./contiki-main.c ****     uip_over_mesh_set_net(&hostaddr, &netmask);
 340              		.loc 1 241 0 discriminator 2
 341 015c 201C     		mov	r0, r4	@, tmp229
 342 015e 291C     		mov	r1, r5	@, tmp243
 343 0160 FFF7FEFF 		bl	uip_over_mesh_set_net	@
 344              	.LVL41:
 242:../../platform/frdm-kl25z-rf/./contiki-main.c ****     /*    uip_fw_register(&slipif);*/
 243:../../platform/frdm-kl25z-rf/./contiki-main.c ****     //uip_over_mesh_set_gateway_netif(&slipif);
 244:../../platform/frdm-kl25z-rf/./contiki-main.c ****     uip_fw_default(&meshif);
 345              		.loc 1 244 0 discriminator 2
 346 0164 301C     		mov	r0, r6	@, tmp255
 347 0166 FFF7FEFF 		bl	uip_fw_default	@
 348              	.LVL42:
 245:../../platform/frdm-kl25z-rf/./contiki-main.c ****     uip_over_mesh_init(UIP_OVER_MESH_CHANNEL);
 349              		.loc 1 245 0 discriminator 2
 350 016a 0820     		mov	r0, #8	@,
 351 016c FFF7FEFF 		bl	uip_over_mesh_init	@
 352              	.LVL43:
 246:../../platform/frdm-kl25z-rf/./contiki-main.c ****     printf("uIP started with IP address %d.%d.%d.%d\n",
 353              		.loc 1 246 0 discriminator 2
 354 0170 2178     		ldrb	r1, [r4]	@ D.6768, hostaddr
 355 0172 6278     		ldrb	r2, [r4, #1]	@ D.6768, hostaddr
 356 0174 A378     		ldrb	r3, [r4, #2]	@ D.6768, hostaddr
 357 0176 E078     		ldrb	r0, [r4, #3]	@ hostaddr, hostaddr
 358 0178 0090     		str	r0, [sp]	@ hostaddr,
 359 017a 2C48     		ldr	r0, .L9+116	@,
 360 017c FFF7FEFF 		bl	printf	@
 361              	.LVL44:
 362              	.LBE8:
 247:../../platform/frdm-kl25z-rf/./contiki-main.c **** 	   uip_ipaddr_to_quad(&hostaddr));
 248:../../platform/frdm-kl25z-rf/./contiki-main.c ****   }
 249:../../platform/frdm-kl25z-rf/./contiki-main.c **** #endif /* WITH_UIP */
 250:../../platform/frdm-kl25z-rf/./contiki-main.c **** 
 251:../../platform/frdm-kl25z-rf/./contiki-main.c ****   energest_init();
 363              		.loc 1 251 0 discriminator 2
 364 0180 FFF7FEFF 		bl	energest_init	@
 365              	.LVL45:
ARM GAS  /tmp/ccaJBlaH.s 			page 12


 252:../../platform/frdm-kl25z-rf/./contiki-main.c ****   ENERGEST_ON(ENERGEST_TYPE_CPU);
 253:../../platform/frdm-kl25z-rf/./contiki-main.c **** 
 254:../../platform/frdm-kl25z-rf/./contiki-main.c ****   //print_processes(autostart_processes);
 255:../../platform/frdm-kl25z-rf/./contiki-main.c ****   autostart_start(autostart_processes);
 366              		.loc 1 255 0 discriminator 2
 367 0184 2A48     		ldr	r0, .L9+120	@,
 368 0186 FFF7FEFF 		bl	autostart_start	@
 369              	.LVL46:
 256:../../platform/frdm-kl25z-rf/./contiki-main.c **** 
 257:../../platform/frdm-kl25z-rf/./contiki-main.c ****   /*
 258:../../platform/frdm-kl25z-rf/./contiki-main.c ****    * This is the scheduler loop.
 259:../../platform/frdm-kl25z-rf/./contiki-main.c ****    */
 260:../../platform/frdm-kl25z-rf/./contiki-main.c **** #if DCOSYNCH_CONF_ENABLED
 261:../../platform/frdm-kl25z-rf/./contiki-main.c ****   timer_set(&mgt_timer, DCOSYNCH_PERIOD * CLOCK_SECOND);
 262:../../platform/frdm-kl25z-rf/./contiki-main.c **** #endif
 263:../../platform/frdm-kl25z-rf/./contiki-main.c ****   watchdog_start();
 370              		.loc 1 263 0 discriminator 2
 371 018a FFF7FEFF 		bl	watchdog_start	@
 372              	.LVL47:
 373              	.LBB9:
 264:../../platform/frdm-kl25z-rf/./contiki-main.c ****   /*  watchdog_stop();*/
 265:../../platform/frdm-kl25z-rf/./contiki-main.c ****   while(1) {
 266:../../platform/frdm-kl25z-rf/./contiki-main.c ****     int r;
 267:../../platform/frdm-kl25z-rf/./contiki-main.c **** #if PROFILE_CONF_ON
 268:../../platform/frdm-kl25z-rf/./contiki-main.c ****     profile_episode_start();
 269:../../platform/frdm-kl25z-rf/./contiki-main.c **** #endif /* PROFILE_CONF_ON */
 270:../../platform/frdm-kl25z-rf/./contiki-main.c ****     do {
 271:../../platform/frdm-kl25z-rf/./contiki-main.c ****       /* Reset watchdog. */
 272:../../platform/frdm-kl25z-rf/./contiki-main.c ****       watchdog_periodic();
 273:../../platform/frdm-kl25z-rf/./contiki-main.c ****       r = process_run();
 274:../../platform/frdm-kl25z-rf/./contiki-main.c ****     } while(r > 0);
 275:../../platform/frdm-kl25z-rf/./contiki-main.c **** #if PROFILE_CONF_ON
 276:../../platform/frdm-kl25z-rf/./contiki-main.c ****     profile_episode_end();
 277:../../platform/frdm-kl25z-rf/./contiki-main.c **** #endif /* PROFILE_CONF_ON */
 278:../../platform/frdm-kl25z-rf/./contiki-main.c **** 
 279:../../platform/frdm-kl25z-rf/./contiki-main.c ****     /*
 280:../../platform/frdm-kl25z-rf/./contiki-main.c ****      * Idle processing.
 281:../../platform/frdm-kl25z-rf/./contiki-main.c ****      */
 282:../../platform/frdm-kl25z-rf/./contiki-main.c ****     
 283:../../platform/frdm-kl25z-rf/./contiki-main.c ****       static unsigned long irq_energest = 0;
 284:../../platform/frdm-kl25z-rf/./contiki-main.c **** 
 285:../../platform/frdm-kl25z-rf/./contiki-main.c **** #if DCOSYNCH_CONF_ENABLED
 286:../../platform/frdm-kl25z-rf/./contiki-main.c ****       /* before going down to sleep possibly do some management */
 287:../../platform/frdm-kl25z-rf/./contiki-main.c ****       if (timer_expired(&mgt_timer)) {
 288:../../platform/frdm-kl25z-rf/./contiki-main.c **** 	timer_reset(&mgt_timer);
 289:../../platform/frdm-kl25z-rf/./contiki-main.c **** 	//msp430_sync_dco();
 290:../../platform/frdm-kl25z-rf/./contiki-main.c ****       }
 291:../../platform/frdm-kl25z-rf/./contiki-main.c **** #endif
 292:../../platform/frdm-kl25z-rf/./contiki-main.c **** 
 293:../../platform/frdm-kl25z-rf/./contiki-main.c ****       /* Re-enable interrupts and go to sleep atomically. */
 294:../../platform/frdm-kl25z-rf/./contiki-main.c ****       ENERGEST_OFF(ENERGEST_TYPE_CPU);
 295:../../platform/frdm-kl25z-rf/./contiki-main.c ****       ENERGEST_ON(ENERGEST_TYPE_LPM);
 296:../../platform/frdm-kl25z-rf/./contiki-main.c ****       /* We only want to measure the processing done in IRQs when we
 297:../../platform/frdm-kl25z-rf/./contiki-main.c **** 	 are asleep, so we discard the processing time done when we
 298:../../platform/frdm-kl25z-rf/./contiki-main.c **** 	 were awake. */
 299:../../platform/frdm-kl25z-rf/./contiki-main.c ****       energest_type_set(ENERGEST_TYPE_IRQ, irq_energest);
 374              		.loc 1 299 0 discriminator 2
ARM GAS  /tmp/ccaJBlaH.s 			page 13


 375 018e 134C     		ldr	r4, .L9+36	@ tmp288,
 376              	.L6:
 272:../../platform/frdm-kl25z-rf/./contiki-main.c ****       watchdog_periodic();
 377              		.loc 1 272 0 discriminator 1
 378 0190 FFF7FEFF 		bl	watchdog_periodic	@
 379              	.LVL48:
 273:../../platform/frdm-kl25z-rf/./contiki-main.c ****       r = process_run();
 380              		.loc 1 273 0 discriminator 1
 381 0194 FFF7FEFF 		bl	process_run	@
 382              	.LVL49:
 274:../../platform/frdm-kl25z-rf/./contiki-main.c ****     } while(r > 0);
 383              		.loc 1 274 0 discriminator 1
 384 0198 0028     		cmp	r0, #0	@ r,
 385 019a F9DC     		bgt	.L6	@,
 386              		.loc 1 299 0
 387 019c 0220     		mov	r0, #2	@,
 388              	.LVL50:
 389 019e 6168     		ldr	r1, [r4, #4]	@, irq_energest
 390 01a0 FFF7FEFF 		bl	energest_type_set	@
 391              	.LVL51:
 300:../../platform/frdm-kl25z-rf/./contiki-main.c ****       watchdog_stop();
 392              		.loc 1 300 0
 393 01a4 FFF7FEFF 		bl	watchdog_stop	@
 394              	.LVL52:
 301:../../platform/frdm-kl25z-rf/./contiki-main.c **** 
 302:../../platform/frdm-kl25z-rf/./contiki-main.c **** 
 303:../../platform/frdm-kl25z-rf/./contiki-main.c ****       /* We get the current processing time for interrupts that was
 304:../../platform/frdm-kl25z-rf/./contiki-main.c **** 	 done during the LPM and store it for next time around.  */
 305:../../platform/frdm-kl25z-rf/./contiki-main.c ****       //dint();
 306:../../platform/frdm-kl25z-rf/./contiki-main.c ****       irq_energest = energest_type_time(ENERGEST_TYPE_IRQ);
 395              		.loc 1 306 0
 396 01a8 0220     		mov	r0, #2	@,
 397 01aa FFF7FEFF 		bl	energest_type_time	@
 398              	.LVL53:
 399 01ae 6060     		str	r0, [r4, #4]	@ irq_energest.2, irq_energest
 307:../../platform/frdm-kl25z-rf/./contiki-main.c ****       //eint();
 308:../../platform/frdm-kl25z-rf/./contiki-main.c ****       watchdog_start();
 400              		.loc 1 308 0
 401 01b0 FFF7FEFF 		bl	watchdog_start	@
 402              	.LVL54:
 403              	.LBE9:
 309:../../platform/frdm-kl25z-rf/./contiki-main.c ****       ENERGEST_OFF(ENERGEST_TYPE_LPM);
 310:../../platform/frdm-kl25z-rf/./contiki-main.c ****       ENERGEST_ON(ENERGEST_TYPE_CPU);
 311:../../platform/frdm-kl25z-rf/./contiki-main.c ****     }
 404              		.loc 1 311 0
 405 01b4 ECE7     		b	.L6	@
 406              	.L10:
 407 01b6 C046     		.align	2
 408              	.L9:
 409 01b8 00000000 		.word	.LC0
 410 01bc 10000000 		.word	.LC2
 411 01c0 1C000000 		.word	.LC4
 412 01c4 00000000 		.word	node_mac
 413 01c8 2C000000 		.word	.LC7
 414 01cc 38000000 		.word	.LC9
 415 01d0 00000000 		.word	etimer_process
 416 01d4 48000000 		.word	.LC12
ARM GAS  /tmp/ccaJBlaH.s 			page 14


 417 01d8 54000000 		.word	.LC14
 418 01dc 00000000 		.word	.LANCHOR0
 419 01e0 68000000 		.word	.LC17
 420 01e4 84000000 		.word	.LC19
 421 01e8 88000000 		.word	.LC21
 422 01ec 8C000000 		.word	.LC23
 423 01f0 94000000 		.word	.LC25
 424 01f4 00000000 		.word	cc11xx_driver
 425 01f8 A4000000 		.word	.LC28
 426 01fc C8000000 		.word	.LC30
 427 0200 D0000000 		.word	.LC32
 428 0204 00000000 		.word	contikimac_driver
 429 0208 00000000 		.word	csma_driver
 430 020c 00000000 		.word	rime_driver
 431 0210 FC000000 		.word	.LC37
 432 0214 00000000 		.word	tcpip_process
 433 0218 00000000 		.word	uip_fw_process
 434 021c 00000000 		.word	rimeaddr_node_addr
 435 0220 00000000 		.word	.LANCHOR1
 436 0224 00000000 		.word	uip_hostaddr
 437 0228 00000000 		.word	uip_netmask
 438 022c 30010000 		.word	.LC45
 439 0230 00000000 		.word	autostart_processes
 440              		.cfi_endproc
 441              	.LFE5:
 442              		.size	main, .-main
 443              		.global	idle_count
 444              		.comm	node_mac,8,4
 445              		.global	node_id
 446              		.data
 447              		.align	2
 448              		.set	.LANCHOR1,. + 0
 449              		.type	meshif, %object
 450              		.size	meshif, 16
 451              	meshif:
 452              	@ next:
 453 0000 00000000 		.word	0
 454              	@ ipaddr:
 455              	@ u8:
 456 0004 AC       		.byte	-84
 457 0005 10       		.byte	16
 458 0006 00       		.byte	0
 459 0007 00       		.byte	0
 460              	@ netmask:
 461              	@ u8:
 462 0008 FF       		.byte	-1
 463 0009 FF       		.byte	-1
 464 000a 00       		.byte	0
 465 000b 00       		.byte	0
 466              	@ output:
 467 000c 00000000 		.word	uip_over_mesh_send
 468              		.section	.rodata.str1.4,"aMS",%progbits,1
 469              		.align	2
 470              	.LC0:
 471 0000 496E6974 		.ascii	"Initialising...\000"
 471      69616C69 
 471      73696E67 
ARM GAS  /tmp/ccaJBlaH.s 			page 15


 471      2E2E2E00 
 472              	.LC2:
 473 0010 636C6F63 		.ascii	"clock...\000"
 473      6B2E2E2E 
 473      00
 474 0019 000000   		.space	3
 475              	.LC4:
 476 001c 73657420 		.ascii	"set node_mac...\000"
 476      6E6F6465 
 476      5F6D6163 
 476      2E2E2E00 
 477              	.LC7:
 478 002c 70726F63 		.ascii	"process...\000"
 478      6573732E 
 478      2E2E00
 479 0037 00       		.space	1
 480              	.LC9:
 481 0038 73746172 		.ascii	"start etimer...\000"
 481      74206574 
 481      696D6572 
 481      2E2E2E00 
 482              	.LC12:
 483 0048 6374696D 		.ascii	"ctimer...\000"
 483      65722E2E 
 483      2E00
 484 0052 0000     		.space	2
 485              	.LC14:
 486 0054 73657420 		.ascii	"set rime_address...\000"
 486      72696D65 
 486      5F616464 
 486      72657373 
 486      2E2E2E00 
 487              	.LC17:
 488 0068 52696D65 		.ascii	"Rime started with address \000"
 488      20737461 
 488      72746564 
 488      20776974 
 488      68206164 
 489 0083 00       		.space	1
 490              	.LC19:
 491 0084 25642E00 		.ascii	"%d.\000"
 492              	.LC21:
 493 0088 25640A00 		.ascii	"%d\012\000"
 494              	.LC23:
 495 008c 0A0D0A0D 		.ascii	"\012\015\012\015\000"
 495      00
 496 0091 000000   		.space	3
 497              	.LC25:
 498 0094 496E6974 		.ascii	"Init Radio...\000"
 498      20526164 
 498      696F2E2E 
 498      2E00
 499 00a2 0000     		.space	2
 500              	.LC28:
 501 00a4 53657420 		.ascii	"Set channel to 42 (868.25MHz)...\000"
 501      6368616E 
 501      6E656C20 
ARM GAS  /tmp/ccaJBlaH.s 			page 16


 501      746F2034 
 501      32202838 
 502 00c5 000000   		.space	3
 503              	.LC30:
 504 00c8 4F4B0A0D 		.ascii	"OK\012\015\000"
 504      00
 505 00cd 000000   		.space	3
 506              	.LC32:
 507 00d0 436F6E74 		.ascii	"Contiki-KL25Z-Port-18-g5a8e189 started. \000"
 507      696B692D 
 507      4B4C3235 
 507      5A2D506F 
 507      72742D31 
 508 00f9 000000   		.space	3
 509              	.LC37:
 510 00fc 25732025 		.ascii	"%s %s, channel check rate %lu Hz, radio channel %u\012"
 510      732C2063 
 510      68616E6E 
 510      656C2063 
 510      6865636B 
 511 012f 00       		.ascii	"\000"
 512              	.LC45:
 513 0130 75495020 		.ascii	"uIP started with IP address %d.%d.%d.%d\012\000"
 513      73746172 
 513      74656420 
 513      77697468 
 513      20495020 
 514 0159 000000   		.bss
 515              		.align	2
 516              		.set	.LANCHOR0,. + 0
 517              		.type	node_id, %object
 518              		.size	node_id, 2
 519              	node_id:
 520 0000 0000     		.space	2
 521 0002 0000     		.space	2
 522              		.type	irq_energest.6709, %object
 523              		.size	irq_energest.6709, 4
 524              	irq_energest.6709:
 525 0004 00000000 		.space	4
 526              		.type	idle_count, %object
 527              		.size	idle_count, 4
 528              	idle_count:
 529 0008 00000000 		.space	4
 530              		.text
 531              	.Letext0:
 532              		.file 2 "/home/glacsweb/arm-gcc/ARM_GCC_Support/ewl/EWL_C/include/cstdint"
 533              		.file 3 "../../core/./sys/lc-switch.h"
 534              		.file 4 "../../core/./sys/process.h"
 535              		.file 5 "../../core/./sys/pt.h"
 536              		.file 6 "../../core/./dev/radio.h"
 537              		.file 7 "../../core/./net/mac/mac.h"
 538              		.file 8 "../../core/./net/mac/rdc.h"
 539              		.file 9 "../../core/./net/netstack.h"
 540              		.file 10 "../../core/./net/rime/rimeaddr.h"
 541              		.file 11 "../../core/./net/packetbuf.h"
 542              		.file 12 "../../core/./net/uip.h"
 543              		.file 13 "../../core/./net/uip-fw.h"
ARM GAS  /tmp/ccaJBlaH.s 			page 17


 544              		.file 14 "../../core/sys/etimer.h"
 545              		.file 15 "../../core/./sys/autostart.h"
 546              		.file 16 "../../core/./net/rime.h"
 547              		.file 17 "../../core/./net/tcpip.h"
 548              		.file 18 "../../core/./net/uip-fw-drv.h"
 549              		.file 19 "../../core/./net/uip-over-mesh.h"
 550              		.file 20 "../../core/./dev/watchdog.h"
 551              		.file 21 "<built-in>"
 552              		.file 22 "../../core/./sys/energest.h"
 553              		.file 23 "/home/glacsweb/arm-gcc/ARM_GCC_Support/ewl/EWL_C/include/cstdio"
 554              		.file 24 "../../cpu/arm/mkl25z/cpu.h"
 555              		.file 25 "../../cpu/arm/mkl25z/debug-uart.h"
 556              		.file 26 "../../core/sys/clock.h"
 557              		.file 27 "../../core/./sys/ctimer.h"
 558              		.file 28 "../../dev/cc1120/cc11xx.h"